---
triple:          'arm64-apple-darwin'
binary-path:     '/Users/chriscrutchfield/Repos/school/e4e/e4e-data-management/target/debug/deps/lib_core.dylib'
relocations:
  - { offset: 0x1E, size: 0x8, addend: 0x0, symName: __ZN4core3ffi5c_str4CStr6as_ptr17h40aeddc3585a4768E, symObjAddr: 0x0, symBinAddr: 0x890, symSize: 0x18 }
  - { offset: 0x1E4, size: 0x8, addend: 0x0, symName: __ZN4core3ffi5c_str4CStr6as_ptr17h40aeddc3585a4768E, symObjAddr: 0x0, symBinAddr: 0x890, symSize: 0x18 }
  - { offset: 0x260, size: 0x8, addend: 0x0, symName: __ZN4core3ffi5c_str4CStr8from_ptr17hb209a84af0a0cf2bE, symObjAddr: 0x18, symBinAddr: 0x8A8, symSize: 0x7C }
  - { offset: 0x381, size: 0x8, addend: 0x0, symName: '__ZN62_$LT$rusqlite..OpenFlags$u20$as$u20$core..default..Default$GT$7default17h5e880f9d4ab00614E', symObjAddr: 0x0, symBinAddr: 0x924, symSize: 0xC4 }
  - { offset: 0x3EC, size: 0x8, addend: 0x0, symName: '__ZN62_$LT$rusqlite..OpenFlags$u20$as$u20$core..default..Default$GT$7default17h5e880f9d4ab00614E', symObjAddr: 0x0, symBinAddr: 0x924, symSize: 0xC4 }
  - { offset: 0x410, size: 0x8, addend: 0x0, symName: '__ZN62_$LT$rusqlite..PrepFlags$u20$as$u20$core..default..Default$GT$7default17hc9e27e4ced32150bE', symObjAddr: 0xC4, symBinAddr: 0x9E8, symSize: 0x24 }
  - { offset: 0x439, size: 0x8, addend: 0x0, symName: '__ZN72_$LT$rusqlite.._..InternalBitFlags$u20$as$u20$core..default..Default$GT$7default17haa71dc878a45c2c5E', symObjAddr: 0xE8, symBinAddr: 0xA0C, symSize: 0x14 }
  - { offset: 0x4B1, size: 0x8, addend: 0x0, symName: '__ZN8rusqlite1_71_$LT$impl$u20$core..ops..bit..BitOr$u20$for$u20$rusqlite..OpenFlags$GT$5bitor17hf3ed307e586c9400E', symObjAddr: 0x444, symBinAddr: 0xD68, symSize: 0x6C }
  - { offset: 0x1E73, size: 0x8, addend: 0x0, symName: __ZN8rusqlite10Connection13decode_result17h3a4b5c3ae9e7d9efE, symObjAddr: 0xFC, symBinAddr: 0xA20, symSize: 0x98 }
  - { offset: 0x1EA5, size: 0x8, addend: 0x0, symName: __ZN8rusqlite10Connection13is_autocommit17h6ca20de19de0e267E, symObjAddr: 0x194, symBinAddr: 0xAB8, symSize: 0x8C }
  - { offset: 0x1EF6, size: 0x8, addend: 0x0, symName: __ZN8rusqlite10Connection18prepare_with_flags17h0a8136b25494b0a8E, symObjAddr: 0x220, symBinAddr: 0xB44, symSize: 0xCC }
  - { offset: 0x1F37, size: 0x8, addend: 0x0, symName: __ZN8rusqlite10Connection7changes17hbbde5fef43fbbec1E, symObjAddr: 0x2EC, symBinAddr: 0xC10, symSize: 0x8C }
  - { offset: 0x1F5A, size: 0x8, addend: 0x0, symName: __ZN8rusqlite10Connection7prepare17h778b531fc8cb4af6E, symObjAddr: 0x378, symBinAddr: 0xC9C, symSize: 0x68 }
  - { offset: 0x1F8C, size: 0x8, addend: 0x0, symName: __ZN8rusqlite1_16InternalBitFlags5empty17hd6025b3802b10410E, symObjAddr: 0x3E0, symBinAddr: 0xD04, symSize: 0x8 }
  - { offset: 0x1F9F, size: 0x8, addend: 0x0, symName: __ZN8rusqlite1_16InternalBitFlags5union17hd81e7d5e0346584eE, symObjAddr: 0x3E8, symBinAddr: 0xD0C, symSize: 0x18 }
  - { offset: 0x1FD1, size: 0x8, addend: 0x0, symName: '__ZN8rusqlite1_37_$LT$impl$u20$rusqlite..OpenFlags$GT$5union17h140a7012a4bca088E', symObjAddr: 0x400, symBinAddr: 0xD24, symSize: 0x44 }
  - { offset: 0x2021, size: 0x8, addend: 0x0, symName: '__ZN12block_buffer35BlockBuffer$LT$BlockSize$C$Kind$GT$13digest_blocks17h4b80f65cb5d2e2beE', symObjAddr: 0x0, symBinAddr: 0xDD4, symSize: 0x604 }
  - { offset: 0x222A, size: 0x8, addend: 0x0, symName: '__ZN92_$LT$block_buffer..BlockBuffer$LT$BlockSize$C$Kind$GT$$u20$as$u20$core..default..Default$GT$7default17hc213641f49780c6bE', symObjAddr: 0xB38, symBinAddr: 0x190C, symSize: 0x48 }
  - { offset: 0x2AA0, size: 0x8, addend: 0x0, symName: '__ZN12block_buffer35BlockBuffer$LT$BlockSize$C$Kind$GT$13digest_blocks17h4b80f65cb5d2e2beE', symObjAddr: 0x0, symBinAddr: 0xDD4, symSize: 0x604 }
  - { offset: 0x2F55, size: 0x8, addend: 0x0, symName: '__ZN12block_buffer50BlockBuffer$LT$BlockSize$C$block_buffer..Eager$GT$16len64_padding_be17h427ae0e2461c70d3E', symObjAddr: 0x604, symBinAddr: 0x13D8, symSize: 0x534 }
  - { offset: 0x3225, size: 0x8, addend: 0x0, symName: __ZN3std2io5Write14write_vectored17h855d4c1b578c9524E, symObjAddr: 0x0, symBinAddr: 0x1954, symSize: 0x30 }
  - { offset: 0x3299, size: 0x8, addend: 0x0, symName: '__ZN3zip5write25GenericZipWriter$LT$W$GT$19prepare_next_writer28_$u7b$$u7b$closure$u7d$$u7d$17hf095b1b13026f4c6E', symObjAddr: 0x131C, symBinAddr: 0x2C70, symSize: 0x3C }
  - { offset: 0x32DC, size: 0x8, addend: 0x0, symName: '__ZN3zip5write25GenericZipWriter$LT$W$GT$19prepare_next_writer28_$u7b$$u7b$closure$u7d$$u7d$17hf74c1594e4cadf0aE', symObjAddr: 0x1358, symBinAddr: 0x2CAC, symSize: 0xC8 }
  - { offset: 0x3324, size: 0x8, addend: 0x0, symName: '__ZN3zip5write25GenericZipWriter$LT$W$GT$19prepare_next_writer28_$u7b$$u7b$closure$u7d$$u7d$17hf88c23d8b7db02aeE', symObjAddr: 0x1420, symBinAddr: 0x2D74, symSize: 0x180 }
  - { offset: 0x339A, size: 0x8, addend: 0x0, symName: '__ZN3zip5write25GenericZipWriter$LT$W$GT$9switch_to28_$u7b$$u7b$closure$u7d$$u7d$17h1f52ea08c7e8f4f4E', symObjAddr: 0x1EC4, symBinAddr: 0x3818, symSize: 0x48 }
  - { offset: 0x345A, size: 0x8, addend: 0x0, symName: __ZN3zip5write21update_aes_extra_data17hcba6337b2bd85b1bE, symObjAddr: 0x55C, symBinAddr: 0x1EB0, symSize: 0x5C8 }
  - { offset: 0x3662, size: 0x8, addend: 0x0, symName: __ZN3zip5write24update_local_file_header17h0bc0cb8ebd1acd02E, symObjAddr: 0xB24, symBinAddr: 0x2478, symSize: 0x300 }
  - { offset: 0x394E, size: 0x8, addend: 0x0, symName: __ZN3zip5write30update_local_zip64_extra_field17h69715668e3628557E, symObjAddr: 0x1F0C, symBinAddr: 0x3860, symSize: 0x354 }
  - { offset: 0x3A93, size: 0x8, addend: 0x0, symName: __ZN3zip5write30write_central_directory_header17h46e7b1c19411c825E, symObjAddr: 0x2260, symBinAddr: 0x3BB4, symSize: 0x2F8 }
  - { offset: 0x3BE4, size: 0x8, addend: 0x0, symName: '__ZN3zip5write60_$LT$impl$u20$zip..write..zip_writer..ZipWriter$LT$W$GT$$GT$10abort_file28_$u7b$$u7b$closure$u7d$$u7d$17h229aa76337333dddE', symObjAddr: 0x2558, symBinAddr: 0x3EAC, symSize: 0x38 }
  - { offset: 0x3C32, size: 0x8, addend: 0x0, symName: '__ZN3zip5write60_$LT$impl$u20$zip..write..zip_writer..ZipWriter$LT$W$GT$$GT$10abort_file28_$u7b$$u7b$closure$u7d$$u7d$28_$u7b$$u7b$closure$u7d$$u7d$17hc5b9ba52f8ecda7fE', symObjAddr: 0x2590, symBinAddr: 0x3EE4, symSize: 0x38 }
  - { offset: 0x3C81, size: 0x8, addend: 0x0, symName: '__ZN3zip5write60_$LT$impl$u20$zip..write..zip_writer..ZipWriter$LT$W$GT$$GT$11start_entry28_$u7b$$u7b$closure$u7d$$u7d$17h62ff25a924556f2bE', symObjAddr: 0x25C8, symBinAddr: 0x3F1C, symSize: 0x3E0 }
  - { offset: 0x3DC8, size: 0x8, addend: 0x0, symName: '__ZN3zip5write60_$LT$impl$u20$zip..write..zip_writer..ZipWriter$LT$W$GT$$GT$11start_entry28_$u7b$$u7b$closure$u7d$$u7d$17hf7c66033780c10eaE', symObjAddr: 0x29A8, symBinAddr: 0x42FC, symSize: 0x18 }
  - { offset: 0x3E15, size: 0x8, addend: 0x0, symName: __ZN3zip5write9clamp_opt17h55613cdf5175adf8E, symObjAddr: 0x29C0, symBinAddr: 0x4314, symSize: 0x98 }
  - { offset: 0x3EA6, size: 0x8, addend: 0x0, symName: '__ZN70_$LT$zip..write..MaybeEncrypted$LT$W$GT$$u20$as$u20$std..io..Write$GT$5flush17h6f1d6485db680c3fE', symObjAddr: 0x2A58, symBinAddr: 0x43AC, symSize: 0x74 }
  - { offset: 0x3F15, size: 0x8, addend: 0x0, symName: '__ZN70_$LT$zip..write..MaybeEncrypted$LT$W$GT$$u20$as$u20$std..io..Write$GT$5write17h019fa7b04fa9ad44E', symObjAddr: 0x2ACC, symBinAddr: 0x4420, symSize: 0xA0 }
  - { offset: 0x5B0C, size: 0x8, addend: 0x0, symName: __ZN3std2io5Write14write_vectored17h855d4c1b578c9524E, symObjAddr: 0x0, symBinAddr: 0x1954, symSize: 0x30 }
  - { offset: 0x5B52, size: 0x8, addend: 0x0, symName: __ZN3std2io5Write17is_write_vectored17h004b265f403607d5E, symObjAddr: 0x30, symBinAddr: 0x1984, symSize: 0x18 }
  - { offset: 0x5B89, size: 0x8, addend: 0x0, symName: __ZN3std2io5Write18write_all_vectored17h7b8e5df6191479d0E, symObjAddr: 0x48, symBinAddr: 0x199C, symSize: 0x20C }
  - { offset: 0x5CEC, size: 0x8, addend: 0x0, symName: __ZN3std2io5Write9write_all17hf8f391e1a902bf6fE, symObjAddr: 0x254, symBinAddr: 0x1BA8, symSize: 0x27C }
  - { offset: 0x5EDC, size: 0x8, addend: 0x0, symName: __ZN3std2io5Write9write_fmt17h3ad5ed0b357f42b4E, symObjAddr: 0x4D0, symBinAddr: 0x1E24, symSize: 0x8C }
  - { offset: 0x6A27, size: 0x8, addend: 0x0, symName: '__ZN3zip5write25GenericZipWriter$LT$W$GT$19prepare_next_writer17h79a3f0f965b2442dE', symObjAddr: 0xE24, symBinAddr: 0x2778, symSize: 0x4F8 }
  - { offset: 0x6B93, size: 0x8, addend: 0x0, symName: '__ZN3zip5write25GenericZipWriter$LT$W$GT$6unwrap17hb9b953a1fc89d59aE', symObjAddr: 0x15A0, symBinAddr: 0x2EF4, symSize: 0x1B0 }
  - { offset: 0x6BFB, size: 0x8, addend: 0x0, symName: '__ZN3zip5write25GenericZipWriter$LT$W$GT$7ref_mut17ha117eaa6c566dc24E', symObjAddr: 0x1750, symBinAddr: 0x30A4, symSize: 0x110 }
  - { offset: 0x6CAE, size: 0x8, addend: 0x0, symName: '__ZN3zip5write25GenericZipWriter$LT$W$GT$9get_plain17h42229571ccc813c1E', symObjAddr: 0x1860, symBinAddr: 0x31B4, symSize: 0x98 }
  - { offset: 0x6CDA, size: 0x8, addend: 0x0, symName: '__ZN3zip5write25GenericZipWriter$LT$W$GT$9is_closed17h9936a26a0c0ccce4E', symObjAddr: 0x18F8, symBinAddr: 0x324C, symSize: 0x38 }
  - { offset: 0x6D06, size: 0x8, addend: 0x0, symName: '__ZN3zip5write25GenericZipWriter$LT$W$GT$9switch_to17h88fc2cd51de65be9E', symObjAddr: 0x1930, symBinAddr: 0x3284, symSize: 0x594 }
  - { offset: 0x723A, size: 0x8, addend: 0x0, symName: __ZN4pyo35impl_12deprecations12inspect_type17h022013242a2bbabaE, symObjAddr: 0x0, symBinAddr: 0x44C0, symSize: 0x24 }
  - { offset: 0x86B1, size: 0x8, addend: 0x0, symName: __ZN4pyo35impl_12deprecations12inspect_type17h022013242a2bbabaE, symObjAddr: 0x0, symBinAddr: 0x44C0, symSize: 0x24 }
  - { offset: 0x86F0, size: 0x8, addend: 0x0, symName: __ZN4pyo35impl_12deprecations12inspect_type17h04c082c73ca534b6E, symObjAddr: 0x24, symBinAddr: 0x44E4, symSize: 0x1C }
  - { offset: 0x872F, size: 0x8, addend: 0x0, symName: __ZN4pyo35impl_12deprecations12inspect_type17h085b6404f65b10dbE, symObjAddr: 0x40, symBinAddr: 0x4500, symSize: 0x14 }
  - { offset: 0x876E, size: 0x8, addend: 0x0, symName: __ZN4pyo35impl_12deprecations12inspect_type17h127c1fada1bb2cdaE, symObjAddr: 0x54, symBinAddr: 0x4514, symSize: 0x24 }
  - { offset: 0x87AD, size: 0x8, addend: 0x0, symName: __ZN4pyo35impl_12deprecations12inspect_type17h18da8e13d93cd8fcE, symObjAddr: 0x78, symBinAddr: 0x4538, symSize: 0x18 }
  - { offset: 0x87EC, size: 0x8, addend: 0x0, symName: __ZN4pyo35impl_12deprecations12inspect_type17h489a60ad88b729bcE, symObjAddr: 0x90, symBinAddr: 0x4550, symSize: 0x18 }
  - { offset: 0x882B, size: 0x8, addend: 0x0, symName: __ZN4pyo35impl_12deprecations12inspect_type17hb4636bf03f04b8efE, symObjAddr: 0xA8, symBinAddr: 0x4568, symSize: 0x18 }
  - { offset: 0x886A, size: 0x8, addend: 0x0, symName: __ZN4pyo35impl_12deprecations12inspect_type17hce012781cbde7bebE, symObjAddr: 0xC0, symBinAddr: 0x4580, symSize: 0x18 }
  - { offset: 0x88A9, size: 0x8, addend: 0x0, symName: __ZN4pyo35impl_12deprecations12inspect_type17hdc343bca5466747bE, symObjAddr: 0xD8, symBinAddr: 0x4598, symSize: 0x18 }
  - { offset: 0x88E8, size: 0x8, addend: 0x0, symName: __ZN4pyo35impl_12deprecations12inspect_type17he0fbfba5261b2e66E, symObjAddr: 0xF0, symBinAddr: 0x45B0, symSize: 0x18 }
  - { offset: 0x8927, size: 0x8, addend: 0x0, symName: __ZN4pyo35impl_12deprecations12inspect_type17hede128d1e8639ceeE, symObjAddr: 0x108, symBinAddr: 0x45C8, symSize: 0x24 }
  - { offset: 0x8966, size: 0x8, addend: 0x0, symName: __ZN4pyo35impl_12deprecations12inspect_type17hf77680a3bdae0447E, symObjAddr: 0x12C, symBinAddr: 0x45EC, symSize: 0x18 }
  - { offset: 0x9030, size: 0x8, addend: 0x0, symName: '__ZN87_$LT$pyo3..impl_..deprecations..GilRefs$LT$T$GT$$u20$as$u20$core..ops..deref..Deref$GT$5deref17h179bb8ad13629a25E', symObjAddr: 0x244, symBinAddr: 0x4704, symSize: 0x14 }
  - { offset: 0x9065, size: 0x8, addend: 0x0, symName: '__ZN87_$LT$pyo3..impl_..deprecations..GilRefs$LT$T$GT$$u20$as$u20$core..ops..deref..Deref$GT$5deref17h66401723a1fedc10E', symObjAddr: 0x258, symBinAddr: 0x4718, symSize: 0x14 }
  - { offset: 0x909A, size: 0x8, addend: 0x0, symName: '__ZN87_$LT$pyo3..impl_..deprecations..GilRefs$LT$T$GT$$u20$as$u20$core..ops..deref..Deref$GT$5deref17h671bedbf2f294823E', symObjAddr: 0x26C, symBinAddr: 0x472C, symSize: 0x14 }
  - { offset: 0x90CF, size: 0x8, addend: 0x0, symName: '__ZN87_$LT$pyo3..impl_..deprecations..GilRefs$LT$T$GT$$u20$as$u20$core..ops..deref..Deref$GT$5deref17h77eb3a45235cd40cE', symObjAddr: 0x280, symBinAddr: 0x4740, symSize: 0x14 }
  - { offset: 0x9104, size: 0x8, addend: 0x0, symName: '__ZN87_$LT$pyo3..impl_..deprecations..GilRefs$LT$T$GT$$u20$as$u20$core..ops..deref..Deref$GT$5deref17h8aba8ccc3a7485afE', symObjAddr: 0x294, symBinAddr: 0x4754, symSize: 0x14 }
  - { offset: 0x9139, size: 0x8, addend: 0x0, symName: '__ZN87_$LT$pyo3..impl_..deprecations..GilRefs$LT$T$GT$$u20$as$u20$core..ops..deref..Deref$GT$5deref17ha2e9c8e658c190fbE', symObjAddr: 0x2A8, symBinAddr: 0x4768, symSize: 0x14 }
  - { offset: 0x916E, size: 0x8, addend: 0x0, symName: '__ZN87_$LT$pyo3..impl_..deprecations..GilRefs$LT$T$GT$$u20$as$u20$core..ops..deref..Deref$GT$5deref17ha45bfac4c824d8ecE', symObjAddr: 0x2BC, symBinAddr: 0x477C, symSize: 0x14 }
  - { offset: 0x91A3, size: 0x8, addend: 0x0, symName: '__ZN87_$LT$pyo3..impl_..deprecations..GilRefs$LT$T$GT$$u20$as$u20$core..ops..deref..Deref$GT$5deref17ha5b2f0f5fc09dea0E', symObjAddr: 0x2D0, symBinAddr: 0x4790, symSize: 0x14 }
  - { offset: 0x91D8, size: 0x8, addend: 0x0, symName: '__ZN87_$LT$pyo3..impl_..deprecations..GilRefs$LT$T$GT$$u20$as$u20$core..ops..deref..Deref$GT$5deref17hb55244ba505e9bc9E', symObjAddr: 0x2E4, symBinAddr: 0x47A4, symSize: 0x14 }
  - { offset: 0x920D, size: 0x8, addend: 0x0, symName: '__ZN87_$LT$pyo3..impl_..deprecations..GilRefs$LT$T$GT$$u20$as$u20$core..ops..deref..Deref$GT$5deref17hc1f44ed780e20b3dE', symObjAddr: 0x2F8, symBinAddr: 0x47B8, symSize: 0x14 }
  - { offset: 0x9242, size: 0x8, addend: 0x0, symName: '__ZN87_$LT$pyo3..impl_..deprecations..GilRefs$LT$T$GT$$u20$as$u20$core..ops..deref..Deref$GT$5deref17hcff1e35f1c36b2c6E', symObjAddr: 0x30C, symBinAddr: 0x47CC, symSize: 0x14 }
  - { offset: 0x9277, size: 0x8, addend: 0x0, symName: '__ZN87_$LT$pyo3..impl_..deprecations..GilRefs$LT$T$GT$$u20$as$u20$core..ops..deref..Deref$GT$5deref17hdbd1577f2f3995ecE', symObjAddr: 0x320, symBinAddr: 0x47E0, symSize: 0x14 }
  - { offset: 0x92B2, size: 0x8, addend: 0x0, symName: '__ZN93_$LT$pyo3..impl_..deprecations..OptionGilRefs$LT$T$GT$$u20$as$u20$core..ops..deref..Deref$GT$5deref17h066902a23d4dd2d1E', symObjAddr: 0x334, symBinAddr: 0x47F4, symSize: 0x14 }
  - { offset: 0x92E7, size: 0x8, addend: 0x0, symName: '__ZN93_$LT$pyo3..impl_..deprecations..OptionGilRefs$LT$T$GT$$u20$as$u20$core..ops..deref..Deref$GT$5deref17h198bd855735817baE', symObjAddr: 0x348, symBinAddr: 0x4808, symSize: 0x14 }
  - { offset: 0x931C, size: 0x8, addend: 0x0, symName: '__ZN93_$LT$pyo3..impl_..deprecations..OptionGilRefs$LT$T$GT$$u20$as$u20$core..ops..deref..Deref$GT$5deref17h29f394b4d16307d5E', symObjAddr: 0x35C, symBinAddr: 0x481C, symSize: 0x14 }
  - { offset: 0x9351, size: 0x8, addend: 0x0, symName: '__ZN93_$LT$pyo3..impl_..deprecations..OptionGilRefs$LT$T$GT$$u20$as$u20$core..ops..deref..Deref$GT$5deref17h2b28ad60eb615eb8E', symObjAddr: 0x370, symBinAddr: 0x4830, symSize: 0x14 }
  - { offset: 0x9386, size: 0x8, addend: 0x0, symName: '__ZN93_$LT$pyo3..impl_..deprecations..OptionGilRefs$LT$T$GT$$u20$as$u20$core..ops..deref..Deref$GT$5deref17h3868e7dd5de40a62E', symObjAddr: 0x384, symBinAddr: 0x4844, symSize: 0x14 }
  - { offset: 0x93BB, size: 0x8, addend: 0x0, symName: '__ZN93_$LT$pyo3..impl_..deprecations..OptionGilRefs$LT$T$GT$$u20$as$u20$core..ops..deref..Deref$GT$5deref17h5eecbe9761bd79b9E', symObjAddr: 0x398, symBinAddr: 0x4858, symSize: 0x14 }
  - { offset: 0x93F0, size: 0x8, addend: 0x0, symName: '__ZN93_$LT$pyo3..impl_..deprecations..OptionGilRefs$LT$T$GT$$u20$as$u20$core..ops..deref..Deref$GT$5deref17h777d6df5ff3b0ecaE', symObjAddr: 0x3AC, symBinAddr: 0x486C, symSize: 0x14 }
  - { offset: 0x9425, size: 0x8, addend: 0x0, symName: '__ZN93_$LT$pyo3..impl_..deprecations..OptionGilRefs$LT$T$GT$$u20$as$u20$core..ops..deref..Deref$GT$5deref17h7d2a336db9e60950E', symObjAddr: 0x3C0, symBinAddr: 0x4880, symSize: 0x14 }
  - { offset: 0x945A, size: 0x8, addend: 0x0, symName: '__ZN93_$LT$pyo3..impl_..deprecations..OptionGilRefs$LT$T$GT$$u20$as$u20$core..ops..deref..Deref$GT$5deref17h7e393b60750fe0e7E', symObjAddr: 0x3D4, symBinAddr: 0x4894, symSize: 0x14 }
  - { offset: 0x948F, size: 0x8, addend: 0x0, symName: '__ZN93_$LT$pyo3..impl_..deprecations..OptionGilRefs$LT$T$GT$$u20$as$u20$core..ops..deref..Deref$GT$5deref17h99c20f57071a36fcE', symObjAddr: 0x3E8, symBinAddr: 0x48A8, symSize: 0x14 }
  - { offset: 0x94C4, size: 0x8, addend: 0x0, symName: '__ZN93_$LT$pyo3..impl_..deprecations..OptionGilRefs$LT$T$GT$$u20$as$u20$core..ops..deref..Deref$GT$5deref17hb038c5af26b717faE', symObjAddr: 0x3FC, symBinAddr: 0x48BC, symSize: 0x14 }
  - { offset: 0x94F9, size: 0x8, addend: 0x0, symName: '__ZN93_$LT$pyo3..impl_..deprecations..OptionGilRefs$LT$T$GT$$u20$as$u20$core..ops..deref..Deref$GT$5deref17hc949dae3c0fd8d62E', symObjAddr: 0x410, symBinAddr: 0x48D0, symSize: 0x14 }
  - { offset: 0x9B8E, size: 0x8, addend: 0x0, symName: '__ZN4pyo35impl_12deprecations16GilRefs$LT$T$GT$3new17h0e53e00730cab66bE', symObjAddr: 0x144, symBinAddr: 0x4604, symSize: 0x4 }
  - { offset: 0xA1A9, size: 0x8, addend: 0x0, symName: '__ZN4pyo35impl_12deprecations16GilRefs$LT$T$GT$3new17h32e7fcd9fb60c2ffE', symObjAddr: 0x148, symBinAddr: 0x4608, symSize: 0x4 }
  - { offset: 0xA1C6, size: 0x8, addend: 0x0, symName: '__ZN4pyo35impl_12deprecations16GilRefs$LT$T$GT$3new17h4144b80f734a264eE', symObjAddr: 0x14C, symBinAddr: 0x460C, symSize: 0x4 }
  - { offset: 0xA1E3, size: 0x8, addend: 0x0, symName: '__ZN4pyo35impl_12deprecations16GilRefs$LT$T$GT$3new17h4477737b5c720826E', symObjAddr: 0x150, symBinAddr: 0x4610, symSize: 0x4 }
  - { offset: 0xA200, size: 0x8, addend: 0x0, symName: '__ZN4pyo35impl_12deprecations16GilRefs$LT$T$GT$3new17h58ca9ce85f450fcfE', symObjAddr: 0x154, symBinAddr: 0x4614, symSize: 0x4 }
  - { offset: 0xA244, size: 0x8, addend: 0x0, symName: '__ZN4pyo35impl_12deprecations16GilRefs$LT$T$GT$3new17h5a2bc99340669bfcE', symObjAddr: 0x158, symBinAddr: 0x4618, symSize: 0x4 }
  - { offset: 0xA261, size: 0x8, addend: 0x0, symName: '__ZN4pyo35impl_12deprecations16GilRefs$LT$T$GT$3new17h8af81f0c6c1d5713E', symObjAddr: 0x15C, symBinAddr: 0x461C, symSize: 0x4 }
  - { offset: 0xA27E, size: 0x8, addend: 0x0, symName: '__ZN4pyo35impl_12deprecations16GilRefs$LT$T$GT$3new17h959b45bcc220bc0bE', symObjAddr: 0x160, symBinAddr: 0x4620, symSize: 0x4 }
  - { offset: 0xA2A8, size: 0x8, addend: 0x0, symName: '__ZN4pyo35impl_12deprecations16GilRefs$LT$T$GT$3new17ha878294ea0d97b63E', symObjAddr: 0x164, symBinAddr: 0x4624, symSize: 0x4 }
  - { offset: 0xA2D2, size: 0x8, addend: 0x0, symName: '__ZN4pyo35impl_12deprecations16GilRefs$LT$T$GT$3new17he09dfaa7d22c612bE', symObjAddr: 0x168, symBinAddr: 0x4628, symSize: 0x4 }
  - { offset: 0xA2F6, size: 0x8, addend: 0x0, symName: '__ZN4pyo35impl_12deprecations16GilRefs$LT$T$GT$3new17he38020133dd3c304E', symObjAddr: 0x16C, symBinAddr: 0x462C, symSize: 0x4 }
  - { offset: 0xA320, size: 0x8, addend: 0x0, symName: '__ZN4pyo35impl_12deprecations16GilRefs$LT$T$GT$3new17he77b5315e39f551bE', symObjAddr: 0x170, symBinAddr: 0x4630, symSize: 0x4 }
  - { offset: 0xA34A, size: 0x8, addend: 0x0, symName: '__ZN4pyo35impl_12deprecations19NotAGilRef$LT$T$GT$12function_arg17h07d1fdd7b0e0859fE', symObjAddr: 0x174, symBinAddr: 0x4634, symSize: 0x10 }
  - { offset: 0xA382, size: 0x8, addend: 0x0, symName: '__ZN4pyo35impl_12deprecations19NotAGilRef$LT$T$GT$12function_arg17h2f30e7ff3c5320c3E', symObjAddr: 0x184, symBinAddr: 0x4644, symSize: 0x10 }
  - { offset: 0xA3BA, size: 0x8, addend: 0x0, symName: '__ZN4pyo35impl_12deprecations19NotAGilRef$LT$T$GT$12function_arg17h3f863e6fee56203bE', symObjAddr: 0x194, symBinAddr: 0x4654, symSize: 0x10 }
  - { offset: 0xA3F2, size: 0x8, addend: 0x0, symName: '__ZN4pyo35impl_12deprecations19NotAGilRef$LT$T$GT$12function_arg17h427e96c8fc7cbb98E', symObjAddr: 0x1A4, symBinAddr: 0x4664, symSize: 0x10 }
  - { offset: 0xA42A, size: 0x8, addend: 0x0, symName: '__ZN4pyo35impl_12deprecations19NotAGilRef$LT$T$GT$12function_arg17h59bad2119b275dcbE', symObjAddr: 0x1B4, symBinAddr: 0x4674, symSize: 0x10 }
  - { offset: 0xA462, size: 0x8, addend: 0x0, symName: '__ZN4pyo35impl_12deprecations19NotAGilRef$LT$T$GT$12function_arg17h666120c28de79f8eE', symObjAddr: 0x1C4, symBinAddr: 0x4684, symSize: 0x10 }
  - { offset: 0xA49A, size: 0x8, addend: 0x0, symName: '__ZN4pyo35impl_12deprecations19NotAGilRef$LT$T$GT$12function_arg17h6d448b1c67fc1fdfE', symObjAddr: 0x1D4, symBinAddr: 0x4694, symSize: 0x10 }
  - { offset: 0xA4D2, size: 0x8, addend: 0x0, symName: '__ZN4pyo35impl_12deprecations19NotAGilRef$LT$T$GT$12function_arg17h71d3d1b990e4b8b6E', symObjAddr: 0x1E4, symBinAddr: 0x46A4, symSize: 0x10 }
  - { offset: 0xA50A, size: 0x8, addend: 0x0, symName: '__ZN4pyo35impl_12deprecations19NotAGilRef$LT$T$GT$12function_arg17h9a1410e4fa3b6d7cE', symObjAddr: 0x1F4, symBinAddr: 0x46B4, symSize: 0x10 }
  - { offset: 0xA542, size: 0x8, addend: 0x0, symName: '__ZN4pyo35impl_12deprecations19NotAGilRef$LT$T$GT$12function_arg17h9c34ac76732e9dcfE', symObjAddr: 0x204, symBinAddr: 0x46C4, symSize: 0x10 }
  - { offset: 0xA57A, size: 0x8, addend: 0x0, symName: '__ZN4pyo35impl_12deprecations19NotAGilRef$LT$T$GT$12function_arg17hb6d22b9af0730268E', symObjAddr: 0x214, symBinAddr: 0x46D4, symSize: 0x10 }
  - { offset: 0xA5B2, size: 0x8, addend: 0x0, symName: '__ZN4pyo35impl_12deprecations19NotAGilRef$LT$T$GT$12function_arg17he53704d390c22624E', symObjAddr: 0x224, symBinAddr: 0x46E4, symSize: 0x10 }
  - { offset: 0xA5DD, size: 0x8, addend: 0x0, symName: '__ZN4pyo35impl_12deprecations19NotAGilRef$LT$T$GT$9is_python17hdeaf0a3758ec4214E', symObjAddr: 0x234, symBinAddr: 0x46F4, symSize: 0x10 }
  - { offset: 0xA75E, size: 0x8, addend: 0x0, symName: __ZN10rayon_core5sleep5Sleep17new_internal_jobs17hba41b131cbf855a4E, symObjAddr: 0x0, symBinAddr: 0x48E4, symSize: 0x2C }
  - { offset: 0xAD2F, size: 0x8, addend: 0x0, symName: __ZN10rayon_core5sleep5Sleep17new_internal_jobs17hba41b131cbf855a4E, symObjAddr: 0x0, symBinAddr: 0x48E4, symSize: 0x2C }
  - { offset: 0xAD6D, size: 0x8, addend: 0x0, symName: __ZN10rayon_core5sleep5Sleep8new_jobs17he270383edeaa764eE, symObjAddr: 0x2C, symBinAddr: 0x4910, symSize: 0x110 }
  - { offset: 0xAE70, size: 0x8, addend: 0x0, symName: '__ZN5alloc7raw_vec19RawVec$LT$T$C$A$GT$8grow_one17h071ad0d1e0ff7bd4E', symObjAddr: 0x0, symBinAddr: 0x4A20, symSize: 0x88 }
  - { offset: 0xB7CE, size: 0x8, addend: 0x0, symName: '__ZN5alloc7raw_vec19RawVec$LT$T$C$A$GT$8grow_one17h071ad0d1e0ff7bd4E', symObjAddr: 0x0, symBinAddr: 0x4A20, symSize: 0x88 }
  - { offset: 0xB9E7, size: 0x8, addend: 0x0, symName: '__ZN5alloc7raw_vec19RawVec$LT$T$C$A$GT$8grow_one17h0f19d9f589d8f0adE', symObjAddr: 0x88, symBinAddr: 0x4AA8, symSize: 0x88 }
  - { offset: 0xBA99, size: 0x8, addend: 0x0, symName: '__ZN5alloc7raw_vec19RawVec$LT$T$C$A$GT$8grow_one17h7ba600f588531eceE', symObjAddr: 0x110, symBinAddr: 0x4B30, symSize: 0x88 }
  - { offset: 0xBB52, size: 0x8, addend: 0x0, symName: '__ZN5alloc7raw_vec19RawVec$LT$T$C$A$GT$8grow_one17hb94558e537b4491fE', symObjAddr: 0x198, symBinAddr: 0x4BB8, symSize: 0x88 }
  - { offset: 0xBC22, size: 0x8, addend: 0x0, symName: '__ZN5alloc7raw_vec19RawVec$LT$T$C$A$GT$8grow_one17hd926ea847637004cE', symObjAddr: 0x220, symBinAddr: 0x4C40, symSize: 0x88 }
  - { offset: 0xBCD4, size: 0x8, addend: 0x0, symName: '__ZN5alloc7raw_vec19RawVec$LT$T$C$A$GT$8grow_one17hf3cf3cc2b4908e55E', symObjAddr: 0x2A8, symBinAddr: 0x4CC8, symSize: 0x88 }
  - { offset: 0xBD5F, size: 0x8, addend: 0x0, symName: __ZN5alloc3vec16in_place_collect13needs_realloc17h2aeb5b470ab07ef3E, symObjAddr: 0x0, symBinAddr: 0x4D50, symSize: 0x2C }
  - { offset: 0xC4EA, size: 0x8, addend: 0x0, symName: __ZN5alloc3vec16in_place_collect13needs_realloc17h2aeb5b470ab07ef3E, symObjAddr: 0x0, symBinAddr: 0x4D50, symSize: 0x2C }
  - { offset: 0xC536, size: 0x8, addend: 0x0, symName: __ZN5alloc3vec16in_place_collect18from_iter_in_place17h9733c50c52ee9cd2E, symObjAddr: 0x2C, symBinAddr: 0x4D7C, symSize: 0x384 }
  - { offset: 0xCA4B, size: 0x8, addend: 0x0, symName: '__ZN5alloc3vec16in_place_collect24write_in_place_with_drop28_$u7b$$u7b$closure$u7d$$u7d$17hbc44bd34c4993eb5E', symObjAddr: 0x3B0, symBinAddr: 0x5100, symSize: 0x40 }
  - { offset: 0xD0DE, size: 0x8, addend: 0x0, symName: '__ZN10rayon_core8registry8Registry14in_worker_cold10LOCK_LATCH29_$u7b$$u7b$constant$u7d$$u7d$28_$u7b$$u7b$closure$u7d$$u7d$17h9a65723c460df90eE', symObjAddr: 0x0, symBinAddr: 0x5140, symSize: 0x34 }
  - { offset: 0x1027C, size: 0x8, addend: 0x0, symName: __ZN4core3cmp9PartialEq2ne17hd6d4785e30f30584E, symObjAddr: 0x7C34, symBinAddr: 0xB1F4, symSize: 0x30 }
  - { offset: 0x102EC, size: 0x8, addend: 0x0, symName: '__ZN10rayon_core8registry8Registry14in_worker_cold10LOCK_LATCH29_$u7b$$u7b$constant$u7d$$u7d$28_$u7b$$u7b$closure$u7d$$u7d$17h9a65723c460df90eE', symObjAddr: 0x0, symBinAddr: 0x5140, symSize: 0x34 }
  - { offset: 0x10327, size: 0x8, addend: 0x0, symName: '__ZN10rayon_core8registry8Registry14in_worker_cold28_$u7b$$u7b$closure$u7d$$u7d$17h116200dc271df7ffE', symObjAddr: 0x404, symBinAddr: 0x5174, symSize: 0x1D8 }
  - { offset: 0x103A1, size: 0x8, addend: 0x0, symName: '__ZN10rayon_core8registry8Registry14in_worker_cold28_$u7b$$u7b$closure$u7d$$u7d$17h231443ac40956353E', symObjAddr: 0x5DC, symBinAddr: 0x534C, symSize: 0x1D8 }
  - { offset: 0x1041B, size: 0x8, addend: 0x0, symName: '__ZN10rayon_core8registry8Registry14in_worker_cold28_$u7b$$u7b$closure$u7d$$u7d$17h3a806b7bf7d2b3beE', symObjAddr: 0x7B4, symBinAddr: 0x5524, symSize: 0x1D8 }
  - { offset: 0x10495, size: 0x8, addend: 0x0, symName: '__ZN10rayon_core8registry8Registry14in_worker_cold28_$u7b$$u7b$closure$u7d$$u7d$17h46f8835a38f86848E', symObjAddr: 0x98C, symBinAddr: 0x56FC, symSize: 0x1D8 }
  - { offset: 0x1050F, size: 0x8, addend: 0x0, symName: '__ZN10rayon_core8registry8Registry14in_worker_cold28_$u7b$$u7b$closure$u7d$$u7d$17h71f570757f001dc8E', symObjAddr: 0xB64, symBinAddr: 0x58D4, symSize: 0x1D0 }
  - { offset: 0x10585, size: 0x8, addend: 0x0, symName: '__ZN10rayon_core8registry8Registry14in_worker_cold28_$u7b$$u7b$closure$u7d$$u7d$17h745dbf86bec8eecfE', symObjAddr: 0xD34, symBinAddr: 0x5AA4, symSize: 0x1D8 }
  - { offset: 0x105FF, size: 0x8, addend: 0x0, symName: '__ZN10rayon_core8registry8Registry14in_worker_cold28_$u7b$$u7b$closure$u7d$$u7d$17ha7d7fc2c2ae86900E', symObjAddr: 0xF0C, symBinAddr: 0x5C7C, symSize: 0x1D8 }
  - { offset: 0x10679, size: 0x8, addend: 0x0, symName: '__ZN10rayon_core8registry8Registry14in_worker_cold28_$u7b$$u7b$closure$u7d$$u7d$17hb4e5c06c54cf2bf2E', symObjAddr: 0x10E4, symBinAddr: 0x5E54, symSize: 0x1D8 }
  - { offset: 0x106F3, size: 0x8, addend: 0x0, symName: '__ZN10rayon_core8registry8Registry14in_worker_cold28_$u7b$$u7b$closure$u7d$$u7d$17hd3a49489463aed3bE', symObjAddr: 0x12BC, symBinAddr: 0x602C, symSize: 0x1D0 }
  - { offset: 0x10769, size: 0x8, addend: 0x0, symName: '__ZN10rayon_core8registry8Registry14in_worker_cold28_$u7b$$u7b$closure$u7d$$u7d$17hded46c703fd3a9e8E', symObjAddr: 0x148C, symBinAddr: 0x61FC, symSize: 0x1D8 }
  - { offset: 0x107E3, size: 0x8, addend: 0x0, symName: '__ZN10rayon_core8registry8Registry14in_worker_cold28_$u7b$$u7b$closure$u7d$$u7d$17hea4280cdd51b6a68E', symObjAddr: 0x1664, symBinAddr: 0x63D4, symSize: 0x1D0 }
  - { offset: 0x10859, size: 0x8, addend: 0x0, symName: '__ZN10rayon_core8registry8Registry14in_worker_cold28_$u7b$$u7b$closure$u7d$$u7d$17hef46c2aa7009a1b7E', symObjAddr: 0x1834, symBinAddr: 0x65A4, symSize: 0x1D0 }
  - { offset: 0x108D4, size: 0x8, addend: 0x0, symName: '__ZN10rayon_core8registry8Registry14in_worker_cold28_$u7b$$u7b$closure$u7d$$u7d$28_$u7b$$u7b$closure$u7d$$u7d$17h1f348d0aea8be5aaE', symObjAddr: 0x1A04, symBinAddr: 0x6774, symSize: 0x130 }
  - { offset: 0x1093F, size: 0x8, addend: 0x0, symName: '__ZN10rayon_core8registry8Registry14in_worker_cold28_$u7b$$u7b$closure$u7d$$u7d$28_$u7b$$u7b$closure$u7d$$u7d$17h300edac9b069261dE', symObjAddr: 0x1B34, symBinAddr: 0x68A4, symSize: 0x138 }
  - { offset: 0x109AE, size: 0x8, addend: 0x0, symName: '__ZN10rayon_core8registry8Registry14in_worker_cold28_$u7b$$u7b$closure$u7d$$u7d$28_$u7b$$u7b$closure$u7d$$u7d$17h36a5078ac0098f52E', symObjAddr: 0x1C6C, symBinAddr: 0x69DC, symSize: 0x138 }
  - { offset: 0x10A1D, size: 0x8, addend: 0x0, symName: '__ZN10rayon_core8registry8Registry14in_worker_cold28_$u7b$$u7b$closure$u7d$$u7d$28_$u7b$$u7b$closure$u7d$$u7d$17h8207812d96a86398E', symObjAddr: 0x1DA4, symBinAddr: 0x6B14, symSize: 0x138 }
  - { offset: 0x10A8C, size: 0x8, addend: 0x0, symName: '__ZN10rayon_core8registry8Registry14in_worker_cold28_$u7b$$u7b$closure$u7d$$u7d$28_$u7b$$u7b$closure$u7d$$u7d$17h82f0f7a019cd7f6fE', symObjAddr: 0x1EDC, symBinAddr: 0x6C4C, symSize: 0x138 }
  - { offset: 0x10AFB, size: 0x8, addend: 0x0, symName: '__ZN10rayon_core8registry8Registry14in_worker_cold28_$u7b$$u7b$closure$u7d$$u7d$28_$u7b$$u7b$closure$u7d$$u7d$17h83f8ccdf18b6172cE', symObjAddr: 0x2014, symBinAddr: 0x6D84, symSize: 0x138 }
  - { offset: 0x10B6A, size: 0x8, addend: 0x0, symName: '__ZN10rayon_core8registry8Registry14in_worker_cold28_$u7b$$u7b$closure$u7d$$u7d$28_$u7b$$u7b$closure$u7d$$u7d$17h9fda0271b95c8dfdE', symObjAddr: 0x214C, symBinAddr: 0x6EBC, symSize: 0x138 }
  - { offset: 0x10BD9, size: 0x8, addend: 0x0, symName: '__ZN10rayon_core8registry8Registry14in_worker_cold28_$u7b$$u7b$closure$u7d$$u7d$28_$u7b$$u7b$closure$u7d$$u7d$17ha69ef80ffa069cc2E', symObjAddr: 0x2284, symBinAddr: 0x6FF4, symSize: 0x130 }
  - { offset: 0x10C44, size: 0x8, addend: 0x0, symName: '__ZN10rayon_core8registry8Registry14in_worker_cold28_$u7b$$u7b$closure$u7d$$u7d$28_$u7b$$u7b$closure$u7d$$u7d$17ha77614120cca9bccE', symObjAddr: 0x23B4, symBinAddr: 0x7124, symSize: 0x138 }
  - { offset: 0x10CB3, size: 0x8, addend: 0x0, symName: '__ZN10rayon_core8registry8Registry14in_worker_cold28_$u7b$$u7b$closure$u7d$$u7d$28_$u7b$$u7b$closure$u7d$$u7d$17hb6d0d78c1edd1148E', symObjAddr: 0x24EC, symBinAddr: 0x725C, symSize: 0x138 }
  - { offset: 0x10D22, size: 0x8, addend: 0x0, symName: '__ZN10rayon_core8registry8Registry14in_worker_cold28_$u7b$$u7b$closure$u7d$$u7d$28_$u7b$$u7b$closure$u7d$$u7d$17hc071c9456fab5227E', symObjAddr: 0x2624, symBinAddr: 0x7394, symSize: 0x130 }
  - { offset: 0x10D8D, size: 0x8, addend: 0x0, symName: '__ZN10rayon_core8registry8Registry14in_worker_cold28_$u7b$$u7b$closure$u7d$$u7d$28_$u7b$$u7b$closure$u7d$$u7d$17hc88ea81fd52dadfbE', symObjAddr: 0x2754, symBinAddr: 0x74C4, symSize: 0x130 }
  - { offset: 0x10EE3, size: 0x8, addend: 0x0, symName: '__ZN10rayon_core8registry8Registry15in_worker_cross28_$u7b$$u7b$closure$u7d$$u7d$17h2441c3ca03b0a731E', symObjAddr: 0x4034, symBinAddr: 0x75F4, symSize: 0x138 }
  - { offset: 0x10F52, size: 0x8, addend: 0x0, symName: '__ZN10rayon_core8registry8Registry15in_worker_cross28_$u7b$$u7b$closure$u7d$$u7d$17h310787f3f3a92670E', symObjAddr: 0x416C, symBinAddr: 0x772C, symSize: 0x130 }
  - { offset: 0x10FBD, size: 0x8, addend: 0x0, symName: '__ZN10rayon_core8registry8Registry15in_worker_cross28_$u7b$$u7b$closure$u7d$$u7d$17h412c667c8027a755E', symObjAddr: 0x429C, symBinAddr: 0x785C, symSize: 0x138 }
  - { offset: 0x1102C, size: 0x8, addend: 0x0, symName: '__ZN10rayon_core8registry8Registry15in_worker_cross28_$u7b$$u7b$closure$u7d$$u7d$17h478189d7cdebecc9E', symObjAddr: 0x43D4, symBinAddr: 0x7994, symSize: 0x138 }
  - { offset: 0x1109B, size: 0x8, addend: 0x0, symName: '__ZN10rayon_core8registry8Registry15in_worker_cross28_$u7b$$u7b$closure$u7d$$u7d$17h5cef55e2729e6275E', symObjAddr: 0x450C, symBinAddr: 0x7ACC, symSize: 0x130 }
  - { offset: 0x11106, size: 0x8, addend: 0x0, symName: '__ZN10rayon_core8registry8Registry15in_worker_cross28_$u7b$$u7b$closure$u7d$$u7d$17hbd5791e95c0dd067E', symObjAddr: 0x463C, symBinAddr: 0x7BFC, symSize: 0x138 }
  - { offset: 0x11175, size: 0x8, addend: 0x0, symName: '__ZN10rayon_core8registry8Registry15in_worker_cross28_$u7b$$u7b$closure$u7d$$u7d$17hbed634cae27ae499E', symObjAddr: 0x4774, symBinAddr: 0x7D34, symSize: 0x138 }
  - { offset: 0x111E4, size: 0x8, addend: 0x0, symName: '__ZN10rayon_core8registry8Registry15in_worker_cross28_$u7b$$u7b$closure$u7d$$u7d$17hc8ccbd120c5d2d1dE', symObjAddr: 0x48AC, symBinAddr: 0x7E6C, symSize: 0x138 }
  - { offset: 0x11253, size: 0x8, addend: 0x0, symName: '__ZN10rayon_core8registry8Registry15in_worker_cross28_$u7b$$u7b$closure$u7d$$u7d$17hd0582cda66b4596aE', symObjAddr: 0x49E4, symBinAddr: 0x7FA4, symSize: 0x138 }
  - { offset: 0x112C2, size: 0x8, addend: 0x0, symName: '__ZN10rayon_core8registry8Registry15in_worker_cross28_$u7b$$u7b$closure$u7d$$u7d$17hdf4068b91614e84aE', symObjAddr: 0x4B1C, symBinAddr: 0x80DC, symSize: 0x130 }
  - { offset: 0x1132D, size: 0x8, addend: 0x0, symName: '__ZN10rayon_core8registry8Registry15in_worker_cross28_$u7b$$u7b$closure$u7d$$u7d$17he5a13fc6e61bf94bE', symObjAddr: 0x4C4C, symBinAddr: 0x820C, symSize: 0x138 }
  - { offset: 0x1139C, size: 0x8, addend: 0x0, symName: '__ZN10rayon_core8registry8Registry15in_worker_cross28_$u7b$$u7b$closure$u7d$$u7d$17he80088d9d914b150E', symObjAddr: 0x4D84, symBinAddr: 0x8344, symSize: 0x130 }
  - { offset: 0x11C67, size: 0x8, addend: 0x0, symName: __ZN10rayon_core8registry9in_worker17h40a0d34bef9a114aE, symObjAddr: 0x6C44, symBinAddr: 0xA204, symSize: 0x158 }
  - { offset: 0x11CBE, size: 0x8, addend: 0x0, symName: __ZN10rayon_core8registry9in_worker17h41ad275f7fc31798E, symObjAddr: 0x6D9C, symBinAddr: 0xA35C, symSize: 0x14C }
  - { offset: 0x11D11, size: 0x8, addend: 0x0, symName: __ZN10rayon_core8registry9in_worker17h438129c66b43989bE, symObjAddr: 0x6EE8, symBinAddr: 0xA4A8, symSize: 0x14C }
  - { offset: 0x11D64, size: 0x8, addend: 0x0, symName: __ZN10rayon_core8registry9in_worker17h59c7fb08b75681f1E, symObjAddr: 0x7034, symBinAddr: 0xA5F4, symSize: 0x158 }
  - { offset: 0x11DBB, size: 0x8, addend: 0x0, symName: __ZN10rayon_core8registry9in_worker17h6553cc93768a0221E, symObjAddr: 0x718C, symBinAddr: 0xA74C, symSize: 0x158 }
  - { offset: 0x11E12, size: 0x8, addend: 0x0, symName: __ZN10rayon_core8registry9in_worker17ha9fd040f979db048E, symObjAddr: 0x72E4, symBinAddr: 0xA8A4, symSize: 0x158 }
  - { offset: 0x11E69, size: 0x8, addend: 0x0, symName: __ZN10rayon_core8registry9in_worker17hadfbad6aae94e1a1E, symObjAddr: 0x743C, symBinAddr: 0xA9FC, symSize: 0x158 }
  - { offset: 0x11EC0, size: 0x8, addend: 0x0, symName: __ZN10rayon_core8registry9in_worker17hafd202dc8ea246a6E, symObjAddr: 0x7594, symBinAddr: 0xAB54, symSize: 0x14C }
  - { offset: 0x11F13, size: 0x8, addend: 0x0, symName: __ZN10rayon_core8registry9in_worker17hcab387624032509dE, symObjAddr: 0x76E0, symBinAddr: 0xACA0, symSize: 0x158 }
  - { offset: 0x11F6A, size: 0x8, addend: 0x0, symName: __ZN10rayon_core8registry9in_worker17hd5acd5acd8c006d6E, symObjAddr: 0x7838, symBinAddr: 0xADF8, symSize: 0x158 }
  - { offset: 0x11FC1, size: 0x8, addend: 0x0, symName: __ZN10rayon_core8registry9in_worker17he657d27833e7092dE, symObjAddr: 0x7990, symBinAddr: 0xAF50, symSize: 0x14C }
  - { offset: 0x12014, size: 0x8, addend: 0x0, symName: __ZN10rayon_core8registry9in_worker17hfe85ca80d7ae0b35E, symObjAddr: 0x7ADC, symBinAddr: 0xB09C, symSize: 0x158 }
  - { offset: 0x1492E, size: 0x8, addend: 0x0, symName: __ZN10rayon_core8registry8Registry14in_worker_cold17h083388c42ab813bdE, symObjAddr: 0x34, symBinAddr: 0x388AA4, symSize: 0x54 }
  - { offset: 0x14A12, size: 0x8, addend: 0x0, symName: __ZN10rayon_core8registry8Registry14in_worker_cold17h16a80a3774444749E, symObjAddr: 0x88, symBinAddr: 0x388AF8, symSize: 0x54 }
  - { offset: 0x14F1E, size: 0x8, addend: 0x0, symName: __ZN10rayon_core8registry8Registry14in_worker_cold17h17dbb61c12358796E, symObjAddr: 0xDC, symBinAddr: 0x388B4C, symSize: 0x54 }
  - { offset: 0x14F63, size: 0x8, addend: 0x0, symName: __ZN10rayon_core8registry8Registry14in_worker_cold17h2290ff891a2c29feE, symObjAddr: 0x130, symBinAddr: 0x388BA0, symSize: 0x54 }
  - { offset: 0x15059, size: 0x8, addend: 0x0, symName: __ZN10rayon_core8registry8Registry14in_worker_cold17h2a9a4ec2a0cd4bdbE, symObjAddr: 0x184, symBinAddr: 0x388BF4, symSize: 0x4C }
  - { offset: 0x1509E, size: 0x8, addend: 0x0, symName: __ZN10rayon_core8registry8Registry14in_worker_cold17h405770b66dd6bd06E, symObjAddr: 0x1D0, symBinAddr: 0x388C40, symSize: 0x54 }
  - { offset: 0x150FD, size: 0x8, addend: 0x0, symName: __ZN10rayon_core8registry8Registry14in_worker_cold17h4c8806d784dabcfaE, symObjAddr: 0x224, symBinAddr: 0x388C94, symSize: 0x54 }
  - { offset: 0x1515C, size: 0x8, addend: 0x0, symName: __ZN10rayon_core8registry8Registry14in_worker_cold17h5d97256961eb8c67E, symObjAddr: 0x278, symBinAddr: 0x388CE8, symSize: 0x4C }
  - { offset: 0x151A1, size: 0x8, addend: 0x0, symName: __ZN10rayon_core8registry8Registry14in_worker_cold17h8d76ca09a9c96cedE, symObjAddr: 0x2C4, symBinAddr: 0x388D34, symSize: 0x54 }
  - { offset: 0x151E6, size: 0x8, addend: 0x0, symName: __ZN10rayon_core8registry8Registry14in_worker_cold17he65e0a879c0fb160E, symObjAddr: 0x318, symBinAddr: 0x388D88, symSize: 0x54 }
  - { offset: 0x15245, size: 0x8, addend: 0x0, symName: __ZN10rayon_core8registry8Registry14in_worker_cold17he84c75d34d8ee4e9E, symObjAddr: 0x36C, symBinAddr: 0x388DDC, symSize: 0x4C }
  - { offset: 0x152A4, size: 0x8, addend: 0x0, symName: __ZN10rayon_core8registry8Registry14in_worker_cold17hfa1bb58beb9f8eaeE, symObjAddr: 0x3B8, symBinAddr: 0x388E28, symSize: 0x4C }
  - { offset: 0x15303, size: 0x8, addend: 0x0, symName: __ZN10rayon_core8registry8Registry15in_worker_cross17h08d543a015f203a3E, symObjAddr: 0x2884, symBinAddr: 0x388E74, symSize: 0x1FC }
  - { offset: 0x15387, size: 0x8, addend: 0x0, symName: __ZN10rayon_core8registry8Registry15in_worker_cross17h0aae5d87744b908eE, symObjAddr: 0x2A80, symBinAddr: 0x389070, symSize: 0x1FC }
  - { offset: 0x1540B, size: 0x8, addend: 0x0, symName: __ZN10rayon_core8registry8Registry15in_worker_cross17h15875fb8cd345f45E, symObjAddr: 0x2C7C, symBinAddr: 0x38926C, symSize: 0x1FC }
  - { offset: 0x1548F, size: 0x8, addend: 0x0, symName: __ZN10rayon_core8registry8Registry15in_worker_cross17h46871fd545a07f49E, symObjAddr: 0x2E78, symBinAddr: 0x389468, symSize: 0x1F4 }
  - { offset: 0x15513, size: 0x8, addend: 0x0, symName: __ZN10rayon_core8registry8Registry15in_worker_cross17h46dc19a3b89856dfE, symObjAddr: 0x306C, symBinAddr: 0x38965C, symSize: 0x1FC }
  - { offset: 0x15597, size: 0x8, addend: 0x0, symName: __ZN10rayon_core8registry8Registry15in_worker_cross17h534e92e6658f7c3bE, symObjAddr: 0x3268, symBinAddr: 0x389858, symSize: 0x1F4 }
  - { offset: 0x1561B, size: 0x8, addend: 0x0, symName: __ZN10rayon_core8registry8Registry15in_worker_cross17h550f7065cb06ccb7E, symObjAddr: 0x345C, symBinAddr: 0x389A4C, symSize: 0x1F4 }
  - { offset: 0x1569F, size: 0x8, addend: 0x0, symName: __ZN10rayon_core8registry8Registry15in_worker_cross17h61103d8908f11f45E, symObjAddr: 0x3650, symBinAddr: 0x389C40, symSize: 0x1FC }
  - { offset: 0x15723, size: 0x8, addend: 0x0, symName: __ZN10rayon_core8registry8Registry15in_worker_cross17hc8d4ce6ec2732cc5E, symObjAddr: 0x384C, symBinAddr: 0x389E3C, symSize: 0x1FC }
  - { offset: 0x157A7, size: 0x8, addend: 0x0, symName: __ZN10rayon_core8registry8Registry15in_worker_cross17hca97b1e6dc6d97d3E, symObjAddr: 0x3A48, symBinAddr: 0x38A038, symSize: 0x1F4 }
  - { offset: 0x1582B, size: 0x8, addend: 0x0, symName: __ZN10rayon_core8registry8Registry15in_worker_cross17hd909ed526dabf223E, symObjAddr: 0x3C3C, symBinAddr: 0x38A22C, symSize: 0x1FC }
  - { offset: 0x158AF, size: 0x8, addend: 0x0, symName: __ZN10rayon_core8registry8Registry15in_worker_cross17hfa48d4e0163cd90dE, symObjAddr: 0x3E38, symBinAddr: 0x38A428, symSize: 0x1FC }
  - { offset: 0x15933, size: 0x8, addend: 0x0, symName: __ZN10rayon_core8registry8Registry9in_worker17h0781ca4715b4d678E, symObjAddr: 0x4EB4, symBinAddr: 0x8474, symSize: 0x27C }
  - { offset: 0x1598E, size: 0x8, addend: 0x0, symName: __ZN10rayon_core8registry8Registry9in_worker17h22fb57a6bb4d3a32E, symObjAddr: 0x5130, symBinAddr: 0x86F0, symSize: 0x27C }
  - { offset: 0x159E9, size: 0x8, addend: 0x0, symName: __ZN10rayon_core8registry8Registry9in_worker17h277080452c46fb92E, symObjAddr: 0x53AC, symBinAddr: 0x896C, symSize: 0x27C }
  - { offset: 0x15A44, size: 0x8, addend: 0x0, symName: __ZN10rayon_core8registry8Registry9in_worker17h2b63c1a68f5b1799E, symObjAddr: 0x5628, symBinAddr: 0x8BE8, symSize: 0x26C }
  - { offset: 0x15A9F, size: 0x8, addend: 0x0, symName: __ZN10rayon_core8registry8Registry9in_worker17h4585fbde2c4ceab2E, symObjAddr: 0x5894, symBinAddr: 0x8E54, symSize: 0x26C }
  - { offset: 0x15AFA, size: 0x8, addend: 0x0, symName: __ZN10rayon_core8registry8Registry9in_worker17h66c24053eb7c81afE, symObjAddr: 0x5B00, symBinAddr: 0x90C0, symSize: 0x27C }
  - { offset: 0x15B55, size: 0x8, addend: 0x0, symName: __ZN10rayon_core8registry8Registry9in_worker17h79ae0191d8af5d43E, symObjAddr: 0x5D7C, symBinAddr: 0x933C, symSize: 0x26C }
  - { offset: 0x15BB0, size: 0x8, addend: 0x0, symName: __ZN10rayon_core8registry8Registry9in_worker17h7d23c6df3cfb3b15E, symObjAddr: 0x5FE8, symBinAddr: 0x95A8, symSize: 0x27C }
  - { offset: 0x15C0B, size: 0x8, addend: 0x0, symName: __ZN10rayon_core8registry8Registry9in_worker17haeffed00c2cc2163E, symObjAddr: 0x6264, symBinAddr: 0x9824, symSize: 0x27C }
  - { offset: 0x15C66, size: 0x8, addend: 0x0, symName: __ZN10rayon_core8registry8Registry9in_worker17hbf3535330a556909E, symObjAddr: 0x64E0, symBinAddr: 0x9AA0, symSize: 0x26C }
  - { offset: 0x15CC1, size: 0x8, addend: 0x0, symName: __ZN10rayon_core8registry8Registry9in_worker17hd9e1d95f68e45b8eE, symObjAddr: 0x674C, symBinAddr: 0x9D0C, symSize: 0x27C }
  - { offset: 0x15D1C, size: 0x8, addend: 0x0, symName: __ZN10rayon_core8registry8Registry9in_worker17he7ad7f6a63a0e6baE, symObjAddr: 0x69C8, symBinAddr: 0x9F88, symSize: 0x27C }
  - { offset: 0x15E38, size: 0x8, addend: 0x0, symName: '__ZN62_$LT$zopfli..lz77..Lz77Store$u20$as$u20$core..clone..Clone$GT$5clone17h17a6a422c14126c7E', symObjAddr: 0x0, symBinAddr: 0xB224, symSize: 0x18C }
  - { offset: 0x15E54, size: 0x8, addend: 0x0, symName: '__ZN62_$LT$zopfli..lz77..Lz77Store$u20$as$u20$core..clone..Clone$GT$5clone17h17a6a422c14126c7E', symObjAddr: 0x0, symBinAddr: 0xB224, symSize: 0x18C }
  - { offset: 0x161E0, size: 0x8, addend: 0x0, symName: __ZN4pyo33err5PyErr3new17h2cab68e7756e95e0E, symObjAddr: 0x0, symBinAddr: 0xB3B0, symSize: 0x98 }
  - { offset: 0x16281, size: 0x8, addend: 0x0, symName: '__ZN4pyo33err5PyErr3new28_$u7b$$u7b$closure$u7d$$u7d$17h40ffc6d9ef15958dE', symObjAddr: 0x3A0, symBinAddr: 0xB750, symSize: 0xD4 }
  - { offset: 0x162DA, size: 0x8, addend: 0x0, symName: '__ZN4pyo33err5PyErr3new28_$u7b$$u7b$closure$u7d$$u7d$17h47f3bb25e2ae787bE', symObjAddr: 0x474, symBinAddr: 0xB824, symSize: 0xC0 }
  - { offset: 0x16332, size: 0x8, addend: 0x0, symName: '__ZN4pyo33err5PyErr3new28_$u7b$$u7b$closure$u7d$$u7d$17h4dcdbdc4837c056dE', symObjAddr: 0x534, symBinAddr: 0xB8E4, symSize: 0xD4 }
  - { offset: 0x1638B, size: 0x8, addend: 0x0, symName: '__ZN4pyo33err5PyErr3new28_$u7b$$u7b$closure$u7d$$u7d$17h5237aa9e87953149E', symObjAddr: 0x608, symBinAddr: 0xB9B8, symSize: 0xD4 }
  - { offset: 0x163E4, size: 0x8, addend: 0x0, symName: '__ZN4pyo33err5PyErr3new28_$u7b$$u7b$closure$u7d$$u7d$17h6e91d1d04a16c7c7E', symObjAddr: 0x6DC, symBinAddr: 0xBA8C, symSize: 0xC0 }
  - { offset: 0x1643C, size: 0x8, addend: 0x0, symName: '__ZN4pyo33err5PyErr3new28_$u7b$$u7b$closure$u7d$$u7d$17hd9e00f7d0205a405E', symObjAddr: 0x79C, symBinAddr: 0xBB4C, symSize: 0xD4 }
  - { offset: 0x1742E, size: 0x8, addend: 0x0, symName: '__ZN50_$LT$T$u20$as$u20$core..convert..Into$LT$U$GT$$GT$4into17h6c86abdacf75f571E', symObjAddr: 0x870, symBinAddr: 0xBC20, symSize: 0x18 }
  - { offset: 0x180F2, size: 0x8, addend: 0x0, symName: __ZN4pyo33err5PyErr3new17h2cab68e7756e95e0E, symObjAddr: 0x0, symBinAddr: 0xB3B0, symSize: 0x98 }
  - { offset: 0x181B0, size: 0x8, addend: 0x0, symName: __ZN4pyo33err5PyErr3new17h470e951564efba1eE, symObjAddr: 0x98, symBinAddr: 0xB448, symSize: 0x9C }
  - { offset: 0x1820F, size: 0x8, addend: 0x0, symName: __ZN4pyo33err5PyErr3new17h517d6a92bc6a3c35E, symObjAddr: 0x134, symBinAddr: 0xB4E4, symSize: 0x9C }
  - { offset: 0x1826E, size: 0x8, addend: 0x0, symName: __ZN4pyo33err5PyErr3new17h9b2360c99a43d551E, symObjAddr: 0x1D0, symBinAddr: 0xB580, symSize: 0x98 }
  - { offset: 0x182CC, size: 0x8, addend: 0x0, symName: __ZN4pyo33err5PyErr3new17hc2a3aa4e91707fb4E, symObjAddr: 0x268, symBinAddr: 0xB618, symSize: 0x9C }
  - { offset: 0x1832B, size: 0x8, addend: 0x0, symName: __ZN4pyo33err5PyErr3new17hefb89b8d147e0214E, symObjAddr: 0x304, symBinAddr: 0xB6B4, symSize: 0x9C }
  - { offset: 0x183D3, size: 0x8, addend: 0x0, symName: __ZN4core5alloc6layout6Layout25from_size_align_unchecked18precondition_check17h0103b3b041da9fbfE, symObjAddr: 0x0, symBinAddr: 0xBC38, symSize: 0x70 }
  - { offset: 0x183F9, size: 0x8, addend: 0x0, symName: __ZN4core5alloc6layout6Layout25from_size_align_unchecked18precondition_check17h0103b3b041da9fbfE, symObjAddr: 0x0, symBinAddr: 0xBC38, symSize: 0x70 }
  - { offset: 0x184A4, size: 0x8, addend: 0x0, symName: __ZN4core5slice4sort6stable5drift10create_run17hb4a8f599bd9b8ec4E, symObjAddr: 0x0, symBinAddr: 0xBCA8, symSize: 0x438 }
  - { offset: 0x189E5, size: 0x8, addend: 0x0, symName: __ZN4core5slice4sort6stable5drift10create_run17hb4a8f599bd9b8ec4E, symObjAddr: 0x0, symBinAddr: 0xBCA8, symSize: 0x438 }
  - { offset: 0x18EF6, size: 0x8, addend: 0x0, symName: __ZN4core5slice4sort6stable5drift16stable_quicksort17h64c475772a04bb7eE, symObjAddr: 0x438, symBinAddr: 0xC0E0, symSize: 0xB4 }
  - { offset: 0x1911B, size: 0x8, addend: 0x0, symName: __ZN4core5slice4sort6stable5drift4sort17h517be88a60dddc7eE, symObjAddr: 0x4EC, symBinAddr: 0xC194, symSize: 0x620 }
  - { offset: 0x1A38E, size: 0x8, addend: 0x0, symName: '__ZN4core4cell13Cell$LT$T$GT$3new17he236776f11c1f834E', symObjAddr: 0x0, symBinAddr: 0xC7B4, symSize: 0x10 }
  - { offset: 0x1A656, size: 0x8, addend: 0x0, symName: '__ZN68_$LT$core..cell..Ref$LT$T$GT$$u20$as$u20$core..ops..deref..Deref$GT$5deref17h8f3d96e6ba29a75aE', symObjAddr: 0x204, symBinAddr: 0xC9B8, symSize: 0x18 }
  - { offset: 0x1A6A8, size: 0x8, addend: 0x0, symName: '__ZN74_$LT$core..cell..RefMut$LT$T$GT$$u20$as$u20$core..ops..deref..DerefMut$GT$9deref_mut17h7efe3a2fd183b00aE', symObjAddr: 0x21C, symBinAddr: 0xC9D0, symSize: 0x18 }
  - { offset: 0x1AA7C, size: 0x8, addend: 0x0, symName: '__ZN4core4cell13Cell$LT$T$GT$3new17he236776f11c1f834E', symObjAddr: 0x0, symBinAddr: 0xC7B4, symSize: 0x10 }
  - { offset: 0x1AC72, size: 0x8, addend: 0x0, symName: '__ZN4core4cell16RefCell$LT$T$GT$10borrow_mut17h88faf9f9636f58a1E', symObjAddr: 0x10, symBinAddr: 0xC7C4, symSize: 0xAC }
  - { offset: 0x1AE3B, size: 0x8, addend: 0x0, symName: '__ZN4core4cell16RefCell$LT$T$GT$10try_borrow17hb68243bebf604d5bE', symObjAddr: 0xBC, symBinAddr: 0xC870, symSize: 0xC4 }
  - { offset: 0x1AF74, size: 0x8, addend: 0x0, symName: '__ZN4core4cell16RefCell$LT$T$GT$3new17h7dcb57740a45e64cE', symObjAddr: 0x180, symBinAddr: 0xC934, symSize: 0x24 }
  - { offset: 0x1AFA0, size: 0x8, addend: 0x0, symName: '__ZN4core4cell16RefCell$LT$T$GT$6borrow17hfbbd15ac8d6e1ec9E', symObjAddr: 0x1A4, symBinAddr: 0xC958, symSize: 0x60 }
  - { offset: 0x1B069, size: 0x8, addend: 0x0, symName: '__ZN49_$LT$usize$u20$as$u20$rusqlite..row..RowIndex$GT$3idx17hca1838af7bf453baE', symObjAddr: 0x0, symBinAddr: 0xC9E8, symSize: 0xA4 }
  - { offset: 0x1B1D9, size: 0x8, addend: 0x0, symName: '__ZN49_$LT$usize$u20$as$u20$rusqlite..row..RowIndex$GT$3idx17hca1838af7bf453baE', symObjAddr: 0x0, symBinAddr: 0xC9E8, symSize: 0xA4 }
  - { offset: 0x1B2A6, size: 0x8, addend: 0x0, symName: '__ZN94_$LT$rusqlite..row..Rows$u20$as$u20$fallible_streaming_iterator..FallibleStreamingIterator$GT$3get17h3da4c2c2b5f08a8dE', symObjAddr: 0x2F8, symBinAddr: 0xCCE0, symSize: 0x24 }
  - { offset: 0x1B2D2, size: 0x8, addend: 0x0, symName: '__ZN94_$LT$rusqlite..row..Rows$u20$as$u20$fallible_streaming_iterator..FallibleStreamingIterator$GT$7advance17h0c2bb57a4afb9935E', symObjAddr: 0x31C, symBinAddr: 0xCD04, symSize: 0x180 }
  - { offset: 0x1CDE5, size: 0x8, addend: 0x0, symName: __ZN8rusqlite3row4Rows16get_expected_row17h9947b3c7c2ea79e5E, symObjAddr: 0xA4, symBinAddr: 0xCA8C, symSize: 0x108 }
  - { offset: 0x1CE44, size: 0x8, addend: 0x0, symName: __ZN8rusqlite3row4Rows3new17h92049b7d3441c3aeE, symObjAddr: 0x1AC, symBinAddr: 0xCB94, symSize: 0x18 }
  - { offset: 0x1CE66, size: 0x8, addend: 0x0, symName: __ZN8rusqlite3row4Rows4next17hefbce0d8dd04e3d4E, symObjAddr: 0x1C4, symBinAddr: 0xCBAC, symSize: 0xCC }
  - { offset: 0x1CEA7, size: 0x8, addend: 0x0, symName: __ZN8rusqlite3row4Rows5reset17h3052b32d9a858d62E, symObjAddr: 0x290, symBinAddr: 0xCC78, symSize: 0x68 }
  - { offset: 0x1CF1E, size: 0x8, addend: 0x0, symName: '__ZN100_$LT$indexmap..map..IndexMap$LT$K$C$V$C$S$GT$$u20$as$u20$core..ops..index..IndexMut$LT$usize$GT$$GT$9index_mut17ha6e1af0b3e921fbdE', symObjAddr: 0x0, symBinAddr: 0xCE84, symSize: 0xBC }
  - { offset: 0x1D231, size: 0x8, addend: 0x0, symName: '__ZN100_$LT$indexmap..map..IndexMap$LT$K$C$V$C$S$GT$$u20$as$u20$core..ops..index..IndexMut$LT$usize$GT$$GT$9index_mut17ha6e1af0b3e921fbdE', symObjAddr: 0x0, symBinAddr: 0xCE84, symSize: 0xBC }
  - { offset: 0x1E1ED, size: 0x8, addend: 0x0, symName: '__ZN8indexmap3map21IndexMap$LT$K$C$V$GT$3new17h52d440f933121a9eE', symObjAddr: 0xBC, symBinAddr: 0xCF40, symSize: 0x18 }
  - { offset: 0x1E247, size: 0x8, addend: 0x0, symName: '__ZN8indexmap3map25IndexMap$LT$K$C$V$C$S$GT$10as_entries17hb1a0c603b1ef431bE', symObjAddr: 0xD4, symBinAddr: 0xCF58, symSize: 0x24 }
  - { offset: 0x1E291, size: 0x8, addend: 0x0, symName: '__ZN8indexmap3map25IndexMap$LT$K$C$V$C$S$GT$12contains_key17h0d411485f345913bE', symObjAddr: 0xF8, symBinAddr: 0xCF7C, symSize: 0x40 }
  - { offset: 0x1E2E7, size: 0x8, addend: 0x0, symName: '__ZN8indexmap3map25IndexMap$LT$K$C$V$C$S$GT$12get_index_of17h967c754ac9d18de3E', symObjAddr: 0x138, symBinAddr: 0xCFBC, symSize: 0xB4 }
  - { offset: 0x1E3B1, size: 0x8, addend: 0x0, symName: '__ZN8indexmap3map25IndexMap$LT$K$C$V$C$S$GT$13get_index_mut17he405fb8c8f0e1f6fE', symObjAddr: 0x1EC, symBinAddr: 0xD070, symSize: 0x38 }
  - { offset: 0x1E41C, size: 0x8, addend: 0x0, symName: '__ZN8indexmap3map25IndexMap$LT$K$C$V$C$S$GT$14as_entries_mut17he4c298109896b33aE', symObjAddr: 0x224, symBinAddr: 0xD0A8, symSize: 0x24 }
  - { offset: 0x1E459, size: 0x8, addend: 0x0, symName: '__ZN8indexmap3map25IndexMap$LT$K$C$V$C$S$GT$3len17h261b2111f48f644dE', symObjAddr: 0x248, symBinAddr: 0xD0CC, symSize: 0x24 }
  - { offset: 0x1E4B4, size: 0x8, addend: 0x0, symName: '__ZN8indexmap3map25IndexMap$LT$K$C$V$C$S$GT$3pop17hcf83f2d4ba837652E', symObjAddr: 0x26C, symBinAddr: 0xD0F0, symSize: 0x24 }
  - { offset: 0x1E50C, size: 0x8, addend: 0x0, symName: '__ZN8indexmap3map25IndexMap$LT$K$C$V$C$S$GT$6values17haed67c66796f7895E', symObjAddr: 0x290, symBinAddr: 0xD114, symSize: 0x28 }
  - { offset: 0x1E54A, size: 0x8, addend: 0x0, symName: '__ZN8indexmap3map25IndexMap$LT$K$C$V$C$S$GT$8is_empty17h7d694154c51a9eddE', symObjAddr: 0x2B8, symBinAddr: 0xD13C, symSize: 0x2C }
  - { offset: 0x1E587, size: 0x8, addend: 0x0, symName: '__ZN8indexmap3map25IndexMap$LT$K$C$V$C$S$GT$8last_mut17h5cb47706fae63355E', symObjAddr: 0x2E4, symBinAddr: 0xD168, symSize: 0x2C }
  - { offset: 0x1E6AE, size: 0x8, addend: 0x0, symName: __ZN4pyo35impl_9pymethods11tp_new_impl17hc81da2e8f375f134E, symObjAddr: 0x0, symBinAddr: 0xD194, symSize: 0x6C }
  - { offset: 0x1FAFF, size: 0x8, addend: 0x0, symName: '__ZN50_$LT$T$u20$as$u20$core..convert..Into$LT$U$GT$$GT$4into17h04a6b3f4dcb64b67E', symObjAddr: 0xB4, symBinAddr: 0xD248, symSize: 0x24 }
  - { offset: 0x1FB3F, size: 0x8, addend: 0x0, symName: '__ZN50_$LT$T$u20$as$u20$core..convert..Into$LT$U$GT$$GT$4into17h2918a2f69f7c171dE', symObjAddr: 0xD8, symBinAddr: 0xD26C, symSize: 0x24 }
  - { offset: 0x1FB7F, size: 0x8, addend: 0x0, symName: '__ZN50_$LT$T$u20$as$u20$core..convert..Into$LT$U$GT$$GT$4into17hcf4212013a37a6fdE', symObjAddr: 0xFC, symBinAddr: 0xD290, symSize: 0x24 }
  - { offset: 0x1FBD5, size: 0x8, addend: 0x0, symName: '__ZN63_$LT$I$u20$as$u20$core..iter..traits..collect..IntoIterator$GT$9into_iter17h1f6be0d76a65ec06E', symObjAddr: 0x120, symBinAddr: 0xD2B4, symSize: 0x18 }
  - { offset: 0x1FCB4, size: 0x8, addend: 0x0, symName: __ZN4pyo35impl_9pymethods11tp_new_impl17hc81da2e8f375f134E, symObjAddr: 0x0, symBinAddr: 0xD194, symSize: 0x6C }
  - { offset: 0x1FDB6, size: 0x8, addend: 0x0, symName: '__ZN85_$LT$pyo3..impl_..pymethods..BoundRef$LT$T$GT$$u20$as$u20$core..ops..deref..Deref$GT$5deref17h522e44d29a15487eE', symObjAddr: 0x138, symBinAddr: 0xD2CC, symSize: 0x18 }
  - { offset: 0x2076B, size: 0x8, addend: 0x0, symName: '__ZN4pyo35impl_9pymethods39BoundRef$LT$pyo3..types..any..PyAny$GT$18downcast_unchecked17h1db10ca503733dd1E', symObjAddr: 0x6C, symBinAddr: 0xD200, symSize: 0x24 }
  - { offset: 0x20D3D, size: 0x8, addend: 0x0, symName: '__ZN4pyo35impl_9pymethods39BoundRef$LT$pyo3..types..any..PyAny$GT$18downcast_unchecked17h76c77458facbb285E', symObjAddr: 0x90, symBinAddr: 0xD224, symSize: 0x24 }
  - { offset: 0x20E66, size: 0x8, addend: 0x0, symName: '__ZN73_$LT$serde_json..number..Number$u20$as$u20$serde_core..ser..Serialize$GT$9serialize17ha9bb0559d43161b3E', symObjAddr: 0x0, symBinAddr: 0xD2E4, symSize: 0xA8 }
  - { offset: 0x210E7, size: 0x8, addend: 0x0, symName: '__ZN73_$LT$serde_json..number..Number$u20$as$u20$serde_core..ser..Serialize$GT$9serialize17ha9bb0559d43161b3E', symObjAddr: 0x0, symBinAddr: 0xD2E4, symSize: 0xA8 }
  - { offset: 0x21187, size: 0x8, addend: 0x0, symName: '__ZN73_$LT$serde_json..number..Number$u20$as$u20$serde_core..ser..Serialize$GT$9serialize17hbc9c044f794cb0a3E', symObjAddr: 0xA8, symBinAddr: 0xD38C, symSize: 0xA8 }
  - { offset: 0x2197D, size: 0x8, addend: 0x0, symName: __ZN4pyo35impl_5panic9PanicTrap3new17h8784a1b8b2202630E, symObjAddr: 0x0, symBinAddr: 0xD434, symSize: 0x18 }
  - { offset: 0x21A13, size: 0x8, addend: 0x0, symName: __ZN4pyo35impl_5panic9PanicTrap3new17h8784a1b8b2202630E, symObjAddr: 0x0, symBinAddr: 0xD434, symSize: 0x18 }
  - { offset: 0x21A35, size: 0x8, addend: 0x0, symName: __ZN4pyo35impl_5panic9PanicTrap6disarm17h7572d1b914cd6a2cE, symObjAddr: 0x18, symBinAddr: 0xD44C, symSize: 0x28 }
  - { offset: 0x21A70, size: 0x8, addend: 0x0, symName: '__ZN63_$LT$I$u20$as$u20$core..iter..traits..collect..IntoIterator$GT$9into_iter17h55af641a3ecc7229E', symObjAddr: 0x40, symBinAddr: 0xD474, symSize: 0x14 }
  - { offset: 0x21AB9, size: 0x8, addend: 0x0, symName: '__ZN98_$LT$core..iter..adapters..rev..Rev$LT$I$GT$$u20$as$u20$core..iter..traits..iterator..Iterator$GT$4next17h4feaba9f7b4b9850E', symObjAddr: 0xA8, symBinAddr: 0xD4DC, symSize: 0x24 }
  - { offset: 0x21B1F, size: 0x8, addend: 0x0, symName: '__ZN70_$LT$core..num..error..TryFromIntError$u20$as$u20$core..fmt..Debug$GT$3fmt17hbeab35e88eccd37eE', symObjAddr: 0x54, symBinAddr: 0xD488, symSize: 0x54 }
  - { offset: 0x21E5A, size: 0x8, addend: 0x0, symName: __ZN6zopfli4lz7718find_longest_match17hcc98aac21c2a0c33E, symObjAddr: 0x0, symBinAddr: 0xD500, symSize: 0x364 }
  - { offset: 0x21E71, size: 0x8, addend: 0x0, symName: __ZN6zopfli4lz7718find_longest_match17hcc98aac21c2a0c33E, symObjAddr: 0x0, symBinAddr: 0xD500, symSize: 0x364 }
  - { offset: 0x22B4C, size: 0x8, addend: 0x0, symName: '__ZN87_$LT$T$u20$as$u20$alloc..slice..$LT$impl$u20$$u5b$T$u5d$$GT$..to_vec_in..ConvertVec$GT$6to_vec17h6e90fbc6db80a0cdE', symObjAddr: 0x1670, symBinAddr: 0xEB70, symSize: 0x104 }
  - { offset: 0x22DA3, size: 0x8, addend: 0x0, symName: __ZN6zopfli4lz779Lz77Store11follow_path17h4e05928a8556f4b0E, symObjAddr: 0x364, symBinAddr: 0xD864, symSize: 0x828 }
  - { offset: 0x23061, size: 0x8, addend: 0x0, symName: __ZN6zopfli4lz779Lz77Store6greedy17h5661a3deef4ccc0fE, symObjAddr: 0xB8C, symBinAddr: 0xE08C, symSize: 0xAE4 }
  - { offset: 0x236A1, size: 0x8, addend: 0x0, symName: '__ZN4core3cmp5impls69_$LT$impl$u20$core..cmp..PartialEq$LT$$RF$B$GT$$u20$for$u20$$RF$A$GT$2ne17h939ffc56729c498aE', symObjAddr: 0x0, symBinAddr: 0xEC74, symSize: 0x44 }
  - { offset: 0x236C2, size: 0x8, addend: 0x0, symName: '__ZN4core3cmp5impls69_$LT$impl$u20$core..cmp..PartialEq$LT$$RF$B$GT$$u20$for$u20$$RF$A$GT$2ne17h939ffc56729c498aE', symObjAddr: 0x0, symBinAddr: 0xEC74, symSize: 0x44 }
  - { offset: 0x23747, size: 0x8, addend: 0x0, symName: '__ZN4core3cmp5impls70_$LT$impl$u20$core..cmp..PartialOrd$LT$$RF$B$GT$$u20$for$u20$$RF$A$GT$2lt17h8024a1f5d26cdd62E', symObjAddr: 0x44, symBinAddr: 0xECB8, symSize: 0x44 }
  - { offset: 0x23815, size: 0x8, addend: 0x0, symName: '__ZN58_$LT$i32$u20$as$u20$rusqlite..types..from_sql..FromSql$GT$13column_result28_$u7b$$u7b$closure$u7d$$u7d$17hec7ac40b5475c151E', symObjAddr: 0x88, symBinAddr: 0xECFC, symSize: 0x28 }
  - { offset: 0x239BD, size: 0x8, addend: 0x0, symName: '__ZN52_$LT$Q$u20$as$u20$hashbrown..Equivalent$LT$K$GT$$GT$10equivalent17h31b541871b21c41dE', symObjAddr: 0x0, symBinAddr: 0xED24, symSize: 0x50 }
  - { offset: 0x23ADE, size: 0x8, addend: 0x0, symName: '__ZN64_$LT$core..str..error..Utf8Error$u20$as$u20$core..fmt..Debug$GT$3fmt17he5accf25920b7271E', symObjAddr: 0x90, symBinAddr: 0xEDB4, symSize: 0x88 }
  - { offset: 0x23C6B, size: 0x8, addend: 0x0, symName: '__ZN52_$LT$Q$u20$as$u20$hashbrown..Equivalent$LT$K$GT$$GT$10equivalent17h31b541871b21c41dE', symObjAddr: 0x0, symBinAddr: 0xED24, symSize: 0x50 }
  - { offset: 0x23CCB, size: 0x8, addend: 0x0, symName: '__ZN52_$LT$Q$u20$as$u20$hashbrown..Equivalent$LT$K$GT$$GT$10equivalent17ha3da092dc3889a13E', symObjAddr: 0x50, symBinAddr: 0xED74, symSize: 0x40 }
  - { offset: 0x23D44, size: 0x8, addend: 0x0, symName: __ZN8pyo3_ffi7pystate17PyThreadState_GET17h91a902600bfb3933E, symObjAddr: 0x118, symBinAddr: 0xEE3C, symSize: 0x14 }
  - { offset: 0x23E27, size: 0x8, addend: 0x0, symName: '__ZN106_$LT$hashbrown..map..HashMap$LT$K$C$V$C$S$C$A$GT$$u20$as$u20$core..iter..traits..collect..IntoIterator$GT$9into_iter17hcb3c7e053c044235E', symObjAddr: 0x0, symBinAddr: 0xEE50, symSize: 0x6C }
  - { offset: 0x2517F, size: 0x8, addend: 0x0, symName: '__ZN106_$LT$hashbrown..map..HashMap$LT$K$C$V$C$S$C$A$GT$$u20$as$u20$core..iter..traits..collect..IntoIterator$GT$9into_iter17hcb3c7e053c044235E', symObjAddr: 0x0, symBinAddr: 0xEE50, symSize: 0x6C }
  - { offset: 0x253A5, size: 0x8, addend: 0x0, symName: '__ZN121_$LT$hashbrown..map..HashMap$LT$K$C$V$C$S$C$A$GT$$u20$as$u20$core..iter..traits..collect..Extend$LT$$LP$K$C$V$RP$$GT$$GT$6extend17h0e7b91595822930eE', symObjAddr: 0x6C, symBinAddr: 0xEEBC, symSize: 0x104 }
  - { offset: 0x254AE, size: 0x8, addend: 0x0, symName: '__ZN121_$LT$hashbrown..map..HashMap$LT$K$C$V$C$S$C$A$GT$$u20$as$u20$core..iter..traits..collect..Extend$LT$$LP$K$C$V$RP$$GT$$GT$6extend17h324c453d13fa5632E', symObjAddr: 0x170, symBinAddr: 0xEFC0, symSize: 0x104 }
  - { offset: 0x255B7, size: 0x8, addend: 0x0, symName: '__ZN121_$LT$hashbrown..map..HashMap$LT$K$C$V$C$S$C$A$GT$$u20$as$u20$core..iter..traits..collect..Extend$LT$$LP$K$C$V$RP$$GT$$GT$6extend17h4c34204370c6e021E', symObjAddr: 0x274, symBinAddr: 0xF0C4, symSize: 0x104 }
  - { offset: 0x256C0, size: 0x8, addend: 0x0, symName: '__ZN121_$LT$hashbrown..map..HashMap$LT$K$C$V$C$S$C$A$GT$$u20$as$u20$core..iter..traits..collect..Extend$LT$$LP$K$C$V$RP$$GT$$GT$6extend17h6e6f655a3c3fd81bE', symObjAddr: 0x378, symBinAddr: 0xF1C8, symSize: 0x110 }
  - { offset: 0x257CC, size: 0x8, addend: 0x0, symName: '__ZN121_$LT$hashbrown..map..HashMap$LT$K$C$V$C$S$C$A$GT$$u20$as$u20$core..iter..traits..collect..Extend$LT$$LP$K$C$V$RP$$GT$$GT$6extend17hafb142c5790b35ecE', symObjAddr: 0x488, symBinAddr: 0xF2D8, symSize: 0x104 }
  - { offset: 0x258DA, size: 0x8, addend: 0x0, symName: '__ZN121_$LT$hashbrown..map..HashMap$LT$K$C$V$C$S$C$A$GT$$u20$as$u20$core..iter..traits..collect..Extend$LT$$LP$K$C$V$RP$$GT$$GT$6extend28_$u7b$$u7b$closure$u7d$$u7d$17h1fdf32d386db145eE', symObjAddr: 0x58C, symBinAddr: 0xF3DC, symSize: 0x40 }
  - { offset: 0x2596C, size: 0x8, addend: 0x0, symName: '__ZN121_$LT$hashbrown..map..HashMap$LT$K$C$V$C$S$C$A$GT$$u20$as$u20$core..iter..traits..collect..Extend$LT$$LP$K$C$V$RP$$GT$$GT$6extend28_$u7b$$u7b$closure$u7d$$u7d$17h1fe3496fde109ee6E', symObjAddr: 0x5CC, symBinAddr: 0xF41C, symSize: 0x40 }
  - { offset: 0x259FE, size: 0x8, addend: 0x0, symName: '__ZN121_$LT$hashbrown..map..HashMap$LT$K$C$V$C$S$C$A$GT$$u20$as$u20$core..iter..traits..collect..Extend$LT$$LP$K$C$V$RP$$GT$$GT$6extend28_$u7b$$u7b$closure$u7d$$u7d$17h2bbc7c997910b3a4E', symObjAddr: 0x60C, symBinAddr: 0xF45C, symSize: 0x64 }
  - { offset: 0x25A91, size: 0x8, addend: 0x0, symName: '__ZN121_$LT$hashbrown..map..HashMap$LT$K$C$V$C$S$C$A$GT$$u20$as$u20$core..iter..traits..collect..Extend$LT$$LP$K$C$V$RP$$GT$$GT$6extend28_$u7b$$u7b$closure$u7d$$u7d$17hb2c79ac1e26e4f13E', symObjAddr: 0x670, symBinAddr: 0xF4C0, symSize: 0x40 }
  - { offset: 0x25B23, size: 0x8, addend: 0x0, symName: '__ZN121_$LT$hashbrown..map..HashMap$LT$K$C$V$C$S$C$A$GT$$u20$as$u20$core..iter..traits..collect..Extend$LT$$LP$K$C$V$RP$$GT$$GT$6extend28_$u7b$$u7b$closure$u7d$$u7d$17heeeee25c8f84cfe5E', symObjAddr: 0x6B0, symBinAddr: 0xF500, symSize: 0x40 }
  - { offset: 0x25E85, size: 0x8, addend: 0x0, symName: '__ZN92_$LT$hashbrown..map..Iter$LT$K$C$V$GT$$u20$as$u20$core..iter..traits..iterator..Iterator$GT$4next17h3bc1010c8d89b4acE', symObjAddr: 0x6F0, symBinAddr: 0xF540, symSize: 0xF0 }
  - { offset: 0x25FA0, size: 0x8, addend: 0x0, symName: '__ZN92_$LT$hashbrown..map..Iter$LT$K$C$V$GT$$u20$as$u20$core..iter..traits..iterator..Iterator$GT$4next17hcdfc95c0632d0106E', symObjAddr: 0x7E0, symBinAddr: 0xF630, symSize: 0xF0 }
  - { offset: 0x260FA, size: 0x8, addend: 0x0, symName: '__ZN9hashbrown3map11make_hasher28_$u7b$$u7b$closure$u7d$$u7d$17h05acaa107e0267beE', symObjAddr: 0x8D0, symBinAddr: 0xF720, symSize: 0x3C }
  - { offset: 0x26176, size: 0x8, addend: 0x0, symName: '__ZN9hashbrown3map11make_hasher28_$u7b$$u7b$closure$u7d$$u7d$17hab6c037df254882cE', symObjAddr: 0x90C, symBinAddr: 0xF75C, symSize: 0x3C }
  - { offset: 0x261F2, size: 0x8, addend: 0x0, symName: '__ZN9hashbrown3map11make_hasher28_$u7b$$u7b$closure$u7d$$u7d$17he8b9e33fe6a3442aE', symObjAddr: 0x948, symBinAddr: 0xF798, symSize: 0x3C }
  - { offset: 0x262E6, size: 0x8, addend: 0x0, symName: '__ZN9hashbrown3map14equivalent_key28_$u7b$$u7b$closure$u7d$$u7d$17h72e29af1e817ba5aE', symObjAddr: 0x984, symBinAddr: 0xF7D4, symSize: 0x30 }
  - { offset: 0x2633D, size: 0x8, addend: 0x0, symName: '__ZN9hashbrown3map14equivalent_key28_$u7b$$u7b$closure$u7d$$u7d$17h879a56eaad5eab5dE', symObjAddr: 0x9B4, symBinAddr: 0xF804, symSize: 0x3C }
  - { offset: 0x26394, size: 0x8, addend: 0x0, symName: '__ZN9hashbrown3map14equivalent_key28_$u7b$$u7b$closure$u7d$$u7d$17hada548f48d61caadE', symObjAddr: 0x9F0, symBinAddr: 0xF840, symSize: 0x30 }
  - { offset: 0x263EB, size: 0x8, addend: 0x0, symName: '__ZN9hashbrown3map14equivalent_key28_$u7b$$u7b$closure$u7d$$u7d$17hafb0c98df13799e5E', symObjAddr: 0xA20, symBinAddr: 0xF870, symSize: 0x30 }
  - { offset: 0x27E09, size: 0x8, addend: 0x0, symName: '__ZN9hashbrown3map24HashMap$LT$K$C$V$C$S$GT$24with_capacity_and_hasher17h407f1719cd07b2baE', symObjAddr: 0xA50, symBinAddr: 0xF8A0, symSize: 0x78 }
  - { offset: 0x27E90, size: 0x8, addend: 0x0, symName: '__ZN9hashbrown3map24HashMap$LT$K$C$V$C$S$GT$24with_capacity_and_hasher17h5b66600867a0d55eE', symObjAddr: 0xAC8, symBinAddr: 0xF918, symSize: 0x78 }
  - { offset: 0x28017, size: 0x8, addend: 0x0, symName: '__ZN9hashbrown3map28HashMap$LT$K$C$V$C$S$C$A$GT$12contains_key17h7211b6ad4d45f879E', symObjAddr: 0xB40, symBinAddr: 0xF990, symSize: 0x10C }
  - { offset: 0x28325, size: 0x8, addend: 0x0, symName: '__ZN9hashbrown3map28HashMap$LT$K$C$V$C$S$C$A$GT$12contains_key17h80fd8545131c274aE', symObjAddr: 0xC4C, symBinAddr: 0xFA9C, symSize: 0x120 }
  - { offset: 0x285E4, size: 0x8, addend: 0x0, symName: '__ZN9hashbrown3map28HashMap$LT$K$C$V$C$S$C$A$GT$3get17hecb67c8e0f615cc9E', symObjAddr: 0xD6C, symBinAddr: 0xFBBC, symSize: 0x104 }
  - { offset: 0x28938, size: 0x8, addend: 0x0, symName: '__ZN9hashbrown3map28HashMap$LT$K$C$V$C$S$C$A$GT$4iter17h517e9bf9d7fc0a7cE', symObjAddr: 0xE70, symBinAddr: 0xFCC0, symSize: 0xA8 }
  - { offset: 0x28BF7, size: 0x8, addend: 0x0, symName: '__ZN9hashbrown3map28HashMap$LT$K$C$V$C$S$C$A$GT$4iter17hed67bfe66b45f8c4E', symObjAddr: 0xF18, symBinAddr: 0xFD68, symSize: 0xA8 }
  - { offset: 0x28EBD, size: 0x8, addend: 0x0, symName: '__ZN9hashbrown3map28HashMap$LT$K$C$V$C$S$C$A$GT$6insert17h7b97b91c64c9a764E', symObjAddr: 0xFC0, symBinAddr: 0xFE10, symSize: 0x228 }
  - { offset: 0x291D1, size: 0x8, addend: 0x0, symName: '__ZN9hashbrown3map28HashMap$LT$K$C$V$C$S$C$A$GT$6insert17hc2e3f9c15e3d119aE', symObjAddr: 0x11E8, symBinAddr: 0x10038, symSize: 0x190 }
  - { offset: 0x294D6, size: 0x8, addend: 0x0, symName: '__ZN9hashbrown3map28HashMap$LT$K$C$V$C$S$C$A$GT$6insert17he1edc6dd8f2070b5E', symObjAddr: 0x1378, symBinAddr: 0x101C8, symSize: 0x228 }
  - { offset: 0x29816, size: 0x8, addend: 0x0, symName: '__ZN9hashbrown3map28HashMap$LT$K$C$V$C$S$C$A$GT$6retain17h2cd3363f5014eaf1E', symObjAddr: 0x15A0, symBinAddr: 0x103F0, symSize: 0x1D4 }
  - { offset: 0x29B4E, size: 0x8, addend: 0x0, symName: __ZN5_core2db9DatasetDb12get_missions17h85d37312ef145f9bE, symObjAddr: 0x0, symBinAddr: 0x105C4, symSize: 0x418 }
  - { offset: 0x2C241, size: 0x8, addend: 0x0, symName: '__ZN61_$LT$_core..db..DatasetInfo$u20$as$u20$core..clone..Clone$GT$5clone17h8aa671a71e30cf56E', symObjAddr: 0x3E24, symBinAddr: 0x143E8, symSize: 0x1A4 }
  - { offset: 0x2C275, size: 0x8, addend: 0x0, symName: '__ZN63_$LT$_core..db..MissionRecord$u20$as$u20$core..clone..Clone$GT$5clone17h62e06decc1dd68f3E', symObjAddr: 0x3FC8, symBinAddr: 0x1458C, symSize: 0xD8 }
  - { offset: 0x2C2A7, size: 0x8, addend: 0x0, symName: '__ZN66_$LT$_core..db..StagedFileRecord$u20$as$u20$core..clone..Clone$GT$5clone17hd3a0a88b0168af01E', symObjAddr: 0x40A0, symBinAddr: 0x14664, symSize: 0xCC }
  - { offset: 0x2CCD3, size: 0x8, addend: 0x0, symName: __ZN5_core2db9DatasetDb12get_missions17h85d37312ef145f9bE, symObjAddr: 0x0, symBinAddr: 0x105C4, symSize: 0x418 }
  - { offset: 0x2CDF2, size: 0x8, addend: 0x0, symName: __ZN5_core2db9DatasetDb12init_dataset17had8bf6bcb4cb555fE, symObjAddr: 0x418, symBinAddr: 0x109DC, symSize: 0x114 }
  - { offset: 0x2CE4F, size: 0x8, addend: 0x0, symName: __ZN5_core2db9DatasetDb13create_tables17ha05ec55cfa423b48E, symObjAddr: 0x52C, symBinAddr: 0x10AF0, symSize: 0xCC }
  - { offset: 0x2CE90, size: 0x8, addend: 0x0, symName: __ZN5_core2db9DatasetDb14delete_mission17h19cce70e9fe707b9E, symObjAddr: 0x5F8, symBinAddr: 0x10BBC, symSize: 0x43C }
  - { offset: 0x2CF82, size: 0x8, addend: 0x0, symName: __ZN5_core2db9DatasetDb14insert_mission17hcd663faccf51727bE, symObjAddr: 0xA34, symBinAddr: 0x10FF8, symSize: 0x1AC }
  - { offset: 0x2CFD2, size: 0x8, addend: 0x0, symName: __ZN5_core2db9DatasetDb16get_dataset_meta17h56f5636caf1865b8E, symObjAddr: 0xBE0, symBinAddr: 0x111A4, symSize: 0xEC }
  - { offset: 0x2D03E, size: 0x8, addend: 0x0, symName: __ZN5_core2db9DatasetDb19update_dataset_meta17hb4c8447f6543a055E, symObjAddr: 0xCCC, symBinAddr: 0x11290, symSize: 0x160 }
  - { offset: 0x2D08E, size: 0x8, addend: 0x0, symName: __ZN5_core2db9DatasetDb24get_dataset_staged_files17hc326f8487b5d3122E, symObjAddr: 0xE2C, symBinAddr: 0x113F0, symSize: 0x410 }
  - { offset: 0x2D1B8, size: 0x8, addend: 0x0, symName: __ZN5_core2db9DatasetDb24get_mission_staged_files17he7eaa7c11d2b1c33E, symObjAddr: 0x123C, symBinAddr: 0x11800, symSize: 0x440 }
  - { offset: 0x2D30D, size: 0x8, addend: 0x0, symName: __ZN5_core2db9DatasetDb24set_dataset_staged_files17h5f1141972fe219f9E, symObjAddr: 0x167C, symBinAddr: 0x11C40, symSize: 0x3E0 }
  - { offset: 0x2D430, size: 0x8, addend: 0x0, symName: __ZN5_core2db9DatasetDb24set_mission_staged_files17h10a20888125e25d0E, symObjAddr: 0x1A5C, symBinAddr: 0x12020, symSize: 0x448 }
  - { offset: 0x2D531, size: 0x8, addend: 0x0, symName: __ZN5_core2db9DatasetDb26clear_dataset_staged_files17h6b5c26fd429fc3acE, symObjAddr: 0x1EA4, symBinAddr: 0x12468, symSize: 0xD4 }
  - { offset: 0x2D574, size: 0x8, addend: 0x0, symName: __ZN5_core2db9DatasetDb26clear_mission_staged_files17h5bcc1ac232f1770bE, symObjAddr: 0x1F78, symBinAddr: 0x1253C, symSize: 0xFC }
  - { offset: 0x2D5C3, size: 0x8, addend: 0x0, symName: __ZN5_core2db9DatasetDb27add_dataset_committed_files17hcf8683a709a7a055E, symObjAddr: 0x2074, symBinAddr: 0x12638, symSize: 0x334 }
  - { offset: 0x2D6A8, size: 0x8, addend: 0x0, symName: __ZN5_core2db9DatasetDb27add_mission_committed_files17h4f8f7227a251635cE, symObjAddr: 0x23A8, symBinAddr: 0x1296C, symSize: 0x350 }
  - { offset: 0x2D79D, size: 0x8, addend: 0x0, symName: __ZN5_core2db9DatasetDb27get_dataset_committed_files17h7d05caf9bceb5332E, symObjAddr: 0x26F8, symBinAddr: 0x12CBC, symSize: 0x410 }
  - { offset: 0x2D8C7, size: 0x8, addend: 0x0, symName: __ZN5_core2db9DatasetDb27get_mission_committed_files17h70cef410c75d9baeE, symObjAddr: 0x2B08, symBinAddr: 0x130CC, symSize: 0x438 }
  - { offset: 0x2DA28, size: 0x8, addend: 0x0, symName: __ZN5_core2db9DatasetDb4open17hf6df1a9b3748867fE, symObjAddr: 0x2F40, symBinAddr: 0x13504, symSize: 0x284 }
  - { offset: 0x2DAEC, size: 0x8, addend: 0x0, symName: __ZN5_core2db9ManagerDb10get_config17hc939d0f8ca4bbd58E, symObjAddr: 0x31C4, symBinAddr: 0x13788, symSize: 0x128 }
  - { offset: 0x2DB5D, size: 0x8, addend: 0x0, symName: __ZN5_core2db9ManagerDb10set_config17h4daf989f887fe726E, symObjAddr: 0x32EC, symBinAddr: 0x138B0, symSize: 0x114 }
  - { offset: 0x2DBBF, size: 0x8, addend: 0x0, symName: __ZN5_core2db9ManagerDb13create_tables17hbbea57fa1aa6b463E, symObjAddr: 0x3400, symBinAddr: 0x139C4, symSize: 0xCC }
  - { offset: 0x2DC02, size: 0x8, addend: 0x0, symName: __ZN5_core2db9ManagerDb14remove_dataset17h6ee3d24e5967f6dbE, symObjAddr: 0x34CC, symBinAddr: 0x13A90, symSize: 0xFC }
  - { offset: 0x2DC61, size: 0x8, addend: 0x0, symName: __ZN5_core2db9ManagerDb14upsert_dataset17h6de055c828e23e88E, symObjAddr: 0x35C8, symBinAddr: 0x13B8C, symSize: 0x174 }
  - { offset: 0x2DCB4, size: 0x8, addend: 0x0, symName: __ZN5_core2db9ManagerDb16get_all_datasets17h0522fbff06416a1fE, symObjAddr: 0x373C, symBinAddr: 0x13D00, symSize: 0x418 }
  - { offset: 0x2DDDE, size: 0x8, addend: 0x0, symName: __ZN5_core2db9ManagerDb4open17haa4c213812a77d61E, symObjAddr: 0x3B54, symBinAddr: 0x14118, symSize: 0x2D0 }
  - { offset: 0x2DF19, size: 0x8, addend: 0x0, symName: __ZN4pyo35impl_16extract_argument16extract_argument17h269a2b918fb61949E, symObjAddr: 0x0, symBinAddr: 0x14730, symSize: 0x134 }
  - { offset: 0x30173, size: 0x8, addend: 0x0, symName: __ZN4pyo35impl_16extract_argument16extract_argument17h269a2b918fb61949E, symObjAddr: 0x0, symBinAddr: 0x14730, symSize: 0x134 }
  - { offset: 0x301F8, size: 0x8, addend: 0x0, symName: __ZN4pyo35impl_16extract_argument16extract_argument17h36795fda5e2645baE, symObjAddr: 0x134, symBinAddr: 0x14864, symSize: 0x134 }
  - { offset: 0x3027D, size: 0x8, addend: 0x0, symName: __ZN4pyo35impl_16extract_argument16extract_argument17h4e8139a6998c3e26E, symObjAddr: 0x268, symBinAddr: 0x14998, symSize: 0x11C }
  - { offset: 0x30301, size: 0x8, addend: 0x0, symName: __ZN4pyo35impl_16extract_argument16extract_argument17h5c105edbffea2747E, symObjAddr: 0x384, symBinAddr: 0x14AB4, symSize: 0x128 }
  - { offset: 0x30385, size: 0x8, addend: 0x0, symName: __ZN4pyo35impl_16extract_argument16extract_argument17h64d7094eaa942026E, symObjAddr: 0x4AC, symBinAddr: 0x14BDC, symSize: 0x11C }
  - { offset: 0x30409, size: 0x8, addend: 0x0, symName: __ZN4pyo35impl_16extract_argument16extract_argument17hdbc17bb0f2ef2870E, symObjAddr: 0x5C8, symBinAddr: 0x14CF8, symSize: 0x128 }
  - { offset: 0x3060E, size: 0x8, addend: 0x0, symName: '__ZN4pyo35impl_16extract_argument19FunctionDescription26extract_arguments_fastcall28_$u7b$$u7b$closure$u7d$$u7d$17h7a996b2da64921a1E', symObjAddr: 0x1AE8, symBinAddr: 0x16218, symSize: 0x24 }
  - { offset: 0x30666, size: 0x8, addend: 0x0, symName: '__ZN4pyo35impl_16extract_argument19FunctionDescription28extract_arguments_tuple_dict28_$u7b$$u7b$closure$u7d$$u7d$17h7e27a50c2bce35caE', symObjAddr: 0x1FAC, symBinAddr: 0x166DC, symSize: 0x24 }
  - { offset: 0x306BE, size: 0x8, addend: 0x0, symName: '__ZN4pyo35impl_16extract_argument19FunctionDescription36find_keyword_parameter_in_positional28_$u7b$$u7b$closure$u7d$$u7d$17h7175be8c09a36a5fE', symObjAddr: 0x1FD0, symBinAddr: 0x16700, symSize: 0x48 }
  - { offset: 0x3071E, size: 0x8, addend: 0x0, symName: '__ZN4pyo35impl_16extract_argument19FunctionDescription38find_keyword_parameter_in_keyword_only28_$u7b$$u7b$closure$u7d$$u7d$17h8ae6e175e01a6d63E', symObjAddr: 0x2018, symBinAddr: 0x16748, symSize: 0x38 }
  - { offset: 0x30760, size: 0x8, addend: 0x0, symName: __ZN4pyo35impl_16extract_argument19extract_pyclass_ref17h2538f825b07d889dE, symObjAddr: 0x2050, symBinAddr: 0x16780, symSize: 0xB0 }
  - { offset: 0x307C1, size: 0x8, addend: 0x0, symName: __ZN4pyo35impl_16extract_argument19extract_pyclass_ref17h41ae858d98934fcbE, symObjAddr: 0x2100, symBinAddr: 0x16830, symSize: 0xB0 }
  - { offset: 0x30822, size: 0x8, addend: 0x0, symName: __ZN4pyo35impl_16extract_argument19extract_pyclass_ref17h78395bb68714f1b3E, symObjAddr: 0x21B0, symBinAddr: 0x168E0, symSize: 0xB0 }
  - { offset: 0x30883, size: 0x8, addend: 0x0, symName: __ZN4pyo35impl_16extract_argument23extract_pyclass_ref_mut17h54bd0b862b5bb184E, symObjAddr: 0x2260, symBinAddr: 0x16990, symSize: 0xB0 }
  - { offset: 0x308E4, size: 0x8, addend: 0x0, symName: __ZN4pyo35impl_16extract_argument25extract_optional_argument17h8ef6789e4d6d7432E, symObjAddr: 0x2310, symBinAddr: 0x16A40, symSize: 0xCC }
  - { offset: 0x30959, size: 0x8, addend: 0x0, symName: __ZN4pyo35impl_16extract_argument25extract_optional_argument17hcf05c5ab3b2c6dcdE, symObjAddr: 0x23DC, symBinAddr: 0x16B0C, symSize: 0xE4 }
  - { offset: 0x309D3, size: 0x8, addend: 0x0, symName: '__ZN71_$LT$T$u20$as$u20$pyo3..impl_..extract_argument..PyFunctionArgument$GT$7extract17h450856ffcd3ed9c2E', symObjAddr: 0x24C0, symBinAddr: 0x16BF0, symSize: 0x28 }
  - { offset: 0x30A12, size: 0x8, addend: 0x0, symName: '__ZN71_$LT$T$u20$as$u20$pyo3..impl_..extract_argument..PyFunctionArgument$GT$7extract17h90d4637dcbd20376E', symObjAddr: 0x24E8, symBinAddr: 0x16C18, symSize: 0x28 }
  - { offset: 0x30A51, size: 0x8, addend: 0x0, symName: '__ZN71_$LT$T$u20$as$u20$pyo3..impl_..extract_argument..PyFunctionArgument$GT$7extract17hb0b0146532f66d11E', symObjAddr: 0x2510, symBinAddr: 0x16C40, symSize: 0x28 }
  - { offset: 0x3154B, size: 0x8, addend: 0x0, symName: __ZN4pyo35impl_16extract_argument19FunctionDescription13handle_kwargs17hb55e610039a86330E, symObjAddr: 0x6F0, symBinAddr: 0x14E20, symSize: 0x6F8 }
  - { offset: 0x3174A, size: 0x8, addend: 0x0, symName: __ZN4pyo35impl_16extract_argument19FunctionDescription13handle_kwargs17hec15d78cbfff37b1E, symObjAddr: 0xDE8, symBinAddr: 0x15518, symSize: 0x6F0 }
  - { offset: 0x31967, size: 0x8, addend: 0x0, symName: __ZN4pyo35impl_16extract_argument19FunctionDescription26extract_arguments_fastcall17h7b78943fce1cf752E, symObjAddr: 0x14D8, symBinAddr: 0x15C08, symSize: 0x610 }
  - { offset: 0x31C9A, size: 0x8, addend: 0x0, symName: __ZN4pyo35impl_16extract_argument19FunctionDescription28extract_arguments_tuple_dict17h1d930cbabee84932E, symObjAddr: 0x1B0C, symBinAddr: 0x1623C, symSize: 0x4A0 }
  - { offset: 0x3263C, size: 0x8, addend: 0x0, symName: __ZN3std3sys3pal4unix17decode_error_kind17h5e2b4520862bfa08E, symObjAddr: 0x0, symBinAddr: 0x16C68, symSize: 0x240 }
  - { offset: 0x32771, size: 0x8, addend: 0x0, symName: __ZN3std3sys3pal4unix17decode_error_kind17h5e2b4520862bfa08E, symObjAddr: 0x0, symBinAddr: 0x16C68, symSize: 0x240 }
  - { offset: 0x32805, size: 0x8, addend: 0x0, symName: __ZN4core5slice6memchr6memchr17hd983359f1b5805f0E, symObjAddr: 0x0, symBinAddr: 0x16EA8, symSize: 0x114 }
  - { offset: 0x32856, size: 0x8, addend: 0x0, symName: __ZN4core5slice6memchr6memchr17hd983359f1b5805f0E, symObjAddr: 0x0, symBinAddr: 0x16EA8, symSize: 0x114 }
  - { offset: 0x32984, size: 0x8, addend: 0x0, symName: __ZN5alloc3fmt6format17h01031a31118f964dE, symObjAddr: 0x0, symBinAddr: 0x16FBC, symSize: 0xD8 }
  - { offset: 0x32E9C, size: 0x8, addend: 0x0, symName: __ZN5alloc3fmt6format17h01031a31118f964dE, symObjAddr: 0x0, symBinAddr: 0x16FBC, symSize: 0xD8 }
  - { offset: 0x3303C, size: 0x8, addend: 0x0, symName: '__ZN45_$LT$T$u20$as$u20$alloc..string..ToString$GT$9to_string17h27d93f89de84c46cE', symObjAddr: 0x0, symBinAddr: 0x17094, symSize: 0x24 }
  - { offset: 0x33098, size: 0x8, addend: 0x0, symName: '__ZN45_$LT$T$u20$as$u20$alloc..string..ToString$GT$9to_string17h27d93f89de84c46cE', symObjAddr: 0x0, symBinAddr: 0x17094, symSize: 0x24 }
  - { offset: 0x330D5, size: 0x8, addend: 0x0, symName: '__ZN49_$LT$T$u20$as$u20$alloc..string..SpecToString$GT$14spec_to_string17hf136a3814358d0c7E', symObjAddr: 0x24, symBinAddr: 0x170B8, symSize: 0xF4 }
  - { offset: 0x33445, size: 0x8, addend: 0x0, symName: '__ZN50_$LT$T$u20$as$u20$core..convert..Into$LT$U$GT$$GT$4into17hf9fa4af65c648b4eE', symObjAddr: 0x118, symBinAddr: 0x171AC, symSize: 0x14 }
  - { offset: 0x358E3, size: 0x8, addend: 0x0, symName: '__ZN102_$LT$core..iter..adapters..map..Map$LT$I$C$F$GT$$u20$as$u20$core..iter..traits..iterator..Iterator$GT$4fold17h0534831b6e856623E', symObjAddr: 0x0, symBinAddr: 0x171C0, symSize: 0x34 }
  - { offset: 0x36769, size: 0x8, addend: 0x0, symName: '__ZN102_$LT$core..iter..adapters..map..Map$LT$I$C$F$GT$$u20$as$u20$core..iter..traits..iterator..Iterator$GT$4fold17h0534831b6e856623E', symObjAddr: 0x0, symBinAddr: 0x171C0, symSize: 0x34 }
  - { offset: 0x367DA, size: 0x8, addend: 0x0, symName: '__ZN102_$LT$core..iter..adapters..map..Map$LT$I$C$F$GT$$u20$as$u20$core..iter..traits..iterator..Iterator$GT$4fold17h0724c6e16cae66a1E', symObjAddr: 0x34, symBinAddr: 0x171F4, symSize: 0x44 }
  - { offset: 0x36872, size: 0x8, addend: 0x0, symName: '__ZN102_$LT$core..iter..adapters..map..Map$LT$I$C$F$GT$$u20$as$u20$core..iter..traits..iterator..Iterator$GT$4fold17h16fb6483d3b4fe0bE', symObjAddr: 0x78, symBinAddr: 0x17238, symSize: 0x34 }
  - { offset: 0x368E3, size: 0x8, addend: 0x0, symName: '__ZN102_$LT$core..iter..adapters..map..Map$LT$I$C$F$GT$$u20$as$u20$core..iter..traits..iterator..Iterator$GT$4fold17h1a8883543d2eb8c4E', symObjAddr: 0xAC, symBinAddr: 0x1726C, symSize: 0x4C }
  - { offset: 0x3697C, size: 0x8, addend: 0x0, symName: '__ZN102_$LT$core..iter..adapters..map..Map$LT$I$C$F$GT$$u20$as$u20$core..iter..traits..iterator..Iterator$GT$4fold17h2145d745983195eeE', symObjAddr: 0xF8, symBinAddr: 0x172B8, symSize: 0x44 }
  - { offset: 0x36A14, size: 0x8, addend: 0x0, symName: '__ZN102_$LT$core..iter..adapters..map..Map$LT$I$C$F$GT$$u20$as$u20$core..iter..traits..iterator..Iterator$GT$4fold17h54ce268de4f8af5dE', symObjAddr: 0x13C, symBinAddr: 0x172FC, symSize: 0x44 }
  - { offset: 0x36AAC, size: 0x8, addend: 0x0, symName: '__ZN102_$LT$core..iter..adapters..map..Map$LT$I$C$F$GT$$u20$as$u20$core..iter..traits..iterator..Iterator$GT$4fold17h5aa834a947e3f492E', symObjAddr: 0x180, symBinAddr: 0x17340, symSize: 0x44 }
  - { offset: 0x36B44, size: 0x8, addend: 0x0, symName: '__ZN102_$LT$core..iter..adapters..map..Map$LT$I$C$F$GT$$u20$as$u20$core..iter..traits..iterator..Iterator$GT$4fold17h6d160065008a02faE', symObjAddr: 0x1C4, symBinAddr: 0x17384, symSize: 0x44 }
  - { offset: 0x36BDC, size: 0x8, addend: 0x0, symName: '__ZN102_$LT$core..iter..adapters..map..Map$LT$I$C$F$GT$$u20$as$u20$core..iter..traits..iterator..Iterator$GT$4fold17h700b4b9aba992949E', symObjAddr: 0x208, symBinAddr: 0x173C8, symSize: 0x34 }
  - { offset: 0x36C4D, size: 0x8, addend: 0x0, symName: '__ZN102_$LT$core..iter..adapters..map..Map$LT$I$C$F$GT$$u20$as$u20$core..iter..traits..iterator..Iterator$GT$4fold17h7434a973c9b7ad00E', symObjAddr: 0x23C, symBinAddr: 0x173FC, symSize: 0x44 }
  - { offset: 0x36CE5, size: 0x8, addend: 0x0, symName: '__ZN102_$LT$core..iter..adapters..map..Map$LT$I$C$F$GT$$u20$as$u20$core..iter..traits..iterator..Iterator$GT$4fold17h7a730235a781c12cE', symObjAddr: 0x280, symBinAddr: 0x17440, symSize: 0x34 }
  - { offset: 0x36D56, size: 0x8, addend: 0x0, symName: '__ZN102_$LT$core..iter..adapters..map..Map$LT$I$C$F$GT$$u20$as$u20$core..iter..traits..iterator..Iterator$GT$4fold17h92329e372e492b87E', symObjAddr: 0x2B4, symBinAddr: 0x17474, symSize: 0x44 }
  - { offset: 0x36DEE, size: 0x8, addend: 0x0, symName: '__ZN102_$LT$core..iter..adapters..map..Map$LT$I$C$F$GT$$u20$as$u20$core..iter..traits..iterator..Iterator$GT$4fold17h9d15f65b6bf0b46dE', symObjAddr: 0x2F8, symBinAddr: 0x174B8, symSize: 0x4C }
  - { offset: 0x36E87, size: 0x8, addend: 0x0, symName: '__ZN102_$LT$core..iter..adapters..map..Map$LT$I$C$F$GT$$u20$as$u20$core..iter..traits..iterator..Iterator$GT$4fold17ha8afe555626ed472E', symObjAddr: 0x344, symBinAddr: 0x17504, symSize: 0x34 }
  - { offset: 0x36EF8, size: 0x8, addend: 0x0, symName: '__ZN102_$LT$core..iter..adapters..map..Map$LT$I$C$F$GT$$u20$as$u20$core..iter..traits..iterator..Iterator$GT$4fold17hb96413bb9d0d7308E', symObjAddr: 0x378, symBinAddr: 0x17538, symSize: 0x34 }
  - { offset: 0x36F69, size: 0x8, addend: 0x0, symName: '__ZN102_$LT$core..iter..adapters..map..Map$LT$I$C$F$GT$$u20$as$u20$core..iter..traits..iterator..Iterator$GT$4fold17hc25fe3fef2da036dE', symObjAddr: 0x3AC, symBinAddr: 0x1756C, symSize: 0x44 }
  - { offset: 0x37001, size: 0x8, addend: 0x0, symName: '__ZN102_$LT$core..iter..adapters..map..Map$LT$I$C$F$GT$$u20$as$u20$core..iter..traits..iterator..Iterator$GT$4fold17hd146104da0e7ef62E', symObjAddr: 0x3F0, symBinAddr: 0x175B0, symSize: 0x34 }
  - { offset: 0x37072, size: 0x8, addend: 0x0, symName: '__ZN102_$LT$core..iter..adapters..map..Map$LT$I$C$F$GT$$u20$as$u20$core..iter..traits..iterator..Iterator$GT$4fold17hd8a223970afcc34bE', symObjAddr: 0x424, symBinAddr: 0x175E4, symSize: 0x34 }
  - { offset: 0x370E3, size: 0x8, addend: 0x0, symName: '__ZN102_$LT$core..iter..adapters..map..Map$LT$I$C$F$GT$$u20$as$u20$core..iter..traits..iterator..Iterator$GT$4fold17hedb4212abbd2536aE', symObjAddr: 0x458, symBinAddr: 0x17618, symSize: 0x44 }
  - { offset: 0x3717B, size: 0x8, addend: 0x0, symName: '__ZN102_$LT$core..iter..adapters..map..Map$LT$I$C$F$GT$$u20$as$u20$core..iter..traits..iterator..Iterator$GT$4fold17hf1da79ff30b5f98aE', symObjAddr: 0x49C, symBinAddr: 0x1765C, symSize: 0x38 }
  - { offset: 0x371F1, size: 0x8, addend: 0x0, symName: '__ZN102_$LT$core..iter..adapters..map..Map$LT$I$C$F$GT$$u20$as$u20$core..iter..traits..iterator..Iterator$GT$4fold17hf51db04afbe7be39E', symObjAddr: 0x4D4, symBinAddr: 0x17694, symSize: 0x44 }
  - { offset: 0x37289, size: 0x8, addend: 0x0, symName: '__ZN102_$LT$core..iter..adapters..map..Map$LT$I$C$F$GT$$u20$as$u20$core..iter..traits..iterator..Iterator$GT$4fold17hfa125c20495924daE', symObjAddr: 0x518, symBinAddr: 0x176D8, symSize: 0x60 }
  - { offset: 0x37322, size: 0x8, addend: 0x0, symName: '__ZN102_$LT$core..iter..adapters..map..Map$LT$I$C$F$GT$$u20$as$u20$core..iter..traits..iterator..Iterator$GT$4next17h00b439d07927f13eE', symObjAddr: 0x578, symBinAddr: 0x17738, symSize: 0xC0 }
  - { offset: 0x373C0, size: 0x8, addend: 0x0, symName: '__ZN102_$LT$core..iter..adapters..map..Map$LT$I$C$F$GT$$u20$as$u20$core..iter..traits..iterator..Iterator$GT$4next17h0f362632fdd064c7E', symObjAddr: 0x638, symBinAddr: 0x177F8, symSize: 0xC4 }
  - { offset: 0x3745E, size: 0x8, addend: 0x0, symName: '__ZN102_$LT$core..iter..adapters..map..Map$LT$I$C$F$GT$$u20$as$u20$core..iter..traits..iterator..Iterator$GT$4next17h1d65470638782982E', symObjAddr: 0x6FC, symBinAddr: 0x178BC, symSize: 0xC0 }
  - { offset: 0x374FC, size: 0x8, addend: 0x0, symName: '__ZN102_$LT$core..iter..adapters..map..Map$LT$I$C$F$GT$$u20$as$u20$core..iter..traits..iterator..Iterator$GT$4next17h21dd110ed208c17bE', symObjAddr: 0x7BC, symBinAddr: 0x1797C, symSize: 0x9C }
  - { offset: 0x37598, size: 0x8, addend: 0x0, symName: '__ZN102_$LT$core..iter..adapters..map..Map$LT$I$C$F$GT$$u20$as$u20$core..iter..traits..iterator..Iterator$GT$4next17h22ac3d0492ccf281E', symObjAddr: 0x858, symBinAddr: 0x17A18, symSize: 0xC4 }
  - { offset: 0x37636, size: 0x8, addend: 0x0, symName: '__ZN102_$LT$core..iter..adapters..map..Map$LT$I$C$F$GT$$u20$as$u20$core..iter..traits..iterator..Iterator$GT$4next17h2f9094c4df3f52e5E', symObjAddr: 0x91C, symBinAddr: 0x17ADC, symSize: 0xC0 }
  - { offset: 0x376D4, size: 0x8, addend: 0x0, symName: '__ZN102_$LT$core..iter..adapters..map..Map$LT$I$C$F$GT$$u20$as$u20$core..iter..traits..iterator..Iterator$GT$4next17h3ab14d9df5956c0dE', symObjAddr: 0x9DC, symBinAddr: 0x17B9C, symSize: 0x9C }
  - { offset: 0x37770, size: 0x8, addend: 0x0, symName: '__ZN102_$LT$core..iter..adapters..map..Map$LT$I$C$F$GT$$u20$as$u20$core..iter..traits..iterator..Iterator$GT$4next17h3c53394a2805c966E', symObjAddr: 0xA78, symBinAddr: 0x17C38, symSize: 0xC0 }
  - { offset: 0x3780E, size: 0x8, addend: 0x0, symName: '__ZN102_$LT$core..iter..adapters..map..Map$LT$I$C$F$GT$$u20$as$u20$core..iter..traits..iterator..Iterator$GT$4next17h446846b8c09c6347E', symObjAddr: 0xB38, symBinAddr: 0x17CF8, symSize: 0xCC }
  - { offset: 0x378AC, size: 0x8, addend: 0x0, symName: '__ZN102_$LT$core..iter..adapters..map..Map$LT$I$C$F$GT$$u20$as$u20$core..iter..traits..iterator..Iterator$GT$4next17h55f9562c26a1d7d3E', symObjAddr: 0xC04, symBinAddr: 0x17DC4, symSize: 0xCC }
  - { offset: 0x3794A, size: 0x8, addend: 0x0, symName: '__ZN102_$LT$core..iter..adapters..map..Map$LT$I$C$F$GT$$u20$as$u20$core..iter..traits..iterator..Iterator$GT$4next17h60a393889bc9ae32E', symObjAddr: 0xCD0, symBinAddr: 0x17E90, symSize: 0xA8 }
  - { offset: 0x379E8, size: 0x8, addend: 0x0, symName: '__ZN102_$LT$core..iter..adapters..map..Map$LT$I$C$F$GT$$u20$as$u20$core..iter..traits..iterator..Iterator$GT$4next17h6b6759a3f5fdab3bE', symObjAddr: 0xD78, symBinAddr: 0x17F38, symSize: 0x9C }
  - { offset: 0x37A84, size: 0x8, addend: 0x0, symName: '__ZN102_$LT$core..iter..adapters..map..Map$LT$I$C$F$GT$$u20$as$u20$core..iter..traits..iterator..Iterator$GT$4next17h76827da6714e151aE', symObjAddr: 0xE14, symBinAddr: 0x17FD4, symSize: 0xCC }
  - { offset: 0x37B22, size: 0x8, addend: 0x0, symName: '__ZN102_$LT$core..iter..adapters..map..Map$LT$I$C$F$GT$$u20$as$u20$core..iter..traits..iterator..Iterator$GT$4next17h81b8cf4ae5873136E', symObjAddr: 0xEE0, symBinAddr: 0x180A0, symSize: 0xC0 }
  - { offset: 0x37BC0, size: 0x8, addend: 0x0, symName: '__ZN102_$LT$core..iter..adapters..map..Map$LT$I$C$F$GT$$u20$as$u20$core..iter..traits..iterator..Iterator$GT$4next17ha0517718f501292cE', symObjAddr: 0xFA0, symBinAddr: 0x18160, symSize: 0x90 }
  - { offset: 0x37C5C, size: 0x8, addend: 0x0, symName: '__ZN102_$LT$core..iter..adapters..map..Map$LT$I$C$F$GT$$u20$as$u20$core..iter..traits..iterator..Iterator$GT$4next17ha6c7ed83de59c70bE', symObjAddr: 0x1030, symBinAddr: 0x181F0, symSize: 0xC0 }
  - { offset: 0x37CFA, size: 0x8, addend: 0x0, symName: '__ZN102_$LT$core..iter..adapters..map..Map$LT$I$C$F$GT$$u20$as$u20$core..iter..traits..iterator..Iterator$GT$4next17hb094fdb4195a2948E', symObjAddr: 0x10F0, symBinAddr: 0x182B0, symSize: 0xA8 }
  - { offset: 0x37D98, size: 0x8, addend: 0x0, symName: '__ZN102_$LT$core..iter..adapters..map..Map$LT$I$C$F$GT$$u20$as$u20$core..iter..traits..iterator..Iterator$GT$4next17hb22fac52c6f46e0eE', symObjAddr: 0x1198, symBinAddr: 0x18358, symSize: 0xC0 }
  - { offset: 0x37E36, size: 0x8, addend: 0x0, symName: '__ZN102_$LT$core..iter..adapters..map..Map$LT$I$C$F$GT$$u20$as$u20$core..iter..traits..iterator..Iterator$GT$4next17hbd4aaa31a368d4a5E', symObjAddr: 0x1258, symBinAddr: 0x18418, symSize: 0xC0 }
  - { offset: 0x37ED4, size: 0x8, addend: 0x0, symName: '__ZN102_$LT$core..iter..adapters..map..Map$LT$I$C$F$GT$$u20$as$u20$core..iter..traits..iterator..Iterator$GT$4next17hc6cb713ddac76d2dE', symObjAddr: 0x1318, symBinAddr: 0x184D8, symSize: 0xCC }
  - { offset: 0x37F72, size: 0x8, addend: 0x0, symName: '__ZN102_$LT$core..iter..adapters..map..Map$LT$I$C$F$GT$$u20$as$u20$core..iter..traits..iterator..Iterator$GT$4next17hc75feb075318be0fE', symObjAddr: 0x13E4, symBinAddr: 0x185A4, symSize: 0xC4 }
  - { offset: 0x38010, size: 0x8, addend: 0x0, symName: '__ZN102_$LT$core..iter..adapters..map..Map$LT$I$C$F$GT$$u20$as$u20$core..iter..traits..iterator..Iterator$GT$4next17hcbab8c3d64b34810E', symObjAddr: 0x14A8, symBinAddr: 0x18668, symSize: 0xC0 }
  - { offset: 0x380AE, size: 0x8, addend: 0x0, symName: '__ZN102_$LT$core..iter..adapters..map..Map$LT$I$C$F$GT$$u20$as$u20$core..iter..traits..iterator..Iterator$GT$4next17hcfef05cf2a39db18E', symObjAddr: 0x1568, symBinAddr: 0x18728, symSize: 0xC0 }
  - { offset: 0x3814C, size: 0x8, addend: 0x0, symName: '__ZN102_$LT$core..iter..adapters..map..Map$LT$I$C$F$GT$$u20$as$u20$core..iter..traits..iterator..Iterator$GT$4next17hdfbc217bcd04befbE', symObjAddr: 0x1628, symBinAddr: 0x187E8, symSize: 0x90 }
  - { offset: 0x381E8, size: 0x8, addend: 0x0, symName: '__ZN102_$LT$core..iter..adapters..map..Map$LT$I$C$F$GT$$u20$as$u20$core..iter..traits..iterator..Iterator$GT$4next17he42eb5e8fab14458E', symObjAddr: 0x16B8, symBinAddr: 0x18878, symSize: 0xC4 }
  - { offset: 0x38286, size: 0x8, addend: 0x0, symName: '__ZN102_$LT$core..iter..adapters..map..Map$LT$I$C$F$GT$$u20$as$u20$core..iter..traits..iterator..Iterator$GT$4next17he951cdb37a6b45fcE', symObjAddr: 0x177C, symBinAddr: 0x1893C, symSize: 0x9C }
  - { offset: 0x38322, size: 0x8, addend: 0x0, symName: '__ZN102_$LT$core..iter..adapters..map..Map$LT$I$C$F$GT$$u20$as$u20$core..iter..traits..iterator..Iterator$GT$4next17hf480d02f95aaf6d2E', symObjAddr: 0x1818, symBinAddr: 0x189D8, symSize: 0xC0 }
  - { offset: 0x383C0, size: 0x8, addend: 0x0, symName: '__ZN102_$LT$core..iter..adapters..map..Map$LT$I$C$F$GT$$u20$as$u20$core..iter..traits..iterator..Iterator$GT$8try_fold17h01a4f286b48d85a8E', symObjAddr: 0x18D8, symBinAddr: 0x18A98, symSize: 0x34 }
  - { offset: 0x3843E, size: 0x8, addend: 0x0, symName: '__ZN102_$LT$core..iter..adapters..map..Map$LT$I$C$F$GT$$u20$as$u20$core..iter..traits..iterator..Iterator$GT$8try_fold17h2d6bd47ea8fc7bf2E', symObjAddr: 0x190C, symBinAddr: 0x18ACC, symSize: 0x34 }
  - { offset: 0x384BC, size: 0x8, addend: 0x0, symName: '__ZN102_$LT$core..iter..adapters..map..Map$LT$I$C$F$GT$$u20$as$u20$core..iter..traits..iterator..Iterator$GT$8try_fold17h919b5cbdad3afb66E', symObjAddr: 0x1940, symBinAddr: 0x18B00, symSize: 0x34 }
  - { offset: 0x3853A, size: 0x8, addend: 0x0, symName: '__ZN102_$LT$core..iter..adapters..map..Map$LT$I$C$F$GT$$u20$as$u20$core..iter..traits..iterator..Iterator$GT$8try_fold17hee1af18a163a8b7fE', symObjAddr: 0x1974, symBinAddr: 0x18B34, symSize: 0x4C }
  - { offset: 0x385B8, size: 0x8, addend: 0x0, symName: '__ZN102_$LT$core..iter..adapters..map..Map$LT$I$C$F$GT$$u20$as$u20$core..iter..traits..iterator..Iterator$GT$9size_hint17h0a2ef46c8cfac70cE', symObjAddr: 0x19C0, symBinAddr: 0x18B80, symSize: 0x24 }
  - { offset: 0x385FF, size: 0x8, addend: 0x0, symName: '__ZN102_$LT$core..iter..adapters..map..Map$LT$I$C$F$GT$$u20$as$u20$core..iter..traits..iterator..Iterator$GT$9size_hint17h13514ac94f55928dE', symObjAddr: 0x19E4, symBinAddr: 0x18BA4, symSize: 0x24 }
  - { offset: 0x38646, size: 0x8, addend: 0x0, symName: '__ZN102_$LT$core..iter..adapters..map..Map$LT$I$C$F$GT$$u20$as$u20$core..iter..traits..iterator..Iterator$GT$9size_hint17h15566290926f7d14E', symObjAddr: 0x1A08, symBinAddr: 0x18BC8, symSize: 0x24 }
  - { offset: 0x3868D, size: 0x8, addend: 0x0, symName: '__ZN102_$LT$core..iter..adapters..map..Map$LT$I$C$F$GT$$u20$as$u20$core..iter..traits..iterator..Iterator$GT$9size_hint17h1fc67a27a16df9a7E', symObjAddr: 0x1A2C, symBinAddr: 0x18BEC, symSize: 0x24 }
  - { offset: 0x386D4, size: 0x8, addend: 0x0, symName: '__ZN102_$LT$core..iter..adapters..map..Map$LT$I$C$F$GT$$u20$as$u20$core..iter..traits..iterator..Iterator$GT$9size_hint17h2060408927c0f2c0E', symObjAddr: 0x1A50, symBinAddr: 0x18C10, symSize: 0x24 }
  - { offset: 0x3871B, size: 0x8, addend: 0x0, symName: '__ZN102_$LT$core..iter..adapters..map..Map$LT$I$C$F$GT$$u20$as$u20$core..iter..traits..iterator..Iterator$GT$9size_hint17h21a66c28f2973fdcE', symObjAddr: 0x1A74, symBinAddr: 0x18C34, symSize: 0x24 }
  - { offset: 0x38762, size: 0x8, addend: 0x0, symName: '__ZN102_$LT$core..iter..adapters..map..Map$LT$I$C$F$GT$$u20$as$u20$core..iter..traits..iterator..Iterator$GT$9size_hint17h243fa369499a3cf0E', symObjAddr: 0x1A98, symBinAddr: 0x18C58, symSize: 0x24 }
  - { offset: 0x387A9, size: 0x8, addend: 0x0, symName: '__ZN102_$LT$core..iter..adapters..map..Map$LT$I$C$F$GT$$u20$as$u20$core..iter..traits..iterator..Iterator$GT$9size_hint17h2655fcaa5be2453bE', symObjAddr: 0x1ABC, symBinAddr: 0x18C7C, symSize: 0x24 }
  - { offset: 0x387F0, size: 0x8, addend: 0x0, symName: '__ZN102_$LT$core..iter..adapters..map..Map$LT$I$C$F$GT$$u20$as$u20$core..iter..traits..iterator..Iterator$GT$9size_hint17h2ba20d1650475f9bE', symObjAddr: 0x1AE0, symBinAddr: 0x18CA0, symSize: 0x24 }
  - { offset: 0x38837, size: 0x8, addend: 0x0, symName: '__ZN102_$LT$core..iter..adapters..map..Map$LT$I$C$F$GT$$u20$as$u20$core..iter..traits..iterator..Iterator$GT$9size_hint17h31ec040458bd9975E', symObjAddr: 0x1B04, symBinAddr: 0x18CC4, symSize: 0x24 }
  - { offset: 0x3887E, size: 0x8, addend: 0x0, symName: '__ZN102_$LT$core..iter..adapters..map..Map$LT$I$C$F$GT$$u20$as$u20$core..iter..traits..iterator..Iterator$GT$9size_hint17h3fad7a65d4991391E', symObjAddr: 0x1B28, symBinAddr: 0x18CE8, symSize: 0x24 }
  - { offset: 0x388C5, size: 0x8, addend: 0x0, symName: '__ZN102_$LT$core..iter..adapters..map..Map$LT$I$C$F$GT$$u20$as$u20$core..iter..traits..iterator..Iterator$GT$9size_hint17h465972ebd7ae994cE', symObjAddr: 0x1B4C, symBinAddr: 0x18D0C, symSize: 0x24 }
  - { offset: 0x3890C, size: 0x8, addend: 0x0, symName: '__ZN102_$LT$core..iter..adapters..map..Map$LT$I$C$F$GT$$u20$as$u20$core..iter..traits..iterator..Iterator$GT$9size_hint17h46b7fc1076b8982fE', symObjAddr: 0x1B70, symBinAddr: 0x18D30, symSize: 0x24 }
  - { offset: 0x38953, size: 0x8, addend: 0x0, symName: '__ZN102_$LT$core..iter..adapters..map..Map$LT$I$C$F$GT$$u20$as$u20$core..iter..traits..iterator..Iterator$GT$9size_hint17h4a221bec323ed4efE', symObjAddr: 0x1B94, symBinAddr: 0x18D54, symSize: 0x24 }
  - { offset: 0x3899A, size: 0x8, addend: 0x0, symName: '__ZN102_$LT$core..iter..adapters..map..Map$LT$I$C$F$GT$$u20$as$u20$core..iter..traits..iterator..Iterator$GT$9size_hint17h5128e1c2c3b394b2E', symObjAddr: 0x1BB8, symBinAddr: 0x18D78, symSize: 0x24 }
  - { offset: 0x389E1, size: 0x8, addend: 0x0, symName: '__ZN102_$LT$core..iter..adapters..map..Map$LT$I$C$F$GT$$u20$as$u20$core..iter..traits..iterator..Iterator$GT$9size_hint17h5b6b557c41cb0f6cE', symObjAddr: 0x1BDC, symBinAddr: 0x18D9C, symSize: 0x24 }
  - { offset: 0x38A28, size: 0x8, addend: 0x0, symName: '__ZN102_$LT$core..iter..adapters..map..Map$LT$I$C$F$GT$$u20$as$u20$core..iter..traits..iterator..Iterator$GT$9size_hint17h688e0097b8bdb97cE', symObjAddr: 0x1C00, symBinAddr: 0x18DC0, symSize: 0x24 }
  - { offset: 0x38A6F, size: 0x8, addend: 0x0, symName: '__ZN102_$LT$core..iter..adapters..map..Map$LT$I$C$F$GT$$u20$as$u20$core..iter..traits..iterator..Iterator$GT$9size_hint17h6be205d4364a5644E', symObjAddr: 0x1C24, symBinAddr: 0x18DE4, symSize: 0x24 }
  - { offset: 0x38AB6, size: 0x8, addend: 0x0, symName: '__ZN102_$LT$core..iter..adapters..map..Map$LT$I$C$F$GT$$u20$as$u20$core..iter..traits..iterator..Iterator$GT$9size_hint17h6f8cc865985344b5E', symObjAddr: 0x1C48, symBinAddr: 0x18E08, symSize: 0x24 }
  - { offset: 0x38AFD, size: 0x8, addend: 0x0, symName: '__ZN102_$LT$core..iter..adapters..map..Map$LT$I$C$F$GT$$u20$as$u20$core..iter..traits..iterator..Iterator$GT$9size_hint17h78ea4aad0dea7083E', symObjAddr: 0x1C6C, symBinAddr: 0x18E2C, symSize: 0x24 }
  - { offset: 0x38B44, size: 0x8, addend: 0x0, symName: '__ZN102_$LT$core..iter..adapters..map..Map$LT$I$C$F$GT$$u20$as$u20$core..iter..traits..iterator..Iterator$GT$9size_hint17h7a138e25c7e20dd2E', symObjAddr: 0x1C90, symBinAddr: 0x18E50, symSize: 0x24 }
  - { offset: 0x38B8B, size: 0x8, addend: 0x0, symName: '__ZN102_$LT$core..iter..adapters..map..Map$LT$I$C$F$GT$$u20$as$u20$core..iter..traits..iterator..Iterator$GT$9size_hint17h80596ea7f393f602E', symObjAddr: 0x1CB4, symBinAddr: 0x18E74, symSize: 0x24 }
  - { offset: 0x38BD2, size: 0x8, addend: 0x0, symName: '__ZN102_$LT$core..iter..adapters..map..Map$LT$I$C$F$GT$$u20$as$u20$core..iter..traits..iterator..Iterator$GT$9size_hint17h8ab24821772f86dfE', symObjAddr: 0x1CD8, symBinAddr: 0x18E98, symSize: 0x24 }
  - { offset: 0x38C19, size: 0x8, addend: 0x0, symName: '__ZN102_$LT$core..iter..adapters..map..Map$LT$I$C$F$GT$$u20$as$u20$core..iter..traits..iterator..Iterator$GT$9size_hint17h920e894241d58464E', symObjAddr: 0x1CFC, symBinAddr: 0x18EBC, symSize: 0x24 }
  - { offset: 0x38C60, size: 0x8, addend: 0x0, symName: '__ZN102_$LT$core..iter..adapters..map..Map$LT$I$C$F$GT$$u20$as$u20$core..iter..traits..iterator..Iterator$GT$9size_hint17h931b3c4bb54a43c1E', symObjAddr: 0x1D20, symBinAddr: 0x18EE0, symSize: 0x24 }
  - { offset: 0x38CA7, size: 0x8, addend: 0x0, symName: '__ZN102_$LT$core..iter..adapters..map..Map$LT$I$C$F$GT$$u20$as$u20$core..iter..traits..iterator..Iterator$GT$9size_hint17h946984a170384588E', symObjAddr: 0x1D44, symBinAddr: 0x18F04, symSize: 0x24 }
  - { offset: 0x38CEE, size: 0x8, addend: 0x0, symName: '__ZN102_$LT$core..iter..adapters..map..Map$LT$I$C$F$GT$$u20$as$u20$core..iter..traits..iterator..Iterator$GT$9size_hint17h96df93df0aac1480E', symObjAddr: 0x1D68, symBinAddr: 0x18F28, symSize: 0x24 }
  - { offset: 0x38D35, size: 0x8, addend: 0x0, symName: '__ZN102_$LT$core..iter..adapters..map..Map$LT$I$C$F$GT$$u20$as$u20$core..iter..traits..iterator..Iterator$GT$9size_hint17h9b5d4e1989f61262E', symObjAddr: 0x1D8C, symBinAddr: 0x18F4C, symSize: 0x24 }
  - { offset: 0x38D7C, size: 0x8, addend: 0x0, symName: '__ZN102_$LT$core..iter..adapters..map..Map$LT$I$C$F$GT$$u20$as$u20$core..iter..traits..iterator..Iterator$GT$9size_hint17ha3d5afd1d63e21c0E', symObjAddr: 0x1DB0, symBinAddr: 0x18F70, symSize: 0x24 }
  - { offset: 0x38DC3, size: 0x8, addend: 0x0, symName: '__ZN102_$LT$core..iter..adapters..map..Map$LT$I$C$F$GT$$u20$as$u20$core..iter..traits..iterator..Iterator$GT$9size_hint17ha98418aaa5d6b3fdE', symObjAddr: 0x1DD4, symBinAddr: 0x18F94, symSize: 0x24 }
  - { offset: 0x38E0A, size: 0x8, addend: 0x0, symName: '__ZN102_$LT$core..iter..adapters..map..Map$LT$I$C$F$GT$$u20$as$u20$core..iter..traits..iterator..Iterator$GT$9size_hint17habf94e8857968159E', symObjAddr: 0x1DF8, symBinAddr: 0x18FB8, symSize: 0x24 }
  - { offset: 0x38E51, size: 0x8, addend: 0x0, symName: '__ZN102_$LT$core..iter..adapters..map..Map$LT$I$C$F$GT$$u20$as$u20$core..iter..traits..iterator..Iterator$GT$9size_hint17hba908bf16cb6f9f0E', symObjAddr: 0x1E1C, symBinAddr: 0x18FDC, symSize: 0x24 }
  - { offset: 0x38E98, size: 0x8, addend: 0x0, symName: '__ZN102_$LT$core..iter..adapters..map..Map$LT$I$C$F$GT$$u20$as$u20$core..iter..traits..iterator..Iterator$GT$9size_hint17hc0f14485f19f2d7cE', symObjAddr: 0x1E40, symBinAddr: 0x19000, symSize: 0x24 }
  - { offset: 0x38EDF, size: 0x8, addend: 0x0, symName: '__ZN102_$LT$core..iter..adapters..map..Map$LT$I$C$F$GT$$u20$as$u20$core..iter..traits..iterator..Iterator$GT$9size_hint17hc69982a0efc64dbeE', symObjAddr: 0x1E64, symBinAddr: 0x19024, symSize: 0x24 }
  - { offset: 0x38F26, size: 0x8, addend: 0x0, symName: '__ZN102_$LT$core..iter..adapters..map..Map$LT$I$C$F$GT$$u20$as$u20$core..iter..traits..iterator..Iterator$GT$9size_hint17hc82e31cce3fc2d8aE', symObjAddr: 0x1E88, symBinAddr: 0x19048, symSize: 0x24 }
  - { offset: 0x38F6D, size: 0x8, addend: 0x0, symName: '__ZN102_$LT$core..iter..adapters..map..Map$LT$I$C$F$GT$$u20$as$u20$core..iter..traits..iterator..Iterator$GT$9size_hint17hd24faf9a30087a1fE', symObjAddr: 0x1EAC, symBinAddr: 0x1906C, symSize: 0x24 }
  - { offset: 0x38FB4, size: 0x8, addend: 0x0, symName: '__ZN102_$LT$core..iter..adapters..map..Map$LT$I$C$F$GT$$u20$as$u20$core..iter..traits..iterator..Iterator$GT$9size_hint17hd47b045f37db8559E', symObjAddr: 0x1ED0, symBinAddr: 0x19090, symSize: 0x24 }
  - { offset: 0x38FFB, size: 0x8, addend: 0x0, symName: '__ZN102_$LT$core..iter..adapters..map..Map$LT$I$C$F$GT$$u20$as$u20$core..iter..traits..iterator..Iterator$GT$9size_hint17hd8e2e7cc7e14983eE', symObjAddr: 0x1EF4, symBinAddr: 0x190B4, symSize: 0x24 }
  - { offset: 0x39042, size: 0x8, addend: 0x0, symName: '__ZN102_$LT$core..iter..adapters..map..Map$LT$I$C$F$GT$$u20$as$u20$core..iter..traits..iterator..Iterator$GT$9size_hint17hd9957eea1f39f902E', symObjAddr: 0x1F18, symBinAddr: 0x190D8, symSize: 0x24 }
  - { offset: 0x39089, size: 0x8, addend: 0x0, symName: '__ZN102_$LT$core..iter..adapters..map..Map$LT$I$C$F$GT$$u20$as$u20$core..iter..traits..iterator..Iterator$GT$9size_hint17hdd81aee71f040379E', symObjAddr: 0x1F3C, symBinAddr: 0x190FC, symSize: 0x24 }
  - { offset: 0x390D0, size: 0x8, addend: 0x0, symName: '__ZN102_$LT$core..iter..adapters..map..Map$LT$I$C$F$GT$$u20$as$u20$core..iter..traits..iterator..Iterator$GT$9size_hint17hde33458a471a1767E', symObjAddr: 0x1F60, symBinAddr: 0x19120, symSize: 0x24 }
  - { offset: 0x39117, size: 0x8, addend: 0x0, symName: '__ZN102_$LT$core..iter..adapters..map..Map$LT$I$C$F$GT$$u20$as$u20$core..iter..traits..iterator..Iterator$GT$9size_hint17he3e3bda9c4925827E', symObjAddr: 0x1F84, symBinAddr: 0x19144, symSize: 0x24 }
  - { offset: 0x3915E, size: 0x8, addend: 0x0, symName: '__ZN102_$LT$core..iter..adapters..map..Map$LT$I$C$F$GT$$u20$as$u20$core..iter..traits..iterator..Iterator$GT$9size_hint17he6516fcc1fb805baE', symObjAddr: 0x1FA8, symBinAddr: 0x19168, symSize: 0x24 }
  - { offset: 0x391A5, size: 0x8, addend: 0x0, symName: '__ZN102_$LT$core..iter..adapters..map..Map$LT$I$C$F$GT$$u20$as$u20$core..iter..traits..iterator..Iterator$GT$9size_hint17hfacb8a940f0326cdE', symObjAddr: 0x1FCC, symBinAddr: 0x1918C, symSize: 0x24 }
  - { offset: 0x391EC, size: 0x8, addend: 0x0, symName: '__ZN102_$LT$core..iter..adapters..map..Map$LT$I$C$F$GT$$u20$as$u20$core..iter..traits..iterator..Iterator$GT$9size_hint17hfbd552584d3797cfE', symObjAddr: 0x1FF0, symBinAddr: 0x191B0, symSize: 0x24 }
  - { offset: 0x39233, size: 0x8, addend: 0x0, symName: '__ZN102_$LT$core..iter..adapters..map..Map$LT$I$C$F$GT$$u20$as$u20$core..iter..traits..iterator..Iterator$GT$9size_hint17hfd47bfa7039accb2E', symObjAddr: 0x2014, symBinAddr: 0x191D4, symSize: 0x24 }
  - { offset: 0x3927A, size: 0x8, addend: 0x0, symName: '__ZN102_$LT$core..iter..adapters..map..Map$LT$I$C$F$GT$$u20$as$u20$core..iter..traits..iterator..Iterator$GT$9size_hint17hfe4691bbf9c2dedfE', symObjAddr: 0x2038, symBinAddr: 0x191F8, symSize: 0x24 }
  - { offset: 0x394A1, size: 0x8, addend: 0x0, symName: '__ZN4core4iter8adapters3map8map_fold28_$u7b$$u7b$closure$u7d$$u7d$17h0692b30ef57b31ccE', symObjAddr: 0x2F6C, symBinAddr: 0x1A12C, symSize: 0x8C }
  - { offset: 0x39526, size: 0x8, addend: 0x0, symName: '__ZN4core4iter8adapters3map8map_fold28_$u7b$$u7b$closure$u7d$$u7d$17h0b4e2ad38bd04f61E', symObjAddr: 0x2FF8, symBinAddr: 0x1A1B8, symSize: 0x88 }
  - { offset: 0x395AB, size: 0x8, addend: 0x0, symName: '__ZN4core4iter8adapters3map8map_fold28_$u7b$$u7b$closure$u7d$$u7d$17h2f38ff078e68c995E', symObjAddr: 0x3080, symBinAddr: 0x1A240, symSize: 0x88 }
  - { offset: 0x39630, size: 0x8, addend: 0x0, symName: '__ZN4core4iter8adapters3map8map_fold28_$u7b$$u7b$closure$u7d$$u7d$17h3a4e029a553a7482E', symObjAddr: 0x3108, symBinAddr: 0x1A2C8, symSize: 0x8C }
  - { offset: 0x396B5, size: 0x8, addend: 0x0, symName: '__ZN4core4iter8adapters3map8map_fold28_$u7b$$u7b$closure$u7d$$u7d$17h400693fbba758068E', symObjAddr: 0x3194, symBinAddr: 0x1A354, symSize: 0x88 }
  - { offset: 0x3973A, size: 0x8, addend: 0x0, symName: '__ZN4core4iter8adapters3map8map_fold28_$u7b$$u7b$closure$u7d$$u7d$17h406106851678c2efE', symObjAddr: 0x321C, symBinAddr: 0x1A3DC, symSize: 0x8C }
  - { offset: 0x397BF, size: 0x8, addend: 0x0, symName: '__ZN4core4iter8adapters3map8map_fold28_$u7b$$u7b$closure$u7d$$u7d$17h45bfe919f40ed443E', symObjAddr: 0x32A8, symBinAddr: 0x1A468, symSize: 0x88 }
  - { offset: 0x39844, size: 0x8, addend: 0x0, symName: '__ZN4core4iter8adapters3map8map_fold28_$u7b$$u7b$closure$u7d$$u7d$17h4cbbbd5dc4f04979E', symObjAddr: 0x3330, symBinAddr: 0x1A4F0, symSize: 0x84 }
  - { offset: 0x398C9, size: 0x8, addend: 0x0, symName: '__ZN4core4iter8adapters3map8map_fold28_$u7b$$u7b$closure$u7d$$u7d$17h5969f3fcd46be52dE', symObjAddr: 0x33B4, symBinAddr: 0x1A574, symSize: 0x94 }
  - { offset: 0x3994E, size: 0x8, addend: 0x0, symName: '__ZN4core4iter8adapters3map8map_fold28_$u7b$$u7b$closure$u7d$$u7d$17h61537b3eb0c04ef6E', symObjAddr: 0x3448, symBinAddr: 0x1A608, symSize: 0x8C }
  - { offset: 0x399D3, size: 0x8, addend: 0x0, symName: '__ZN4core4iter8adapters3map8map_fold28_$u7b$$u7b$closure$u7d$$u7d$17h695bf66fb39f494fE', symObjAddr: 0x34D4, symBinAddr: 0x1A694, symSize: 0x84 }
  - { offset: 0x39A58, size: 0x8, addend: 0x0, symName: '__ZN4core4iter8adapters3map8map_fold28_$u7b$$u7b$closure$u7d$$u7d$17h89a456ab0f7cfec5E', symObjAddr: 0x3558, symBinAddr: 0x1A718, symSize: 0x8C }
  - { offset: 0x39ADD, size: 0x8, addend: 0x0, symName: '__ZN4core4iter8adapters3map8map_fold28_$u7b$$u7b$closure$u7d$$u7d$17h9253aa929d272402E', symObjAddr: 0x35E4, symBinAddr: 0x1A7A4, symSize: 0x9C }
  - { offset: 0x39B62, size: 0x8, addend: 0x0, symName: '__ZN4core4iter8adapters3map8map_fold28_$u7b$$u7b$closure$u7d$$u7d$17h9bb1bcc275361888E', symObjAddr: 0x3680, symBinAddr: 0x1A840, symSize: 0x84 }
  - { offset: 0x39BE7, size: 0x8, addend: 0x0, symName: '__ZN4core4iter8adapters3map8map_fold28_$u7b$$u7b$closure$u7d$$u7d$17ha4ca13237a6782abE', symObjAddr: 0x3704, symBinAddr: 0x1A8C4, symSize: 0x9C }
  - { offset: 0x39C6C, size: 0x8, addend: 0x0, symName: '__ZN4core4iter8adapters3map8map_fold28_$u7b$$u7b$closure$u7d$$u7d$17haafeccea145a8133E', symObjAddr: 0x37A0, symBinAddr: 0x1A960, symSize: 0x9C }
  - { offset: 0x39CF1, size: 0x8, addend: 0x0, symName: '__ZN4core4iter8adapters3map8map_fold28_$u7b$$u7b$closure$u7d$$u7d$17hcde6c7b2a22cdf3eE', symObjAddr: 0x383C, symBinAddr: 0x1A9FC, symSize: 0x8C }
  - { offset: 0x39D76, size: 0x8, addend: 0x0, symName: '__ZN4core4iter8adapters3map8map_fold28_$u7b$$u7b$closure$u7d$$u7d$17hcff36e505aa087e8E', symObjAddr: 0x38C8, symBinAddr: 0x1AA88, symSize: 0x8C }
  - { offset: 0x39DFB, size: 0x8, addend: 0x0, symName: '__ZN4core4iter8adapters3map8map_fold28_$u7b$$u7b$closure$u7d$$u7d$17hd6d9143135e32786E', symObjAddr: 0x3954, symBinAddr: 0x1AB14, symSize: 0x8C }
  - { offset: 0x39E80, size: 0x8, addend: 0x0, symName: '__ZN4core4iter8adapters3map8map_fold28_$u7b$$u7b$closure$u7d$$u7d$17heff36abd6ac192e7E', symObjAddr: 0x39E0, symBinAddr: 0x1ABA0, symSize: 0x98 }
  - { offset: 0x39F07, size: 0x8, addend: 0x0, symName: '__ZN4core4iter8adapters3map8map_fold28_$u7b$$u7b$closure$u7d$$u7d$17hf8f4ef78368bfb14E', symObjAddr: 0x3A78, symBinAddr: 0x1AC38, symSize: 0x8C }
  - { offset: 0x39F8C, size: 0x8, addend: 0x0, symName: '__ZN4core4iter8adapters3map8map_fold28_$u7b$$u7b$closure$u7d$$u7d$17hfb0bbda93f68c045E', symObjAddr: 0x3B04, symBinAddr: 0x1ACC4, symSize: 0x84 }
  - { offset: 0x3A47F, size: 0x8, addend: 0x0, symName: '__ZN113_$LT$core..iter..adapters..map..Map$LT$I$C$F$GT$$u20$as$u20$core..iter..traits..exact_size..ExactSizeIterator$GT$3len17h3ce07acc6137b3f8E', symObjAddr: 0x205C, symBinAddr: 0x1921C, symSize: 0x24 }
  - { offset: 0x3A4C6, size: 0x8, addend: 0x0, symName: '__ZN113_$LT$core..iter..adapters..map..Map$LT$I$C$F$GT$$u20$as$u20$core..iter..traits..exact_size..ExactSizeIterator$GT$3len17hb466ea70664cbf44E', symObjAddr: 0x2080, symBinAddr: 0x19240, symSize: 0x24 }
  - { offset: 0x3A50D, size: 0x8, addend: 0x0, symName: '__ZN113_$LT$core..iter..adapters..map..Map$LT$I$C$F$GT$$u20$as$u20$core..iter..traits..exact_size..ExactSizeIterator$GT$3len17hea7c6395aea248a4E', symObjAddr: 0x20A4, symBinAddr: 0x19264, symSize: 0x24 }
  - { offset: 0x3A554, size: 0x8, addend: 0x0, symName: '__ZN113_$LT$core..iter..adapters..map..Map$LT$I$C$F$GT$$u20$as$u20$core..iter..traits..exact_size..ExactSizeIterator$GT$8is_empty17h775865c606bb25ddE', symObjAddr: 0x20C8, symBinAddr: 0x19288, symSize: 0x24 }
  - { offset: 0x3A59B, size: 0x8, addend: 0x0, symName: '__ZN113_$LT$core..iter..adapters..map..Map$LT$I$C$F$GT$$u20$as$u20$core..iter..traits..exact_size..ExactSizeIterator$GT$8is_empty17hae7a663734e12cb6E', symObjAddr: 0x20EC, symBinAddr: 0x192AC, symSize: 0x24 }
  - { offset: 0x3A5E2, size: 0x8, addend: 0x0, symName: '__ZN113_$LT$core..iter..adapters..map..Map$LT$I$C$F$GT$$u20$as$u20$core..iter..traits..exact_size..ExactSizeIterator$GT$8is_empty17hd27545d50e11e6f4E', symObjAddr: 0x2110, symBinAddr: 0x192D0, symSize: 0x24 }
  - { offset: 0x3A877, size: 0x8, addend: 0x0, symName: '__ZN4core4iter8adapters3map12map_try_fold28_$u7b$$u7b$closure$u7d$$u7d$17h607a0df089eefb23E', symObjAddr: 0x2C60, symBinAddr: 0x19E20, symSize: 0xB8 }
  - { offset: 0x3A90A, size: 0x8, addend: 0x0, symName: '__ZN4core4iter8adapters3map12map_try_fold28_$u7b$$u7b$closure$u7d$$u7d$17h7a3e0298c7169828E', symObjAddr: 0x2D18, symBinAddr: 0x19ED8, symSize: 0xF0 }
  - { offset: 0x3A99D, size: 0x8, addend: 0x0, symName: '__ZN4core4iter8adapters3map12map_try_fold28_$u7b$$u7b$closure$u7d$$u7d$17h912efefbae803890E', symObjAddr: 0x2E08, symBinAddr: 0x19FC8, symSize: 0xC0 }
  - { offset: 0x3AA30, size: 0x8, addend: 0x0, symName: '__ZN4core4iter8adapters3map12map_try_fold28_$u7b$$u7b$closure$u7d$$u7d$17hef71f94e554986c1E', symObjAddr: 0x2EC8, symBinAddr: 0x1A088, symSize: 0xA4 }
  - { offset: 0x3AAC9, size: 0x8, addend: 0x0, symName: '__ZN96_$LT$core..iter..adapters..map..Map$LT$I$C$F$GT$$u20$as$u20$core..iter..adapters..SourceIter$GT$8as_inner17h4856cc652cbf9a4fE', symObjAddr: 0x43D0, symBinAddr: 0x1B590, symSize: 0x24 }
  - { offset: 0x3B8E8, size: 0x8, addend: 0x0, symName: __ZN4core4iter6traits8iterator8Iterator10advance_by17h403865b208454765E, symObjAddr: 0x2134, symBinAddr: 0x192F4, symSize: 0x28 }
  - { offset: 0x3B92E, size: 0x8, addend: 0x0, symName: __ZN4core4iter6traits8iterator8Iterator10advance_by17h89c3923738b8e14eE, symObjAddr: 0x215C, symBinAddr: 0x1931C, symSize: 0x28 }
  - { offset: 0x3B974, size: 0x8, addend: 0x0, symName: __ZN4core4iter6traits8iterator8Iterator10advance_by17hcbbb125c78e37a8dE, symObjAddr: 0x2184, symBinAddr: 0x19344, symSize: 0x28 }
  - { offset: 0x3B9BA, size: 0x8, addend: 0x0, symName: __ZN4core4iter6traits8iterator8Iterator10take_while17h485a41089999b3d5E, symObjAddr: 0x21AC, symBinAddr: 0x1936C, symSize: 0x2C }
  - { offset: 0x3BA1E, size: 0x8, addend: 0x0, symName: __ZN4core4iter6traits8iterator8Iterator10take_while17h80a05e7e8d238228E, symObjAddr: 0x21D8, symBinAddr: 0x19398, symSize: 0x2C }
  - { offset: 0x3BA82, size: 0x8, addend: 0x0, symName: __ZN4core4iter6traits8iterator8Iterator10take_while17hbf205a89fe9923b6E, symObjAddr: 0x2204, symBinAddr: 0x193C4, symSize: 0x2C }
  - { offset: 0x3BAE6, size: 0x8, addend: 0x0, symName: __ZN4core4iter6traits8iterator8Iterator10take_while17he11aa378ae624863E, symObjAddr: 0x2230, symBinAddr: 0x193F0, symSize: 0x2C }
  - { offset: 0x3BB4A, size: 0x8, addend: 0x0, symName: __ZN4core4iter6traits8iterator8Iterator3map17h1afe3967e9f392bbE, symObjAddr: 0x225C, symBinAddr: 0x1941C, symSize: 0x28 }
  - { offset: 0x3BBB7, size: 0x8, addend: 0x0, symName: __ZN4core4iter6traits8iterator8Iterator3map17h44e2722629207104E, symObjAddr: 0x2284, symBinAddr: 0x19444, symSize: 0x1C }
  - { offset: 0x3BC0F, size: 0x8, addend: 0x0, symName: __ZN4core4iter6traits8iterator8Iterator3map17h4c61b275db907c0cE, symObjAddr: 0x22A0, symBinAddr: 0x19460, symSize: 0x1C }
  - { offset: 0x3BC67, size: 0x8, addend: 0x0, symName: __ZN4core4iter6traits8iterator8Iterator3map17h5d2577aa49a7c941E, symObjAddr: 0x22BC, symBinAddr: 0x1947C, symSize: 0x28 }
  - { offset: 0x3BCD4, size: 0x8, addend: 0x0, symName: __ZN4core4iter6traits8iterator8Iterator3map17h7cce8530185305d7E, symObjAddr: 0x22E4, symBinAddr: 0x194A4, symSize: 0x28 }
  - { offset: 0x3BD41, size: 0x8, addend: 0x0, symName: __ZN4core4iter6traits8iterator8Iterator3map17h827f7df1156f2522E, symObjAddr: 0x230C, symBinAddr: 0x194CC, symSize: 0x28 }
  - { offset: 0x3BDAE, size: 0x8, addend: 0x0, symName: __ZN4core4iter6traits8iterator8Iterator3map17haa0c979c4a423fdeE, symObjAddr: 0x2334, symBinAddr: 0x194F4, symSize: 0x1C }
  - { offset: 0x3BE06, size: 0x8, addend: 0x0, symName: __ZN4core4iter6traits8iterator8Iterator3map17hee06fe814afba67fE, symObjAddr: 0x2350, symBinAddr: 0x19510, symSize: 0x1C }
  - { offset: 0x3BE5E, size: 0x8, addend: 0x0, symName: __ZN4core4iter6traits8iterator8Iterator3nth17hb580c7ea6bc10d58E, symObjAddr: 0x236C, symBinAddr: 0x1952C, symSize: 0x68 }
  - { offset: 0x3BF08, size: 0x8, addend: 0x0, symName: __ZN4core4iter6traits8iterator8Iterator3nth17hcfeb68a0cce70b63E, symObjAddr: 0x23D4, symBinAddr: 0x19594, symSize: 0x68 }
  - { offset: 0x3BFB2, size: 0x8, addend: 0x0, symName: __ZN4core4iter6traits8iterator8Iterator3nth17he9761b795b45233aE, symObjAddr: 0x243C, symBinAddr: 0x195FC, symSize: 0x68 }
  - { offset: 0x3C05C, size: 0x8, addend: 0x0, symName: __ZN4core4iter6traits8iterator8Iterator3sum17hc226e52d0dffb147E, symObjAddr: 0x24A4, symBinAddr: 0x19664, symSize: 0x14 }
  - { offset: 0x3C09D, size: 0x8, addend: 0x0, symName: __ZN4core4iter6traits8iterator8Iterator7collect17h0a28c4229d5d71fcE, symObjAddr: 0x24B8, symBinAddr: 0x19678, symSize: 0x2C }
  - { offset: 0x3C0DD, size: 0x8, addend: 0x0, symName: __ZN4core4iter6traits8iterator8Iterator7collect17h0aef2113f2cf9d9eE, symObjAddr: 0x24E4, symBinAddr: 0x196A4, symSize: 0x14 }
  - { offset: 0x3C11E, size: 0x8, addend: 0x0, symName: __ZN4core4iter6traits8iterator8Iterator7collect17h0cca954860c618d3E, symObjAddr: 0x24F8, symBinAddr: 0x196B8, symSize: 0x2C }
  - { offset: 0x3C15E, size: 0x8, addend: 0x0, symName: __ZN4core4iter6traits8iterator8Iterator7collect17h0e1c4a66e0ab0170E, symObjAddr: 0x2524, symBinAddr: 0x196E4, symSize: 0x14 }
  - { offset: 0x3C19F, size: 0x8, addend: 0x0, symName: __ZN4core4iter6traits8iterator8Iterator7collect17h16d508a6d6e61950E, symObjAddr: 0x2538, symBinAddr: 0x196F8, symSize: 0x14 }
  - { offset: 0x3C1E0, size: 0x8, addend: 0x0, symName: __ZN4core4iter6traits8iterator8Iterator7collect17h1784c6d612d05da3E, symObjAddr: 0x254C, symBinAddr: 0x1970C, symSize: 0x2C }
  - { offset: 0x3C220, size: 0x8, addend: 0x0, symName: __ZN4core4iter6traits8iterator8Iterator7collect17h30c1c8288e55ac97E, symObjAddr: 0x2578, symBinAddr: 0x19738, symSize: 0x14 }
  - { offset: 0x3C261, size: 0x8, addend: 0x0, symName: __ZN4core4iter6traits8iterator8Iterator7collect17h363795eaa43a5debE, symObjAddr: 0x258C, symBinAddr: 0x1974C, symSize: 0x14 }
  - { offset: 0x3C2A2, size: 0x8, addend: 0x0, symName: __ZN4core4iter6traits8iterator8Iterator7collect17h3732aee4429fb1e1E, symObjAddr: 0x25A0, symBinAddr: 0x19760, symSize: 0x2C }
  - { offset: 0x3C2E2, size: 0x8, addend: 0x0, symName: __ZN4core4iter6traits8iterator8Iterator7collect17h44f195126fab2031E, symObjAddr: 0x25CC, symBinAddr: 0x1978C, symSize: 0x2C }
  - { offset: 0x3C322, size: 0x8, addend: 0x0, symName: __ZN4core4iter6traits8iterator8Iterator7collect17h5b86f97102dc44d3E, symObjAddr: 0x25F8, symBinAddr: 0x197B8, symSize: 0x2C }
  - { offset: 0x3C362, size: 0x8, addend: 0x0, symName: __ZN4core4iter6traits8iterator8Iterator7collect17h64676d4e70f8f2eeE, symObjAddr: 0x2624, symBinAddr: 0x197E4, symSize: 0x14 }
  - { offset: 0x3C3A3, size: 0x8, addend: 0x0, symName: __ZN4core4iter6traits8iterator8Iterator7collect17h751d345bd55bf4caE, symObjAddr: 0x2638, symBinAddr: 0x197F8, symSize: 0x2C }
  - { offset: 0x3C3E3, size: 0x8, addend: 0x0, symName: __ZN4core4iter6traits8iterator8Iterator7collect17h81e1e513e85e5e4aE, symObjAddr: 0x2664, symBinAddr: 0x19824, symSize: 0x14 }
  - { offset: 0x3C424, size: 0x8, addend: 0x0, symName: __ZN4core4iter6traits8iterator8Iterator7collect17h8b387b375fe4affcE, symObjAddr: 0x2678, symBinAddr: 0x19838, symSize: 0x14 }
  - { offset: 0x3C465, size: 0x8, addend: 0x0, symName: __ZN4core4iter6traits8iterator8Iterator7collect17h8c0d78c4313e27f7E, symObjAddr: 0x268C, symBinAddr: 0x1984C, symSize: 0x14 }
  - { offset: 0x3C4A6, size: 0x8, addend: 0x0, symName: __ZN4core4iter6traits8iterator8Iterator7collect17h968cdd4de07bff93E, symObjAddr: 0x26A0, symBinAddr: 0x19860, symSize: 0x14 }
  - { offset: 0x3C4E7, size: 0x8, addend: 0x0, symName: __ZN4core4iter6traits8iterator8Iterator7collect17hac005b390d69d45dE, symObjAddr: 0x26B4, symBinAddr: 0x19874, symSize: 0x2C }
  - { offset: 0x3C527, size: 0x8, addend: 0x0, symName: __ZN4core4iter6traits8iterator8Iterator7collect17hb0e7079af592869fE, symObjAddr: 0x26E0, symBinAddr: 0x198A0, symSize: 0x2C }
  - { offset: 0x3C567, size: 0x8, addend: 0x0, symName: __ZN4core4iter6traits8iterator8Iterator7collect17hb129cdb80fe3f961E, symObjAddr: 0x270C, symBinAddr: 0x198CC, symSize: 0x14 }
  - { offset: 0x3C5A8, size: 0x8, addend: 0x0, symName: __ZN4core4iter6traits8iterator8Iterator7collect17hb15b3fa9a5c3e55bE, symObjAddr: 0x2720, symBinAddr: 0x198E0, symSize: 0x14 }
  - { offset: 0x3C5E9, size: 0x8, addend: 0x0, symName: __ZN4core4iter6traits8iterator8Iterator7collect17hb857ab0513f017d8E, symObjAddr: 0x2734, symBinAddr: 0x198F4, symSize: 0x14 }
  - { offset: 0x3C62A, size: 0x8, addend: 0x0, symName: __ZN4core4iter6traits8iterator8Iterator7collect17hba3fe05a7bba439aE, symObjAddr: 0x2748, symBinAddr: 0x19908, symSize: 0x14 }
  - { offset: 0x3C66B, size: 0x8, addend: 0x0, symName: __ZN4core4iter6traits8iterator8Iterator7collect17hd4788666652d0cb6E, symObjAddr: 0x275C, symBinAddr: 0x1991C, symSize: 0x2C }
  - { offset: 0x3C6AB, size: 0x8, addend: 0x0, symName: __ZN4core4iter6traits8iterator8Iterator7collect17hd7d0c1ed912dee16E, symObjAddr: 0x2788, symBinAddr: 0x19948, symSize: 0x2C }
  - { offset: 0x3C6EB, size: 0x8, addend: 0x0, symName: __ZN4core4iter6traits8iterator8Iterator7collect17he1bf92807706f238E, symObjAddr: 0x27B4, symBinAddr: 0x19974, symSize: 0x2C }
  - { offset: 0x3C72B, size: 0x8, addend: 0x0, symName: __ZN4core4iter6traits8iterator8Iterator7collect17he46f125591505c94E, symObjAddr: 0x27E0, symBinAddr: 0x199A0, symSize: 0x2C }
  - { offset: 0x3C76B, size: 0x8, addend: 0x0, symName: __ZN4core4iter6traits8iterator8Iterator7collect17he8b8305c7f7e46b0E, symObjAddr: 0x280C, symBinAddr: 0x199CC, symSize: 0x14 }
  - { offset: 0x3C7AC, size: 0x8, addend: 0x0, symName: __ZN4core4iter6traits8iterator8Iterator7collect17he9149e252d8b85c7E, symObjAddr: 0x2820, symBinAddr: 0x199E0, symSize: 0x2C }
  - { offset: 0x3C7EC, size: 0x8, addend: 0x0, symName: __ZN4core4iter6traits8iterator8Iterator8for_each17h28530f2263837c5dE, symObjAddr: 0x284C, symBinAddr: 0x19A0C, symSize: 0x34 }
  - { offset: 0x3C858, size: 0x8, addend: 0x0, symName: __ZN4core4iter6traits8iterator8Iterator8for_each17h44d1440977cb5adeE, symObjAddr: 0x2880, symBinAddr: 0x19A40, symSize: 0x34 }
  - { offset: 0x3C8A3, size: 0x8, addend: 0x0, symName: __ZN4core4iter6traits8iterator8Iterator8for_each17h5348d8d3ef927dc3E, symObjAddr: 0x28B4, symBinAddr: 0x19A74, symSize: 0x44 }
  - { offset: 0x3C90E, size: 0x8, addend: 0x0, symName: __ZN4core4iter6traits8iterator8Iterator8for_each17h621ec92ce1be44caE, symObjAddr: 0x28F8, symBinAddr: 0x19AB8, symSize: 0x44 }
  - { offset: 0x3C979, size: 0x8, addend: 0x0, symName: __ZN4core4iter6traits8iterator8Iterator8for_each17h68fb17c76dd99e10E, symObjAddr: 0x293C, symBinAddr: 0x19AFC, symSize: 0x34 }
  - { offset: 0x3C9E5, size: 0x8, addend: 0x0, symName: __ZN4core4iter6traits8iterator8Iterator8for_each17h9d0d250ef3b90296E, symObjAddr: 0x2970, symBinAddr: 0x19B30, symSize: 0x44 }
  - { offset: 0x3CA50, size: 0x8, addend: 0x0, symName: __ZN4core4iter6traits8iterator8Iterator8for_each17h9ff2232221f336f0E, symObjAddr: 0x29B4, symBinAddr: 0x19B74, symSize: 0x34 }
  - { offset: 0x3CABC, size: 0x8, addend: 0x0, symName: __ZN4core4iter6traits8iterator8Iterator8for_each17ha9af7882306c5ba7E, symObjAddr: 0x29E8, symBinAddr: 0x19BA8, symSize: 0x34 }
  - { offset: 0x3CB07, size: 0x8, addend: 0x0, symName: __ZN4core4iter6traits8iterator8Iterator8for_each17habef9f4fba10bd2eE, symObjAddr: 0x2A1C, symBinAddr: 0x19BDC, symSize: 0x44 }
  - { offset: 0x3CB72, size: 0x8, addend: 0x0, symName: __ZN4core4iter6traits8iterator8Iterator8for_each17hb2945bf4832c9689E, symObjAddr: 0x2A60, symBinAddr: 0x19C20, symSize: 0x44 }
  - { offset: 0x3CBDD, size: 0x8, addend: 0x0, symName: __ZN4core4iter6traits8iterator8Iterator8for_each17hc70b772fa148bc9bE, symObjAddr: 0x2AA4, symBinAddr: 0x19C64, symSize: 0x44 }
  - { offset: 0x3CC48, size: 0x8, addend: 0x0, symName: __ZN4core4iter6traits8iterator8Iterator8for_each17hd4f8a6cce3b76b22E, symObjAddr: 0x2AE8, symBinAddr: 0x19CA8, symSize: 0x34 }
  - { offset: 0x3CC93, size: 0x8, addend: 0x0, symName: __ZN4core4iter6traits8iterator8Iterator8for_each17he70aad19f0bab21dE, symObjAddr: 0x2B1C, symBinAddr: 0x19CDC, symSize: 0x34 }
  - { offset: 0x3CCDE, size: 0x8, addend: 0x0, symName: __ZN4core4iter6traits8iterator8Iterator8for_each17hec94f7c8dea3a87fE, symObjAddr: 0x2B50, symBinAddr: 0x19D10, symSize: 0x44 }
  - { offset: 0x3CD49, size: 0x8, addend: 0x0, symName: __ZN4core4iter6traits8iterator8Iterator8for_each17hefbb9457ca735e98E, symObjAddr: 0x2B94, symBinAddr: 0x19D54, symSize: 0x44 }
  - { offset: 0x3CDB4, size: 0x8, addend: 0x0, symName: __ZN4core4iter6traits8iterator8Iterator8for_each17hf9f1f85cabfad043E, symObjAddr: 0x2BD8, symBinAddr: 0x19D98, symSize: 0x44 }
  - { offset: 0x3CE1F, size: 0x8, addend: 0x0, symName: __ZN4core4iter6traits8iterator8Iterator8for_each17hfb8571838911e6d4E, symObjAddr: 0x2C1C, symBinAddr: 0x19DDC, symSize: 0x44 }
  - { offset: 0x3CE94, size: 0x8, addend: 0x0, symName: '__ZN87_$LT$I$u20$as$u20$core..iter..traits..iterator..Iterator..advance_by..SpecAdvanceBy$GT$15spec_advance_by17hbfaa30b907644ffeE', symObjAddr: 0x422C, symBinAddr: 0x1B3EC, symSize: 0x8C }
  - { offset: 0x3CF42, size: 0x8, addend: 0x0, symName: '__ZN87_$LT$I$u20$as$u20$core..iter..traits..iterator..Iterator..advance_by..SpecAdvanceBy$GT$15spec_advance_by17hdfaf8779b9421f0cE', symObjAddr: 0x42B8, symBinAddr: 0x1B478, symSize: 0x8C }
  - { offset: 0x3CFF0, size: 0x8, addend: 0x0, symName: '__ZN87_$LT$I$u20$as$u20$core..iter..traits..iterator..Iterator..advance_by..SpecAdvanceBy$GT$15spec_advance_by17hfeefb887aefc7912E', symObjAddr: 0x4344, symBinAddr: 0x1B504, symSize: 0x8C }
  - { offset: 0x3D0C7, size: 0x8, addend: 0x0, symName: '__ZN63_$LT$I$u20$as$u20$core..iter..traits..collect..IntoIterator$GT$9into_iter17h0d2998a96c2d7c83E', symObjAddr: 0x3B88, symBinAddr: 0x1AD48, symSize: 0x30 }
  - { offset: 0x3D0FF, size: 0x8, addend: 0x0, symName: '__ZN63_$LT$I$u20$as$u20$core..iter..traits..collect..IntoIterator$GT$9into_iter17h0e8b8aba0ffecb9bE', symObjAddr: 0x3BB8, symBinAddr: 0x1AD78, symSize: 0x1C }
  - { offset: 0x3D136, size: 0x8, addend: 0x0, symName: '__ZN63_$LT$I$u20$as$u20$core..iter..traits..collect..IntoIterator$GT$9into_iter17h0efa86d8bb849166E', symObjAddr: 0x3BD4, symBinAddr: 0x1AD94, symSize: 0x14 }
  - { offset: 0x3D16D, size: 0x8, addend: 0x0, symName: '__ZN63_$LT$I$u20$as$u20$core..iter..traits..collect..IntoIterator$GT$9into_iter17h1acfe08bb5d20bccE', symObjAddr: 0x3BE8, symBinAddr: 0x1ADA8, symSize: 0x30 }
  - { offset: 0x3D1A5, size: 0x8, addend: 0x0, symName: '__ZN63_$LT$I$u20$as$u20$core..iter..traits..collect..IntoIterator$GT$9into_iter17h224c4175ecda171cE', symObjAddr: 0x3C18, symBinAddr: 0x1ADD8, symSize: 0x1C }
  - { offset: 0x3D1DC, size: 0x8, addend: 0x0, symName: '__ZN63_$LT$I$u20$as$u20$core..iter..traits..collect..IntoIterator$GT$9into_iter17h335ee65c7a68fefaE', symObjAddr: 0x3C34, symBinAddr: 0x1ADF4, symSize: 0x1C }
  - { offset: 0x3D213, size: 0x8, addend: 0x0, symName: '__ZN63_$LT$I$u20$as$u20$core..iter..traits..collect..IntoIterator$GT$9into_iter17h345799d39b364105E', symObjAddr: 0x3C50, symBinAddr: 0x1AE10, symSize: 0x30 }
  - { offset: 0x3D24B, size: 0x8, addend: 0x0, symName: '__ZN63_$LT$I$u20$as$u20$core..iter..traits..collect..IntoIterator$GT$9into_iter17h3e947b179a0b3a06E', symObjAddr: 0x3C80, symBinAddr: 0x1AE40, symSize: 0x1C }
  - { offset: 0x3D282, size: 0x8, addend: 0x0, symName: '__ZN63_$LT$I$u20$as$u20$core..iter..traits..collect..IntoIterator$GT$9into_iter17h40810b3de7809216E', symObjAddr: 0x3C9C, symBinAddr: 0x1AE5C, symSize: 0x18 }
  - { offset: 0x3D2B9, size: 0x8, addend: 0x0, symName: '__ZN63_$LT$I$u20$as$u20$core..iter..traits..collect..IntoIterator$GT$9into_iter17h409e3bf4cf885398E', symObjAddr: 0x3CB4, symBinAddr: 0x1AE74, symSize: 0x1C }
  - { offset: 0x3D2F0, size: 0x8, addend: 0x0, symName: '__ZN63_$LT$I$u20$as$u20$core..iter..traits..collect..IntoIterator$GT$9into_iter17h556ac498a25d85b3E', symObjAddr: 0x3CD0, symBinAddr: 0x1AE90, symSize: 0x30 }
  - { offset: 0x3D328, size: 0x8, addend: 0x0, symName: '__ZN63_$LT$I$u20$as$u20$core..iter..traits..collect..IntoIterator$GT$9into_iter17h57d7fb5093609c8aE', symObjAddr: 0x3D00, symBinAddr: 0x1AEC0, symSize: 0x30 }
  - { offset: 0x3D360, size: 0x8, addend: 0x0, symName: '__ZN63_$LT$I$u20$as$u20$core..iter..traits..collect..IntoIterator$GT$9into_iter17h61c537ff9c20a033E', symObjAddr: 0x3D30, symBinAddr: 0x1AEF0, symSize: 0x18 }
  - { offset: 0x3D397, size: 0x8, addend: 0x0, symName: '__ZN63_$LT$I$u20$as$u20$core..iter..traits..collect..IntoIterator$GT$9into_iter17h62317f8979df302fE', symObjAddr: 0x3D48, symBinAddr: 0x1AF08, symSize: 0x30 }
  - { offset: 0x3D3CF, size: 0x8, addend: 0x0, symName: '__ZN63_$LT$I$u20$as$u20$core..iter..traits..collect..IntoIterator$GT$9into_iter17h62eed5e4cf63a7deE', symObjAddr: 0x3D78, symBinAddr: 0x1AF38, symSize: 0x1C }
  - { offset: 0x3D406, size: 0x8, addend: 0x0, symName: '__ZN63_$LT$I$u20$as$u20$core..iter..traits..collect..IntoIterator$GT$9into_iter17h63a178b8cb0fbc24E', symObjAddr: 0x3D94, symBinAddr: 0x1AF54, symSize: 0x1C }
  - { offset: 0x3D43D, size: 0x8, addend: 0x0, symName: '__ZN63_$LT$I$u20$as$u20$core..iter..traits..collect..IntoIterator$GT$9into_iter17h659015fe4b6d60e8E', symObjAddr: 0x3DB0, symBinAddr: 0x1AF70, symSize: 0x1C }
  - { offset: 0x3D474, size: 0x8, addend: 0x0, symName: '__ZN63_$LT$I$u20$as$u20$core..iter..traits..collect..IntoIterator$GT$9into_iter17h6886a3b2cbe24ca4E', symObjAddr: 0x3DCC, symBinAddr: 0x1AF8C, symSize: 0x30 }
  - { offset: 0x3D4AC, size: 0x8, addend: 0x0, symName: '__ZN63_$LT$I$u20$as$u20$core..iter..traits..collect..IntoIterator$GT$9into_iter17h7371cf5b7f9c5339E', symObjAddr: 0x3DFC, symBinAddr: 0x1AFBC, symSize: 0x1C }
  - { offset: 0x3D4E3, size: 0x8, addend: 0x0, symName: '__ZN63_$LT$I$u20$as$u20$core..iter..traits..collect..IntoIterator$GT$9into_iter17h73cd859605061085E', symObjAddr: 0x3E18, symBinAddr: 0x1AFD8, symSize: 0x14 }
  - { offset: 0x3D51A, size: 0x8, addend: 0x0, symName: '__ZN63_$LT$I$u20$as$u20$core..iter..traits..collect..IntoIterator$GT$9into_iter17h79287dae3a1f5b71E', symObjAddr: 0x3E2C, symBinAddr: 0x1AFEC, symSize: 0x30 }
  - { offset: 0x3D552, size: 0x8, addend: 0x0, symName: '__ZN63_$LT$I$u20$as$u20$core..iter..traits..collect..IntoIterator$GT$9into_iter17h7cc143b6c1fe6185E', symObjAddr: 0x3E5C, symBinAddr: 0x1B01C, symSize: 0x30 }
  - { offset: 0x3D58A, size: 0x8, addend: 0x0, symName: '__ZN63_$LT$I$u20$as$u20$core..iter..traits..collect..IntoIterator$GT$9into_iter17h7cd2b7cbbbbd279aE', symObjAddr: 0x3E8C, symBinAddr: 0x1B04C, symSize: 0x14 }
  - { offset: 0x3D5C1, size: 0x8, addend: 0x0, symName: '__ZN63_$LT$I$u20$as$u20$core..iter..traits..collect..IntoIterator$GT$9into_iter17h7d406b8c8c949ee1E', symObjAddr: 0x3EA0, symBinAddr: 0x1B060, symSize: 0x30 }
  - { offset: 0x3D5F9, size: 0x8, addend: 0x0, symName: '__ZN63_$LT$I$u20$as$u20$core..iter..traits..collect..IntoIterator$GT$9into_iter17h7fc470dd793d16dfE', symObjAddr: 0x3ED0, symBinAddr: 0x1B090, symSize: 0x30 }
  - { offset: 0x3D631, size: 0x8, addend: 0x0, symName: '__ZN63_$LT$I$u20$as$u20$core..iter..traits..collect..IntoIterator$GT$9into_iter17h829d0a239a7898c5E', symObjAddr: 0x3F00, symBinAddr: 0x1B0C0, symSize: 0x1C }
  - { offset: 0x3D668, size: 0x8, addend: 0x0, symName: '__ZN63_$LT$I$u20$as$u20$core..iter..traits..collect..IntoIterator$GT$9into_iter17h8501f0f84ec04cf1E', symObjAddr: 0x3F1C, symBinAddr: 0x1B0DC, symSize: 0x18 }
  - { offset: 0x3D69F, size: 0x8, addend: 0x0, symName: '__ZN63_$LT$I$u20$as$u20$core..iter..traits..collect..IntoIterator$GT$9into_iter17h8c749b237761be31E', symObjAddr: 0x3F34, symBinAddr: 0x1B0F4, symSize: 0x30 }
  - { offset: 0x3D6D7, size: 0x8, addend: 0x0, symName: '__ZN63_$LT$I$u20$as$u20$core..iter..traits..collect..IntoIterator$GT$9into_iter17h8ffedc35d50ef739E', symObjAddr: 0x3F64, symBinAddr: 0x1B124, symSize: 0x1C }
  - { offset: 0x3D70E, size: 0x8, addend: 0x0, symName: '__ZN63_$LT$I$u20$as$u20$core..iter..traits..collect..IntoIterator$GT$9into_iter17h93c24e20dd543fd1E', symObjAddr: 0x3F80, symBinAddr: 0x1B140, symSize: 0x1C }
  - { offset: 0x3D745, size: 0x8, addend: 0x0, symName: '__ZN63_$LT$I$u20$as$u20$core..iter..traits..collect..IntoIterator$GT$9into_iter17h95dc159ba6251e56E', symObjAddr: 0x3F9C, symBinAddr: 0x1B15C, symSize: 0x30 }
  - { offset: 0x3D77D, size: 0x8, addend: 0x0, symName: '__ZN63_$LT$I$u20$as$u20$core..iter..traits..collect..IntoIterator$GT$9into_iter17ha92ba6e9fb137c99E', symObjAddr: 0x3FCC, symBinAddr: 0x1B18C, symSize: 0x18 }
  - { offset: 0x3D7B4, size: 0x8, addend: 0x0, symName: '__ZN63_$LT$I$u20$as$u20$core..iter..traits..collect..IntoIterator$GT$9into_iter17had8afd4db741acbfE', symObjAddr: 0x3FE4, symBinAddr: 0x1B1A4, symSize: 0x1C }
  - { offset: 0x3D7EB, size: 0x8, addend: 0x0, symName: '__ZN63_$LT$I$u20$as$u20$core..iter..traits..collect..IntoIterator$GT$9into_iter17hbd337241cd9e77f0E', symObjAddr: 0x4000, symBinAddr: 0x1B1C0, symSize: 0x30 }
  - { offset: 0x3D823, size: 0x8, addend: 0x0, symName: '__ZN63_$LT$I$u20$as$u20$core..iter..traits..collect..IntoIterator$GT$9into_iter17hcb0099aba907a9c4E', symObjAddr: 0x4030, symBinAddr: 0x1B1F0, symSize: 0x14 }
  - { offset: 0x3D85A, size: 0x8, addend: 0x0, symName: '__ZN63_$LT$I$u20$as$u20$core..iter..traits..collect..IntoIterator$GT$9into_iter17hce2db626b17f699aE', symObjAddr: 0x4044, symBinAddr: 0x1B204, symSize: 0x1C }
  - { offset: 0x3D891, size: 0x8, addend: 0x0, symName: '__ZN63_$LT$I$u20$as$u20$core..iter..traits..collect..IntoIterator$GT$9into_iter17hde4588e27b5f0809E', symObjAddr: 0x4060, symBinAddr: 0x1B220, symSize: 0x1C }
  - { offset: 0x3D8C8, size: 0x8, addend: 0x0, symName: '__ZN63_$LT$I$u20$as$u20$core..iter..traits..collect..IntoIterator$GT$9into_iter17he232bc3b26d235bdE', symObjAddr: 0x407C, symBinAddr: 0x1B23C, symSize: 0x1C }
  - { offset: 0x3D8FF, size: 0x8, addend: 0x0, symName: '__ZN63_$LT$I$u20$as$u20$core..iter..traits..collect..IntoIterator$GT$9into_iter17he6c07b12e133c6adE', symObjAddr: 0x4098, symBinAddr: 0x1B258, symSize: 0x14 }
  - { offset: 0x3D936, size: 0x8, addend: 0x0, symName: '__ZN63_$LT$I$u20$as$u20$core..iter..traits..collect..IntoIterator$GT$9into_iter17he95a93f830697fd8E', symObjAddr: 0x40AC, symBinAddr: 0x1B26C, symSize: 0x30 }
  - { offset: 0x3D96E, size: 0x8, addend: 0x0, symName: '__ZN63_$LT$I$u20$as$u20$core..iter..traits..collect..IntoIterator$GT$9into_iter17hef6d894af91d5894E', symObjAddr: 0x40DC, symBinAddr: 0x1B29C, symSize: 0x18 }
  - { offset: 0x3D9A5, size: 0x8, addend: 0x0, symName: '__ZN63_$LT$I$u20$as$u20$core..iter..traits..collect..IntoIterator$GT$9into_iter17hf2369226eb69d49bE', symObjAddr: 0x40F4, symBinAddr: 0x1B2B4, symSize: 0x30 }
  - { offset: 0x3D9DD, size: 0x8, addend: 0x0, symName: '__ZN63_$LT$I$u20$as$u20$core..iter..traits..collect..IntoIterator$GT$9into_iter17hf2dfdf09c11ab826E', symObjAddr: 0x4124, symBinAddr: 0x1B2E4, symSize: 0x1C }
  - { offset: 0x3DA14, size: 0x8, addend: 0x0, symName: '__ZN63_$LT$I$u20$as$u20$core..iter..traits..collect..IntoIterator$GT$9into_iter17hf3162f267afe9ee6E', symObjAddr: 0x4140, symBinAddr: 0x1B300, symSize: 0x1C }
  - { offset: 0x3DA4B, size: 0x8, addend: 0x0, symName: '__ZN63_$LT$I$u20$as$u20$core..iter..traits..collect..IntoIterator$GT$9into_iter17hf6db0965daf68fb5E', symObjAddr: 0x415C, symBinAddr: 0x1B31C, symSize: 0x18 }
  - { offset: 0x41054, size: 0x8, addend: 0x0, symName: '__ZN83_$LT$I$u20$as$u20$alloc..vec..in_place_collect..SpecInPlaceCollect$LT$T$C$I$GT$$GT$16collect_in_place17h88ac9c85747a5b2cE', symObjAddr: 0x4174, symBinAddr: 0x1B334, symSize: 0xB8 }
  - { offset: 0x43610, size: 0x8, addend: 0x0, symName: __ZN3std2io5error14repr_bitpacked4Repr10new_simple17h539850892b03b499E, symObjAddr: 0x0, symBinAddr: 0x1B5B4, symSize: 0x6C }
  - { offset: 0x43B60, size: 0x8, addend: 0x0, symName: __ZN3std2io5error14repr_bitpacked4Repr10new_simple17h539850892b03b499E, symObjAddr: 0x0, symBinAddr: 0x1B5B4, symSize: 0x6C }
  - { offset: 0x43BE8, size: 0x8, addend: 0x0, symName: '__ZN3std3sys12thread_local6native5eager16Storage$LT$T$GT$10initialize17h01202307face0981E', symObjAddr: 0x0, symBinAddr: 0x38A624, symSize: 0x54 }
  - { offset: 0x43C92, size: 0x8, addend: 0x0, symName: __ZN3std3sys12thread_local6native5eager7destroy17h24784e97706e3c3fE, symObjAddr: 0xC4, symBinAddr: 0x1B690, symSize: 0x30 }
  - { offset: 0x43CC8, size: 0x8, addend: 0x0, symName: '__ZN3std3sys12thread_local6native5eager7destroy28_$u7b$$u7b$closure$u7d$$u7d$17hf66566c18cb601acE', symObjAddr: 0xF4, symBinAddr: 0x1B6C0, symSize: 0x40 }
  - { offset: 0x442E6, size: 0x8, addend: 0x0, symName: '__ZN3std3sys12thread_local6native5eager16Storage$LT$T$GT$10initialize17h01202307face0981E', symObjAddr: 0x0, symBinAddr: 0x38A624, symSize: 0x54 }
  - { offset: 0x443A3, size: 0x8, addend: 0x0, symName: '__ZN3std3sys12thread_local6native5eager16Storage$LT$T$GT$3get17h83123702e87d6cc4E', symObjAddr: 0x54, symBinAddr: 0x1B620, symSize: 0x70 }
  - { offset: 0x444A0, size: 0x8, addend: 0x0, symName: __ZN10rayon_core5latch9CoreLatch3new17hd50fffb8c3687159E, symObjAddr: 0x0, symBinAddr: 0x1B700, symSize: 0x38 }
  - { offset: 0x4502B, size: 0x8, addend: 0x0, symName: '__ZN73_$LT$rayon_core..latch..LockLatch$u20$as$u20$rayon_core..latch..Latch$GT$3set17hed9349e1f3a3a932E', symObjAddr: 0x1CC, symBinAddr: 0x1B8CC, symSize: 0x1BC }
  - { offset: 0x450AA, size: 0x8, addend: 0x0, symName: '__ZN73_$LT$rayon_core..latch..SpinLatch$u20$as$u20$rayon_core..latch..Latch$GT$3set17h3cee9e753516cb01E', symObjAddr: 0x388, symBinAddr: 0x1BA88, symSize: 0x298 }
  - { offset: 0x452C1, size: 0x8, addend: 0x0, symName: __ZN10rayon_core5latch9CoreLatch3new17hd50fffb8c3687159E, symObjAddr: 0x0, symBinAddr: 0x1B700, symSize: 0x38 }
  - { offset: 0x452E1, size: 0x8, addend: 0x0, symName: __ZN10rayon_core5latch9CoreLatch3set17hf08c65e1bd3c6613E, symObjAddr: 0x38, symBinAddr: 0x1B738, symSize: 0x84 }
  - { offset: 0x4532D, size: 0x8, addend: 0x0, symName: __ZN10rayon_core5latch9CoreLatch5probe17hacb8c7d35f9218c5E, symObjAddr: 0xBC, symBinAddr: 0x1B7BC, symSize: 0x30 }
  - { offset: 0x457C1, size: 0x8, addend: 0x0, symName: __ZN10rayon_core5latch9SpinLatch3new17hc938faecfe5d14c7E, symObjAddr: 0xEC, symBinAddr: 0x1B7EC, symSize: 0x6C }
  - { offset: 0x457E3, size: 0x8, addend: 0x0, symName: __ZN10rayon_core5latch9SpinLatch5cross17h711b3e8f77feae08E, symObjAddr: 0x158, symBinAddr: 0x1B858, symSize: 0x50 }
  - { offset: 0x45812, size: 0x8, addend: 0x0, symName: __ZN10rayon_core5latch9SpinLatch5probe17h827c042159ae7beaE, symObjAddr: 0x1A8, symBinAddr: 0x1B8A8, symSize: 0x24 }
  - { offset: 0x45915, size: 0x8, addend: 0x0, symName: __ZN3std3sys12thread_local20abort_on_dtor_unwind17h9cf4bd1988e17fa7E, symObjAddr: 0x0, symBinAddr: 0x1BD20, symSize: 0x50 }
  - { offset: 0x4613B, size: 0x8, addend: 0x0, symName: '__ZN4core3ptr7mut_ptr31_$LT$impl$u20$$BP$mut$u20$T$GT$7is_null17h6dcead07b81f5833E', symObjAddr: 0xA0, symBinAddr: 0x1BDC0, symSize: 0x18 }
  - { offset: 0x46AF5, size: 0x8, addend: 0x0, symName: __ZN3std3sys12thread_local20abort_on_dtor_unwind17h9cf4bd1988e17fa7E, symObjAddr: 0x0, symBinAddr: 0x1BD20, symSize: 0x50 }
  - { offset: 0x46B43, size: 0x8, addend: 0x0, symName: __ZN3std3sys12thread_local20abort_on_dtor_unwind17ha10055eddbf15837E, symObjAddr: 0x50, symBinAddr: 0x1BD70, symSize: 0x50 }
  - { offset: 0x46D35, size: 0x8, addend: 0x0, symName: __ZN4pyo36marker6Python19assume_gil_acquired17h24010db8dd3270f0E, symObjAddr: 0xB8, symBinAddr: 0x1BDD8, symSize: 0x4 }
  - { offset: 0x4719F, size: 0x8, addend: 0x0, symName: __ZN4pyo36marker6Python4None17h60d8927d2e45a2a5E, symObjAddr: 0xBC, symBinAddr: 0x1BDDC, symSize: 0x20 }
  - { offset: 0x47206, size: 0x8, addend: 0x0, symName: '__ZN4pyo311conversions3std6string119_$LT$impl$u20$pyo3..conversion..IntoPy$LT$pyo3..instance..Py$LT$pyo3..types..any..PyAny$GT$$GT$$u20$for$u20$$RF$str$GT$7into_py17hd7b969aaa5a5e5fdE', symObjAddr: 0x0, symBinAddr: 0x1BDFC, symSize: 0x34 }
  - { offset: 0x484C0, size: 0x8, addend: 0x0, symName: '__ZN4pyo311conversions3std6string119_$LT$impl$u20$pyo3..conversion..IntoPy$LT$pyo3..instance..Py$LT$pyo3..types..any..PyAny$GT$$GT$$u20$for$u20$$RF$str$GT$7into_py17hd7b969aaa5a5e5fdE', symObjAddr: 0x0, symBinAddr: 0x1BDFC, symSize: 0x34 }
  - { offset: 0x4850B, size: 0x8, addend: 0x0, symName: '__ZN4pyo311conversions3std6string125_$LT$impl$u20$pyo3..conversion..IntoPy$LT$pyo3..instance..Py$LT$pyo3..types..string..PyString$GT$$GT$$u20$for$u20$$RF$str$GT$7into_py17h486fa1b63e24bc77E', symObjAddr: 0x34, symBinAddr: 0x1BE30, symSize: 0x34 }
  - { offset: 0x4855E, size: 0x8, addend: 0x0, symName: __ZN4pyo311type_object10PyTypeInfo17type_object_bound17h238ea087d8df1962E, symObjAddr: 0x68, symBinAddr: 0x1BE64, symSize: 0x30 }
  - { offset: 0x485AA, size: 0x8, addend: 0x0, symName: '__ZN57_$LT$T$u20$as$u20$pyo3..conversion..FromPyObjectBound$GT$20from_py_object_bound17h617cc78d7a033f99E', symObjAddr: 0x98, symBinAddr: 0x1BE94, symSize: 0x34 }
  - { offset: 0x485F7, size: 0x8, addend: 0x0, symName: '__ZN73_$LT$pyo3..types..any..PyAny$u20$as$u20$pyo3..type_object..PyTypeInfo$GT$15type_object_raw28_$u7b$$u7b$closure$u7d$$u7d$17h8e887908cdec7fdaE', symObjAddr: 0xCC, symBinAddr: 0x1BEC8, symSize: 0x18 }
  - { offset: 0x48E21, size: 0x8, addend: 0x0, symName: '__ZN118_$LT$digest..core_api..ct_variable..CtVariableCoreWrapper$LT$T$C$OutSize$C$O$GT$$u20$as$u20$core..default..Default$GT$7default17h2c2b8506b1ded1fdE', symObjAddr: 0x0, symBinAddr: 0x1BEE0, symSize: 0xAC }
  - { offset: 0x48E58, size: 0x8, addend: 0x0, symName: '__ZN118_$LT$digest..core_api..ct_variable..CtVariableCoreWrapper$LT$T$C$OutSize$C$O$GT$$u20$as$u20$core..default..Default$GT$7default17h2c2b8506b1ded1fdE', symObjAddr: 0x0, symBinAddr: 0x1BEE0, symSize: 0xAC }
  - { offset: 0x48ECF, size: 0x8, addend: 0x0, symName: '__ZN124_$LT$digest..core_api..ct_variable..CtVariableCoreWrapper$LT$T$C$OutSize$C$O$GT$$u20$as$u20$digest..core_api..UpdateCore$GT$13update_blocks17hab32e5bbe1ead5e4E', symObjAddr: 0xAC, symBinAddr: 0x1BF8C, symSize: 0x30 }
  - { offset: 0x48F26, size: 0x8, addend: 0x0, symName: '__ZN129_$LT$digest..core_api..ct_variable..CtVariableCoreWrapper$LT$T$C$OutSize$C$O$GT$$u20$as$u20$digest..core_api..FixedOutputCore$GT$19finalize_fixed_core17h56b1f922ad1f9891E', symObjAddr: 0xDC, symBinAddr: 0x1BFBC, symSize: 0x21C }
  - { offset: 0x49AC6, size: 0x8, addend: 0x0, symName: _PyInit__core, symObjAddr: 0x0, symBinAddr: 0x1C1D8, symSize: 0x34 }
  - { offset: 0x49AF0, size: 0x8, addend: 0x0, symName: __ZN5_core6python5_core9_PYO3_DEF17h1d137b36a433b30fE, symObjAddr: 0x110, symBinAddr: 0x4D0680, symSize: 0x0 }
  - { offset: 0x49AFD, size: 0x8, addend: 0x0, symName: _PyInit__core, symObjAddr: 0x0, symBinAddr: 0x1C1D8, symSize: 0x34 }
  - { offset: 0x4AACC, size: 0x8, addend: 0x0, symName: '__ZN4core5array4iter94_$LT$impl$u20$core..iter..traits..collect..IntoIterator$u20$for$u20$$u5b$T$u3b$$u20$N$u5d$$GT$9into_iter17hc9110a48bf1cdd4cE', symObjAddr: 0x38, symBinAddr: 0x1C20C, symSize: 0x90 }
  - { offset: 0x4AB30, size: 0x8, addend: 0x0, symName: '__ZN99_$LT$core..array..iter..IntoIter$LT$T$C$_$GT$$u20$as$u20$core..iter..traits..iterator..Iterator$GT$4next17hf2cf951ae7c17405E', symObjAddr: 0xC8, symBinAddr: 0x1C29C, symSize: 0x2C }
  - { offset: 0x4B9D6, size: 0x8, addend: 0x0, symName: __ZN4pyo37pyclass18create_type_object18create_type_object17h0ebfffbdbf3d207bE, symObjAddr: 0x0, symBinAddr: 0x1C2C8, symSize: 0x164 }
  - { offset: 0x4CF6C, size: 0x8, addend: 0x0, symName: __ZN4pyo37pyclass18create_type_object18create_type_object17h0ebfffbdbf3d207bE, symObjAddr: 0x0, symBinAddr: 0x1C2C8, symSize: 0x164 }
  - { offset: 0x4CFCC, size: 0x8, addend: 0x0, symName: __ZN4pyo37pyclass18create_type_object18create_type_object17h1a1d0f9bfc8a49c1E, symObjAddr: 0x164, symBinAddr: 0x1C42C, symSize: 0x164 }
  - { offset: 0x4D02C, size: 0x8, addend: 0x0, symName: __ZN4pyo37pyclass18create_type_object18create_type_object17h61cc7e6e63c8b9bbE, symObjAddr: 0x2C8, symBinAddr: 0x1C590, symSize: 0x164 }
  - { offset: 0x4D08C, size: 0x8, addend: 0x0, symName: __ZN4pyo37pyclass18create_type_object18create_type_object17hbabc0f08f0ac4639E, symObjAddr: 0x42C, symBinAddr: 0x1C6F4, symSize: 0x164 }
  - { offset: 0x4DF79, size: 0x8, addend: 0x0, symName: __ZN3std4sync4once4Once15call_once_force17h6dfb01ea2ac556caE, symObjAddr: 0x0, symBinAddr: 0x1C858, symSize: 0xF4 }
  - { offset: 0x4DFAD, size: 0x8, addend: 0x0, symName: '__ZN3std4sync4once4Once15call_once_force28_$u7b$$u7b$closure$u7d$$u7d$17h318caa2b16b2cdd5E', symObjAddr: 0xF4, symBinAddr: 0x1C94C, symSize: 0x94 }
  - { offset: 0x4E534, size: 0x8, addend: 0x0, symName: __ZN3std4sync4once4Once15call_once_force17h6dfb01ea2ac556caE, symObjAddr: 0x0, symBinAddr: 0x1C858, symSize: 0xF4 }
  - { offset: 0x4E68A, size: 0x8, addend: 0x0, symName: '__ZN4core3ptr7mut_ptr31_$LT$impl$u20$$BP$mut$u20$T$GT$6offset18precondition_check17hcaab7721bd109a3dE', symObjAddr: 0x0, symBinAddr: 0x1C9E0, symSize: 0xC4 }
  - { offset: 0x4E740, size: 0x8, addend: 0x0, symName: '__ZN4core3ptr7mut_ptr31_$LT$impl$u20$$BP$mut$u20$T$GT$6offset18precondition_check17hcaab7721bd109a3dE', symObjAddr: 0x0, symBinAddr: 0x1C9E0, symSize: 0xC4 }
  - { offset: 0x4EB33, size: 0x8, addend: 0x0, symName: __ZN5rayon4iter16ParallelIterator3map17h47610da264fa83baE, symObjAddr: 0x0, symBinAddr: 0x1CAA4, symSize: 0x5C }
  - { offset: 0x50AF5, size: 0x8, addend: 0x0, symName: __ZN5rayon4iter16ParallelIterator3map17h47610da264fa83baE, symObjAddr: 0x0, symBinAddr: 0x1CAA4, symSize: 0x5C }
  - { offset: 0x50B4E, size: 0x8, addend: 0x0, symName: __ZN5rayon4iter16ParallelIterator3map17h860f4c9952977641E, symObjAddr: 0x5C, symBinAddr: 0x1CB00, symSize: 0x5C }
  - { offset: 0x50BA7, size: 0x8, addend: 0x0, symName: __ZN5rayon4iter16ParallelIterator3map17ha8c83b549d7f463eE, symObjAddr: 0xB8, symBinAddr: 0x1CB5C, symSize: 0x5C }
  - { offset: 0x50C00, size: 0x8, addend: 0x0, symName: __ZN5rayon4iter16ParallelIterator3map17hf03f397a938b14aeE, symObjAddr: 0x114, symBinAddr: 0x1CBB8, symSize: 0x5C }
  - { offset: 0x50C59, size: 0x8, addend: 0x0, symName: __ZN5rayon4iter16ParallelIterator8for_each17h0fff1f3b8f550a11E, symObjAddr: 0x170, symBinAddr: 0x1CC14, symSize: 0x44 }
  - { offset: 0x50CA5, size: 0x8, addend: 0x0, symName: __ZN5rayon4iter16ParallelIterator8for_each17h4cbbec1dee0caee1E, symObjAddr: 0x1B4, symBinAddr: 0x1CC58, symSize: 0x44 }
  - { offset: 0x50CF1, size: 0x8, addend: 0x0, symName: __ZN5rayon4iter16ParallelIterator8for_each17hb0c80e635f1bd427E, symObjAddr: 0x1F8, symBinAddr: 0x1CC9C, symSize: 0x44 }
  - { offset: 0x50D3D, size: 0x8, addend: 0x0, symName: __ZN5rayon4iter16ParallelIterator8for_each17hb9fad559232fc5cfE, symObjAddr: 0x23C, symBinAddr: 0x1CCE0, symSize: 0x44 }
  - { offset: 0x50D94, size: 0x8, addend: 0x0, symName: __ZN5rayon4iter8plumbing8Producer7max_len17h29e43deef8670918E, symObjAddr: 0x280, symBinAddr: 0x1CD24, symSize: 0x14 }
  - { offset: 0x50DC9, size: 0x8, addend: 0x0, symName: __ZN5rayon4iter8plumbing8Producer7max_len17h4cba1fc2b9573cc8E, symObjAddr: 0x294, symBinAddr: 0x1CD38, symSize: 0x14 }
  - { offset: 0x50DFE, size: 0x8, addend: 0x0, symName: __ZN5rayon4iter8plumbing8Producer7min_len17h173e5ea61ca072ebE, symObjAddr: 0x2A8, symBinAddr: 0x1CD4C, symSize: 0x18 }
  - { offset: 0x50E33, size: 0x8, addend: 0x0, symName: __ZN5rayon4iter8plumbing8Producer7min_len17heb70ef88235ecca3E, symObjAddr: 0x2C0, symBinAddr: 0x1CD64, symSize: 0x18 }
  - { offset: 0x50E68, size: 0x8, addend: 0x0, symName: __ZN5rayon4iter8plumbing8Producer9fold_with17h08ef071b2fc3f8f5E, symObjAddr: 0x2D8, symBinAddr: 0x1CD7C, symSize: 0xBC }
  - { offset: 0x50EB5, size: 0x8, addend: 0x0, symName: __ZN5rayon4iter8plumbing8Producer9fold_with17h1f5253fa6f14afeeE, symObjAddr: 0x394, symBinAddr: 0x1CE38, symSize: 0xBC }
  - { offset: 0x50F02, size: 0x8, addend: 0x0, symName: __ZN5rayon4iter8plumbing8Producer9fold_with17h3338e88ec577ee8dE, symObjAddr: 0x450, symBinAddr: 0x1CEF4, symSize: 0x94 }
  - { offset: 0x50F4E, size: 0x8, addend: 0x0, symName: __ZN5rayon4iter8plumbing8Producer9fold_with17h43f6eaddab0ed292E, symObjAddr: 0x4E4, symBinAddr: 0x1CF88, symSize: 0xBC }
  - { offset: 0x50F9B, size: 0x8, addend: 0x0, symName: __ZN5rayon4iter8plumbing8Producer9fold_with17h866522ca04ae7adbE, symObjAddr: 0x5A0, symBinAddr: 0x1D044, symSize: 0xBC }
  - { offset: 0x50FE8, size: 0x8, addend: 0x0, symName: __ZN5rayon4iter8plumbing8Producer9fold_with17h95adbad6b25a2e54E, symObjAddr: 0x65C, symBinAddr: 0x1D100, symSize: 0x94 }
  - { offset: 0x51034, size: 0x8, addend: 0x0, symName: __ZN5rayon4iter8plumbing8Producer9fold_with17ha1d47e38db927fd5E, symObjAddr: 0x6F0, symBinAddr: 0x1D194, symSize: 0x94 }
  - { offset: 0x51080, size: 0x8, addend: 0x0, symName: __ZN5rayon4iter8plumbing8Producer9fold_with17hc357436338d92b0cE, symObjAddr: 0x784, symBinAddr: 0x1D228, symSize: 0xBC }
  - { offset: 0x510CD, size: 0x8, addend: 0x0, symName: __ZN5rayon4iter8plumbing8Producer9fold_with17hcaf12917dce2d6c4E, symObjAddr: 0x840, symBinAddr: 0x1D2E4, symSize: 0xBC }
  - { offset: 0x5111A, size: 0x8, addend: 0x0, symName: __ZN5rayon4iter8plumbing8Producer9fold_with17hd99872d522a43055E, symObjAddr: 0x8FC, symBinAddr: 0x1D3A0, symSize: 0xBC }
  - { offset: 0x51167, size: 0x8, addend: 0x0, symName: __ZN5rayon4iter8plumbing8Producer9fold_with17hdc1b8a7adf67f245E, symObjAddr: 0x9B8, symBinAddr: 0x1D45C, symSize: 0x94 }
  - { offset: 0x511B3, size: 0x8, addend: 0x0, symName: __ZN5rayon4iter8plumbing8Producer9fold_with17he2148b27936addddE, symObjAddr: 0xA4C, symBinAddr: 0x1D4F0, symSize: 0xBC }
  - { offset: 0x51AB5, size: 0x8, addend: 0x0, symName: '__ZN77_$LT$rayon..slice..Iter$LT$T$GT$$u20$as$u20$rayon..iter..ParallelIterator$GT$15drive_unindexed17h0abeaec1ed9a0ac5E', symObjAddr: 0xB08, symBinAddr: 0x1D5AC, symSize: 0x30 }
  - { offset: 0x51B00, size: 0x8, addend: 0x0, symName: '__ZN77_$LT$rayon..slice..Iter$LT$T$GT$$u20$as$u20$rayon..iter..ParallelIterator$GT$15drive_unindexed17h0c150ef0614cf758E', symObjAddr: 0xB38, symBinAddr: 0x1D5DC, symSize: 0x40 }
  - { offset: 0x51B50, size: 0x8, addend: 0x0, symName: '__ZN77_$LT$rayon..slice..Iter$LT$T$GT$$u20$as$u20$rayon..iter..ParallelIterator$GT$15drive_unindexed17h343e6c1d3e12679eE', symObjAddr: 0xB78, symBinAddr: 0x1D61C, symSize: 0x5C }
  - { offset: 0x51BA0, size: 0x8, addend: 0x0, symName: '__ZN77_$LT$rayon..slice..Iter$LT$T$GT$$u20$as$u20$rayon..iter..ParallelIterator$GT$15drive_unindexed17h4acee9f82c2dfa24E', symObjAddr: 0xBD4, symBinAddr: 0x1D678, symSize: 0x30 }
  - { offset: 0x51BEB, size: 0x8, addend: 0x0, symName: '__ZN77_$LT$rayon..slice..Iter$LT$T$GT$$u20$as$u20$rayon..iter..ParallelIterator$GT$15drive_unindexed17h5b50fbb1cb2b1b1fE', symObjAddr: 0xC04, symBinAddr: 0x1D6A8, symSize: 0x5C }
  - { offset: 0x51C3B, size: 0x8, addend: 0x0, symName: '__ZN77_$LT$rayon..slice..Iter$LT$T$GT$$u20$as$u20$rayon..iter..ParallelIterator$GT$15drive_unindexed17h702d1cde63bc99bbE', symObjAddr: 0xC60, symBinAddr: 0x1D704, symSize: 0x5C }
  - { offset: 0x51C8B, size: 0x8, addend: 0x0, symName: '__ZN77_$LT$rayon..slice..Iter$LT$T$GT$$u20$as$u20$rayon..iter..ParallelIterator$GT$15drive_unindexed17h92fec94716ed45feE', symObjAddr: 0xCBC, symBinAddr: 0x1D760, symSize: 0x40 }
  - { offset: 0x51CDB, size: 0x8, addend: 0x0, symName: '__ZN77_$LT$rayon..slice..Iter$LT$T$GT$$u20$as$u20$rayon..iter..ParallelIterator$GT$15drive_unindexed17ha821325e8734a9bbE', symObjAddr: 0xCFC, symBinAddr: 0x1D7A0, symSize: 0x40 }
  - { offset: 0x51D2B, size: 0x8, addend: 0x0, symName: '__ZN77_$LT$rayon..slice..Iter$LT$T$GT$$u20$as$u20$rayon..iter..ParallelIterator$GT$15drive_unindexed17hc2698d340b462e6cE', symObjAddr: 0xD3C, symBinAddr: 0x1D7E0, symSize: 0x30 }
  - { offset: 0x51D76, size: 0x8, addend: 0x0, symName: '__ZN77_$LT$rayon..slice..Iter$LT$T$GT$$u20$as$u20$rayon..iter..ParallelIterator$GT$15drive_unindexed17hcf1c27aee1644d14E', symObjAddr: 0xD6C, symBinAddr: 0x1D810, symSize: 0x5C }
  - { offset: 0x51DC6, size: 0x8, addend: 0x0, symName: '__ZN77_$LT$rayon..slice..Iter$LT$T$GT$$u20$as$u20$rayon..iter..ParallelIterator$GT$15drive_unindexed17hf83e9e2ed95b9d9eE', symObjAddr: 0xDC8, symBinAddr: 0x1D86C, symSize: 0x40 }
  - { offset: 0x51E16, size: 0x8, addend: 0x0, symName: '__ZN77_$LT$rayon..slice..Iter$LT$T$GT$$u20$as$u20$rayon..iter..ParallelIterator$GT$15drive_unindexed17hfaf99e5636180583E', symObjAddr: 0xE08, symBinAddr: 0x1D8AC, symSize: 0x30 }
  - { offset: 0x51E67, size: 0x8, addend: 0x0, symName: '__ZN84_$LT$rayon..slice..Iter$LT$T$GT$$u20$as$u20$rayon..iter..IndexedParallelIterator$GT$13with_producer17h0ae272d3622d5b1aE', symObjAddr: 0xE38, symBinAddr: 0x1D8DC, symSize: 0x54 }
  - { offset: 0x51EB7, size: 0x8, addend: 0x0, symName: '__ZN84_$LT$rayon..slice..Iter$LT$T$GT$$u20$as$u20$rayon..iter..IndexedParallelIterator$GT$13with_producer17h12aadf3ab6506c15E', symObjAddr: 0xE8C, symBinAddr: 0x1D930, symSize: 0x54 }
  - { offset: 0x51F07, size: 0x8, addend: 0x0, symName: '__ZN84_$LT$rayon..slice..Iter$LT$T$GT$$u20$as$u20$rayon..iter..IndexedParallelIterator$GT$13with_producer17h24a3c38398c30abfE', symObjAddr: 0xEE0, symBinAddr: 0x1D984, symSize: 0x4C }
  - { offset: 0x51F52, size: 0x8, addend: 0x0, symName: '__ZN84_$LT$rayon..slice..Iter$LT$T$GT$$u20$as$u20$rayon..iter..IndexedParallelIterator$GT$13with_producer17h27a0de2c318ab84dE', symObjAddr: 0xF2C, symBinAddr: 0x1D9D0, symSize: 0x5C }
  - { offset: 0x51FA2, size: 0x8, addend: 0x0, symName: '__ZN84_$LT$rayon..slice..Iter$LT$T$GT$$u20$as$u20$rayon..iter..IndexedParallelIterator$GT$13with_producer17h3832a0527f354784E', symObjAddr: 0xF88, symBinAddr: 0x1DA2C, symSize: 0x4C }
  - { offset: 0x51FED, size: 0x8, addend: 0x0, symName: '__ZN84_$LT$rayon..slice..Iter$LT$T$GT$$u20$as$u20$rayon..iter..IndexedParallelIterator$GT$13with_producer17h4b248597ec0c930aE', symObjAddr: 0xFD4, symBinAddr: 0x1DA78, symSize: 0x5C }
  - { offset: 0x5203D, size: 0x8, addend: 0x0, symName: '__ZN84_$LT$rayon..slice..Iter$LT$T$GT$$u20$as$u20$rayon..iter..IndexedParallelIterator$GT$13with_producer17h5199cd009a71eacdE', symObjAddr: 0x1030, symBinAddr: 0x1DAD4, symSize: 0x5C }
  - { offset: 0x5208D, size: 0x8, addend: 0x0, symName: '__ZN84_$LT$rayon..slice..Iter$LT$T$GT$$u20$as$u20$rayon..iter..IndexedParallelIterator$GT$13with_producer17h7593e460c9422677E', symObjAddr: 0x108C, symBinAddr: 0x1DB30, symSize: 0x4C }
  - { offset: 0x520D8, size: 0x8, addend: 0x0, symName: '__ZN84_$LT$rayon..slice..Iter$LT$T$GT$$u20$as$u20$rayon..iter..IndexedParallelIterator$GT$13with_producer17hbd42080ba4c5231eE', symObjAddr: 0x10D8, symBinAddr: 0x1DB7C, symSize: 0x54 }
  - { offset: 0x52128, size: 0x8, addend: 0x0, symName: '__ZN84_$LT$rayon..slice..Iter$LT$T$GT$$u20$as$u20$rayon..iter..IndexedParallelIterator$GT$13with_producer17hc01a173921418504E', symObjAddr: 0x112C, symBinAddr: 0x1DBD0, symSize: 0x4C }
  - { offset: 0x52173, size: 0x8, addend: 0x0, symName: '__ZN84_$LT$rayon..slice..Iter$LT$T$GT$$u20$as$u20$rayon..iter..IndexedParallelIterator$GT$13with_producer17he6d54f0fd8bceeaaE', symObjAddr: 0x1178, symBinAddr: 0x1DC1C, symSize: 0x5C }
  - { offset: 0x521C3, size: 0x8, addend: 0x0, symName: '__ZN84_$LT$rayon..slice..Iter$LT$T$GT$$u20$as$u20$rayon..iter..IndexedParallelIterator$GT$13with_producer17hf06d82b8c1ed4db0E', symObjAddr: 0x11D4, symBinAddr: 0x1DC78, symSize: 0x54 }
  - { offset: 0x52213, size: 0x8, addend: 0x0, symName: '__ZN84_$LT$rayon..slice..Iter$LT$T$GT$$u20$as$u20$rayon..iter..IndexedParallelIterator$GT$3len17h524cd24a6d4b07bcE', symObjAddr: 0x1228, symBinAddr: 0x1DCCC, symSize: 0x18 }
  - { offset: 0x5224A, size: 0x8, addend: 0x0, symName: '__ZN84_$LT$rayon..slice..Iter$LT$T$GT$$u20$as$u20$rayon..iter..IndexedParallelIterator$GT$3len17haabb01a6b09a9f42E', symObjAddr: 0x1240, symBinAddr: 0x1DCE4, symSize: 0x18 }
  - { offset: 0x52287, size: 0x8, addend: 0x0, symName: '__ZN87_$LT$rayon..slice..IterProducer$LT$T$GT$$u20$as$u20$rayon..iter..plumbing..Producer$GT$8split_at17h5a96418a9a4a697aE', symObjAddr: 0x1258, symBinAddr: 0x1DCFC, symSize: 0x70 }
  - { offset: 0x522FB, size: 0x8, addend: 0x0, symName: '__ZN87_$LT$rayon..slice..IterProducer$LT$T$GT$$u20$as$u20$rayon..iter..plumbing..Producer$GT$8split_at17hd6b7028a9e6aed9dE', symObjAddr: 0x12C8, symBinAddr: 0x1DD6C, symSize: 0x70 }
  - { offset: 0x5236F, size: 0x8, addend: 0x0, symName: '__ZN87_$LT$rayon..slice..IterProducer$LT$T$GT$$u20$as$u20$rayon..iter..plumbing..Producer$GT$9into_iter17h5986ec9062fc3bbbE', symObjAddr: 0x1338, symBinAddr: 0x1DDDC, symSize: 0x28 }
  - { offset: 0x523A6, size: 0x8, addend: 0x0, symName: '__ZN87_$LT$rayon..slice..IterProducer$LT$T$GT$$u20$as$u20$rayon..iter..plumbing..Producer$GT$9into_iter17haac51994021478e6E', symObjAddr: 0x1360, symBinAddr: 0x1DE04, symSize: 0x28 }
  - { offset: 0x53B20, size: 0x8, addend: 0x0, symName: __ZN3std2fs8FileType7is_file17hb87c3d5a8480e99dE, symObjAddr: 0x0, symBinAddr: 0x1DE2C, symSize: 0x28 }
  - { offset: 0x53F52, size: 0x8, addend: 0x0, symName: '__ZN48_$LT$std..fs..File$u20$as$u20$std..io..Write$GT$5flush17h4ba6dd4577af320eE', symObjAddr: 0x40, symBinAddr: 0x1DE6C, symSize: 0x14 }
  - { offset: 0x541DE, size: 0x8, addend: 0x0, symName: '__ZN8rusqlite11transaction11Transaction7finish_28_$u7b$$u7b$closure$u7d$$u7d$17h8627c8390bd2a51dE', symObjAddr: 0x54, symBinAddr: 0x1DE80, symSize: 0x5C }
  - { offset: 0x5471C, size: 0x8, addend: 0x0, symName: __ZN3std2fs8FileType7is_file17hb87c3d5a8480e99dE, symObjAddr: 0x0, symBinAddr: 0x1DE2C, symSize: 0x28 }
  - { offset: 0x5491A, size: 0x8, addend: 0x0, symName: __ZN3std2fs8Metadata3len17hbf5404721da7c860E, symObjAddr: 0x28, symBinAddr: 0x1DE54, symSize: 0x18 }
  - { offset: 0x55B5D, size: 0x8, addend: 0x0, symName: '__ZN4pyo34sync20GILOnceCell$LT$T$GT$11get_or_init17h47ac30225547a7f3E', symObjAddr: 0x0, symBinAddr: 0x1DEDC, symSize: 0xD8 }
  - { offset: 0x57564, size: 0x8, addend: 0x0, symName: '__ZN4pyo34sync20GILOnceCell$LT$T$GT$11get_or_init28_$u7b$$u7b$closure$u7d$$u7d$17h1ee5d3dad3b8cc91E', symObjAddr: 0x438, symBinAddr: 0x1E314, symSize: 0x24 }
  - { offset: 0x575A3, size: 0x8, addend: 0x0, symName: '__ZN4pyo34sync20GILOnceCell$LT$T$GT$11get_or_init28_$u7b$$u7b$closure$u7d$$u7d$17h816fafa6c96881d0E', symObjAddr: 0x45C, symBinAddr: 0x1E338, symSize: 0x24 }
  - { offset: 0x575E2, size: 0x8, addend: 0x0, symName: '__ZN4pyo34sync20GILOnceCell$LT$T$GT$11get_or_init28_$u7b$$u7b$closure$u7d$$u7d$17ha0424cfc7eac0a34E', symObjAddr: 0x480, symBinAddr: 0x1E35C, symSize: 0x24 }
  - { offset: 0x57621, size: 0x8, addend: 0x0, symName: '__ZN4pyo34sync20GILOnceCell$LT$T$GT$11get_or_init28_$u7b$$u7b$closure$u7d$$u7d$17ha6f2cfbdf1bb9fe9E', symObjAddr: 0x4A4, symBinAddr: 0x1E380, symSize: 0x24 }
  - { offset: 0x57660, size: 0x8, addend: 0x0, symName: '__ZN4pyo34sync20GILOnceCell$LT$T$GT$11get_or_init28_$u7b$$u7b$closure$u7d$$u7d$17hea52fa9419661705E', symObjAddr: 0x4C8, symBinAddr: 0x1E3A4, symSize: 0x24 }
  - { offset: 0x580A8, size: 0x8, addend: 0x0, symName: '__ZN4pyo34sync20GILOnceCell$LT$T$GT$11get_or_init17h47ac30225547a7f3E', symObjAddr: 0x0, symBinAddr: 0x1DEDC, symSize: 0xD8 }
  - { offset: 0x58136, size: 0x8, addend: 0x0, symName: '__ZN4pyo34sync20GILOnceCell$LT$T$GT$11get_or_init17h84c999631418aaaaE', symObjAddr: 0xD8, symBinAddr: 0x1DFB4, symSize: 0xD8 }
  - { offset: 0x581C4, size: 0x8, addend: 0x0, symName: '__ZN4pyo34sync20GILOnceCell$LT$T$GT$11get_or_init17h85768f4b85a6ab88E', symObjAddr: 0x1B0, symBinAddr: 0x1E08C, symSize: 0xD8 }
  - { offset: 0x58252, size: 0x8, addend: 0x0, symName: '__ZN4pyo34sync20GILOnceCell$LT$T$GT$11get_or_init17h9317cf020f96b55fE', symObjAddr: 0x288, symBinAddr: 0x1E164, symSize: 0xD8 }
  - { offset: 0x582E0, size: 0x8, addend: 0x0, symName: '__ZN4pyo34sync20GILOnceCell$LT$T$GT$11get_or_init17hb4f23b33eb10298cE', symObjAddr: 0x360, symBinAddr: 0x1E23C, symSize: 0xD8 }
  - { offset: 0x584B0, size: 0x8, addend: 0x0, symName: '__ZN4pyo34sync20GILOnceCell$LT$T$GT$15get_or_try_init17h5901896019e6db07E', symObjAddr: 0x4EC, symBinAddr: 0x1E3C8, symSize: 0xB4 }
  - { offset: 0x58529, size: 0x8, addend: 0x0, symName: '__ZN4pyo34sync20GILOnceCell$LT$T$GT$15get_or_try_init17h8d5192552b354e56E', symObjAddr: 0x5A0, symBinAddr: 0x1E47C, symSize: 0xB4 }
  - { offset: 0x585A2, size: 0x8, addend: 0x0, symName: '__ZN4pyo34sync20GILOnceCell$LT$T$GT$15get_or_try_init17h9997f24c51d3cd5fE', symObjAddr: 0x654, symBinAddr: 0x1E530, symSize: 0xB4 }
  - { offset: 0x5861B, size: 0x8, addend: 0x0, symName: '__ZN4pyo34sync20GILOnceCell$LT$T$GT$15get_or_try_init17he23c2452adca30b5E', symObjAddr: 0x708, symBinAddr: 0x1E5E4, symSize: 0xB4 }
  - { offset: 0x58694, size: 0x8, addend: 0x0, symName: '__ZN4pyo34sync20GILOnceCell$LT$T$GT$3get17h29d73e20f387ec38E', symObjAddr: 0x7BC, symBinAddr: 0x1E698, symSize: 0x70 }
  - { offset: 0x5870E, size: 0x8, addend: 0x0, symName: '__ZN4pyo34sync20GILOnceCell$LT$T$GT$3set17h413e9ea93f226d64E', symObjAddr: 0x82C, symBinAddr: 0x1E708, symSize: 0x194 }
  - { offset: 0x587BE, size: 0x8, addend: 0x0, symName: '__ZN4pyo34sync20GILOnceCell$LT$T$GT$4init17h09e5142de3ec8ebeE', symObjAddr: 0x9C0, symBinAddr: 0x38A678, symSize: 0x190 }
  - { offset: 0x588BF, size: 0x8, addend: 0x0, symName: '__ZN4pyo34sync20GILOnceCell$LT$T$GT$4init17h21a5256bdbd3ff04E', symObjAddr: 0xB50, symBinAddr: 0x38A808, symSize: 0x11C }
  - { offset: 0x58973, size: 0x8, addend: 0x0, symName: '__ZN4pyo34sync20GILOnceCell$LT$T$GT$4init17h2e9919aee8efdf06E', symObjAddr: 0xC6C, symBinAddr: 0x38A924, symSize: 0x11C }
  - { offset: 0x58A27, size: 0x8, addend: 0x0, symName: '__ZN4pyo34sync20GILOnceCell$LT$T$GT$4init17h34e352b7268bcad4E', symObjAddr: 0xD88, symBinAddr: 0x38AA40, symSize: 0x190 }
  - { offset: 0x58AFD, size: 0x8, addend: 0x0, symName: '__ZN4pyo34sync20GILOnceCell$LT$T$GT$4init17h68dcdbdb0df25319E', symObjAddr: 0xF18, symBinAddr: 0x38ABD0, symSize: 0x11C }
  - { offset: 0x58BB1, size: 0x8, addend: 0x0, symName: '__ZN4pyo34sync20GILOnceCell$LT$T$GT$4init17h6984d4197ff52485E', symObjAddr: 0x1034, symBinAddr: 0x38ACEC, symSize: 0x11C }
  - { offset: 0x58C65, size: 0x8, addend: 0x0, symName: '__ZN4pyo34sync20GILOnceCell$LT$T$GT$4init17h9a163984057f57a9E', symObjAddr: 0x1150, symBinAddr: 0x38AE08, symSize: 0x11C }
  - { offset: 0x58D19, size: 0x8, addend: 0x0, symName: '__ZN4pyo34sync20GILOnceCell$LT$T$GT$4init17hdd0156a106532ef8E', symObjAddr: 0x126C, symBinAddr: 0x38AF24, symSize: 0x190 }
  - { offset: 0x58DEF, size: 0x8, addend: 0x0, symName: '__ZN4pyo34sync20GILOnceCell$LT$T$GT$4init17he9938a58384c1b42E', symObjAddr: 0x13FC, symBinAddr: 0x38B0B4, symSize: 0x190 }
  - { offset: 0x58EF0, size: 0x8, addend: 0x0, symName: '__ZN71_$LT$std..hash..random..DefaultHasher$u20$as$u20$core..hash..Hasher$GT$6finish17h070c67ad0a59f080E', symObjAddr: 0x0, symBinAddr: 0x1E89C, symSize: 0x20 }
  - { offset: 0x59094, size: 0x8, addend: 0x0, symName: '__ZN71_$LT$std..hash..random..DefaultHasher$u20$as$u20$core..hash..Hasher$GT$6finish17h070c67ad0a59f080E', symObjAddr: 0x0, symBinAddr: 0x1E89C, symSize: 0x20 }
  - { offset: 0x590DC, size: 0x8, addend: 0x0, symName: '__ZN71_$LT$std..hash..random..DefaultHasher$u20$as$u20$core..hash..Hasher$GT$9write_str17hcd24a7af579039f8E', symObjAddr: 0x20, symBinAddr: 0x1E8BC, symSize: 0x2C }
  - { offset: 0x5916C, size: 0x8, addend: 0x0, symName: '__ZN73_$LT$std..hash..random..RandomState$u20$as$u20$core..default..Default$GT$7default17h86b5a27ee993a475E', symObjAddr: 0x4C, symBinAddr: 0x1E8E8, symSize: 0x1C }
  - { offset: 0x591A4, size: 0x8, addend: 0x0, symName: '__ZN74_$LT$std..hash..random..RandomState$u20$as$u20$core..hash..BuildHasher$GT$12build_hasher17hab35c25e6a46951bE', symObjAddr: 0x68, symBinAddr: 0x1E904, symSize: 0xCC }
  - { offset: 0x59325, size: 0x8, addend: 0x0, symName: __ZN4pyo35impl_10trampoline10trampoline17h4bbdb9ec95b568e3E, symObjAddr: 0x0, symBinAddr: 0x1E9D0, symSize: 0x160 }
  - { offset: 0x5A675, size: 0x8, addend: 0x0, symName: __ZN4pyo35impl_10trampoline10trampoline17h4bbdb9ec95b568e3E, symObjAddr: 0x0, symBinAddr: 0x1E9D0, symSize: 0x160 }
  - { offset: 0x5A719, size: 0x8, addend: 0x0, symName: __ZN4pyo35impl_10trampoline10trampoline17h5d84b7a0e790ced5E, symObjAddr: 0x160, symBinAddr: 0x1EB30, symSize: 0x158 }
  - { offset: 0x5A7BC, size: 0x8, addend: 0x0, symName: __ZN4pyo35impl_10trampoline10trampoline17hae35005619eae87eE, symObjAddr: 0x2B8, symBinAddr: 0x1EC88, symSize: 0x15C }
  - { offset: 0x5A85F, size: 0x8, addend: 0x0, symName: __ZN4pyo35impl_10trampoline10trampoline17hf3f3bdd7a863ce28E, symObjAddr: 0x414, symBinAddr: 0x1EDE4, symSize: 0x14C }
  - { offset: 0x5A906, size: 0x8, addend: 0x0, symName: '__ZN4pyo35impl_10trampoline10trampoline28_$u7b$$u7b$closure$u7d$$u7d$17h222a58b2a1b77010E', symObjAddr: 0x560, symBinAddr: 0x1EF30, symSize: 0x34 }
  - { offset: 0x5A955, size: 0x8, addend: 0x0, symName: '__ZN4pyo35impl_10trampoline10trampoline28_$u7b$$u7b$closure$u7d$$u7d$17h78698303a3964164E', symObjAddr: 0x594, symBinAddr: 0x1EF64, symSize: 0x40 }
  - { offset: 0x5A9A4, size: 0x8, addend: 0x0, symName: '__ZN4pyo35impl_10trampoline10trampoline28_$u7b$$u7b$closure$u7d$$u7d$17h8a113b45a740225bE', symObjAddr: 0x5D4, symBinAddr: 0x1EFA4, symSize: 0x24 }
  - { offset: 0x5A9F2, size: 0x8, addend: 0x0, symName: '__ZN4pyo35impl_10trampoline10trampoline28_$u7b$$u7b$closure$u7d$$u7d$17hbec34194a5ad9bacE', symObjAddr: 0x5F8, symBinAddr: 0x1EFC8, symSize: 0x2C }
  - { offset: 0x5AA46, size: 0x8, addend: 0x0, symName: '__ZN4pyo35impl_10trampoline11module_init28_$u7b$$u7b$closure$u7d$$u7d$17h02c1bf696443b876E', symObjAddr: 0x624, symBinAddr: 0x1EFF4, symSize: 0x40 }
  - { offset: 0x5AA92, size: 0x8, addend: 0x0, symName: '__ZN4pyo35impl_10trampoline11module_init28_$u7b$$u7b$closure$u7d$$u7d$28_$u7b$$u7b$closure$u7d$$u7d$17h8a7be09a7be33866E', symObjAddr: 0x664, symBinAddr: 0x1F034, symSize: 0x24 }
  - { offset: 0x5AAE4, size: 0x8, addend: 0x0, symName: __ZN4pyo35impl_10trampoline21trampoline_unraisable17hc53ad68857c0ccb2E, symObjAddr: 0x688, symBinAddr: 0x1F058, symSize: 0x20C }
  - { offset: 0x5AB87, size: 0x8, addend: 0x0, symName: '__ZN4pyo35impl_10trampoline21trampoline_unraisable28_$u7b$$u7b$closure$u7d$$u7d$17h3d8b9a909497f475E', symObjAddr: 0x894, symBinAddr: 0x1F264, symSize: 0x2C }
  - { offset: 0x5ABCC, size: 0x8, addend: 0x0, symName: '__ZN4pyo35impl_10trampoline21trampoline_unraisable28_$u7b$$u7b$closure$u7d$$u7d$17hf730387a80b0ba5dE', symObjAddr: 0x8C0, symBinAddr: 0x1F290, symSize: 0x50 }
  - { offset: 0x5AC18, size: 0x8, addend: 0x0, symName: '__ZN4pyo35impl_10trampoline22fastcall_with_keywords28_$u7b$$u7b$closure$u7d$$u7d$17hd035ff4d7a2fb3efE', symObjAddr: 0x910, symBinAddr: 0x1F2E0, symSize: 0x48 }
  - { offset: 0x5ACE4, size: 0x8, addend: 0x0, symName: '__ZN4pyo35impl_10trampoline6noargs28_$u7b$$u7b$closure$u7d$$u7d$17hb16d266fb3711a28E', symObjAddr: 0x958, symBinAddr: 0x1F328, symSize: 0x34 }
  - { offset: 0x5AD61, size: 0x8, addend: 0x0, symName: '__ZN4pyo35impl_10trampoline7dealloc28_$u7b$$u7b$closure$u7d$$u7d$17hee513deac63a9178E', symObjAddr: 0x98C, symBinAddr: 0x1F35C, symSize: 0x40 }
  - { offset: 0x5ADDE, size: 0x8, addend: 0x0, symName: '__ZN4pyo35impl_10trampoline7newfunc28_$u7b$$u7b$closure$u7d$$u7d$17hed7370d31dc71f40E', symObjAddr: 0x9CC, symBinAddr: 0x1F39C, symSize: 0x40 }
  - { offset: 0x5B6E2, size: 0x8, addend: 0x0, symName: __ZN5_core7dataset10create_zip17hb4c1c4ce2ff7049fE, symObjAddr: 0x0, symBinAddr: 0x1F3DC, symSize: 0x858 }
  - { offset: 0x5BFD9, size: 0x8, addend: 0x0, symName: __ZN5_core7dataset10create_zip17hb4c1c4ce2ff7049fE, symObjAddr: 0x0, symBinAddr: 0x1F3DC, symSize: 0x858 }
  - { offset: 0x5C278, size: 0x8, addend: 0x0, symName: __ZN5_core7dataset10visit_dirs17hcd9fa57b06d260deE, symObjAddr: 0x858, symBinAddr: 0x1FC34, symSize: 0x3FC }
  - { offset: 0x5C371, size: 0x8, addend: 0x0, symName: __ZN5_core7dataset11add_mission17h9acdab814d5aa6a7E, symObjAddr: 0xC54, symBinAddr: 0x20030, symSize: 0x126C }
  - { offset: 0x5C702, size: 0x8, addend: 0x0, symName: __ZN5_core7dataset12date_to_days17h0884abc284ff0ebdE, symObjAddr: 0x1EC0, symBinAddr: 0x2129C, symSize: 0x7B8 }
  - { offset: 0x5C88A, size: 0x8, addend: 0x0, symName: __ZN5_core7dataset12days_between17hf22d75d17b37e450E, symObjAddr: 0x2678, symBinAddr: 0x21A54, symSize: 0x194 }
  - { offset: 0x5C935, size: 0x8, addend: 0x0, symName: __ZN5_core7dataset12days_to_date17hb16d94f8a2a2a470E, symObjAddr: 0x280C, symBinAddr: 0x21BE8, symSize: 0x5A8 }
  - { offset: 0x5CAA9, size: 0x8, addend: 0x0, symName: __ZN5_core7dataset12load_from_db17h9af3dbd7c6e94862E, symObjAddr: 0x2DB4, symBinAddr: 0x22190, symSize: 0x94C }
  - { offset: 0x5CCE5, size: 0x8, addend: 0x0, symName: __ZN5_core7dataset13subtract_days17h3affd7b341f744b8E, symObjAddr: 0x3700, symBinAddr: 0x22ADC, symSize: 0x7C }
  - { offset: 0x5CD38, size: 0x8, addend: 0x0, symName: __ZN5_core7dataset14check_complete17h34dd0059e8b2296aE, symObjAddr: 0x377C, symBinAddr: 0x22B58, symSize: 0x3FC }
  - { offset: 0x5CDE1, size: 0x8, addend: 0x0, symName: __ZN5_core7dataset14create_dataset17h64a681fa762ed779E, symObjAddr: 0x3B78, symBinAddr: 0x22F54, symSize: 0x4E0 }
  - { offset: 0x5CEF4, size: 0x8, addend: 0x0, symName: __ZN5_core7dataset14remove_mission17h29eb1077354fc473E, symObjAddr: 0x4058, symBinAddr: 0x23434, symSize: 0xA7C }
  - { offset: 0x5D108, size: 0x8, addend: 0x0, symName: __ZN5_core7dataset16validate_dataset17h8b26d068a3799138E, symObjAddr: 0x4AD4, symBinAddr: 0x23EB0, symSize: 0x12C }
  - { offset: 0x5D175, size: 0x8, addend: 0x0, symName: __ZN5_core7dataset17duplicate_dataset17hb6e8fedc759877daE, symObjAddr: 0x4C00, symBinAddr: 0x23FDC, symSize: 0x30 }
  - { offset: 0x5D1B2, size: 0x8, addend: 0x0, symName: __ZN5_core7dataset17get_dataset_files17hc45150700597dd75E, symObjAddr: 0x4C30, symBinAddr: 0x2400C, symSize: 0x32C }
  - { offset: 0x5D26B, size: 0x8, addend: 0x0, symName: __ZN5_core7dataset18load_dataset_state17h05e3bc607f0e5e69E, symObjAddr: 0x4F5C, symBinAddr: 0x24338, symSize: 0x1D4 }
  - { offset: 0x5D308, size: 0x8, addend: 0x0, symName: __ZN5_core7dataset18save_dataset_state17h4bc030dbce4a8d2aE, symObjAddr: 0x5130, symBinAddr: 0x2450C, symSize: 0x814 }
  - { offset: 0x5D481, size: 0x8, addend: 0x0, symName: __ZN5_core7dataset19parse_date_from_iso17h788ae5ac6fe3d2d0E, symObjAddr: 0x5944, symBinAddr: 0x24D20, symSize: 0x88 }
  - { offset: 0x5D4CD, size: 0x8, addend: 0x0, symName: __ZN5_core7dataset19stage_dataset_files17h62206c5ad6065c0fE, symObjAddr: 0x59CC, symBinAddr: 0x24DA8, symSize: 0x2D8 }
  - { offset: 0x5D5BC, size: 0x8, addend: 0x0, symName: __ZN5_core7dataset19stage_mission_files17h2e8ba2d0341ca0f0E, symObjAddr: 0x5CA4, symBinAddr: 0x25080, symSize: 0xFC4 }
  - { offset: 0x5D98C, size: 0x8, addend: 0x0, symName: __ZN5_core7dataset20commit_dataset_files17h53d71bc1d8e3834eE, symObjAddr: 0x6C68, symBinAddr: 0x26044, symSize: 0x1368 }
  - { offset: 0x5DE58, size: 0x8, addend: 0x0, symName: __ZN5_core7dataset20commit_mission_files17h1310421655f61eb2E, symObjAddr: 0x7FD0, symBinAddr: 0x273AC, symSize: 0xFA4 }
  - { offset: 0x5E1BF, size: 0x8, addend: 0x0, symName: __ZN5_core7dataset20load_from_filesystem17h698bd022c1dcc1fdE, symObjAddr: 0x8F74, symBinAddr: 0x28350, symSize: 0x8D0 }
  - { offset: 0x5E3C4, size: 0x8, addend: 0x0, symName: __ZN5_core7dataset25validate_dataset_failures17hd479274aa25821dfE, symObjAddr: 0x9844, symBinAddr: 0x28C20, symSize: 0x28 }
  - { offset: 0x5E3F2, size: 0x8, addend: 0x0, symName: __ZN5_core7dataset27check_destination_is_subset17h65c856ecc425ae53E, symObjAddr: 0x986C, symBinAddr: 0x28C48, symSize: 0x434 }
  - { offset: 0x5E57C, size: 0x8, addend: 0x0, symName: '__ZN67_$LT$_core..dataset..DatasetState$u20$as$u20$core..clone..Clone$GT$5clone17hcb99b7c5f6b0daf0E', symObjAddr: 0x9CA0, symBinAddr: 0x2907C, symSize: 0x23C }
  - { offset: 0x5E5AE, size: 0x8, addend: 0x0, symName: '__ZN67_$LT$_core..dataset..MissionState$u20$as$u20$core..clone..Clone$GT$5clone17hcb697718c05e33a4E', symObjAddr: 0x9EDC, symBinAddr: 0x292B8, symSize: 0xDC }
  - { offset: 0x63A15, size: 0x8, addend: 0x0, symName: '__ZN4core5tuple64_$LT$impl$u20$core..cmp..PartialEq$u20$for$u20$$LP$U$C$T$RP$$GT$2eq17h73eb84beb6fdaf4bE', symObjAddr: 0x0, symBinAddr: 0x29394, symSize: 0x60 }
  - { offset: 0x63A31, size: 0x8, addend: 0x0, symName: '__ZN4core5tuple64_$LT$impl$u20$core..cmp..PartialEq$u20$for$u20$$LP$U$C$T$RP$$GT$2eq17h73eb84beb6fdaf4bE', symObjAddr: 0x0, symBinAddr: 0x29394, symSize: 0x60 }
  - { offset: 0x63AF8, size: 0x8, addend: 0x0, symName: __ZN4core4iter6traits8iterator8Iterator3zip17h68bc02ea3188dd3cE, symObjAddr: 0x0, symBinAddr: 0x293F4, symSize: 0xB4 }
  - { offset: 0x64513, size: 0x8, addend: 0x0, symName: __ZN4core4iter6traits8iterator8Iterator3zip17h68bc02ea3188dd3cE, symObjAddr: 0x0, symBinAddr: 0x293F4, symSize: 0xB4 }
  - { offset: 0x64589, size: 0x8, addend: 0x0, symName: __ZN4core4iter6traits8iterator8Iterator4take17h9fe0325f1fd4929aE, symObjAddr: 0xB4, symBinAddr: 0x294A8, symSize: 0x24 }
  - { offset: 0x65238, size: 0x8, addend: 0x0, symName: '__ZN4pyo35types5tuple131_$LT$impl$u20$pyo3..conversion..IntoPy$LT$pyo3..instance..Py$LT$pyo3..types..tuple..PyTuple$GT$$GT$$u20$for$u20$$LP$T0$C$T1$RP$$GT$21__py_call_vectorcall117he9abc547c0996dfcE', symObjAddr: 0xD8, symBinAddr: 0x294CC, symSize: 0x5D4 }
  - { offset: 0x65D94, size: 0x8, addend: 0x0, symName: '__ZN102_$LT$rayon..iter..extend..ListVecFolder$LT$T$GT$$u20$as$u20$rayon..iter..plumbing..Folder$LT$T$GT$$GT$12consume_iter17h14e236444d34aabbE', symObjAddr: 0x0, symBinAddr: 0x29AA0, symSize: 0x84 }
  - { offset: 0x67FDD, size: 0x8, addend: 0x0, symName: '__ZN102_$LT$rayon..iter..extend..ListVecFolder$LT$T$GT$$u20$as$u20$rayon..iter..plumbing..Folder$LT$T$GT$$GT$12consume_iter17h14e236444d34aabbE', symObjAddr: 0x0, symBinAddr: 0x29AA0, symSize: 0x84 }
  - { offset: 0x6802B, size: 0x8, addend: 0x0, symName: '__ZN102_$LT$rayon..iter..extend..ListVecFolder$LT$T$GT$$u20$as$u20$rayon..iter..plumbing..Folder$LT$T$GT$$GT$12consume_iter17h1fd9a6decc266dd0E', symObjAddr: 0x84, symBinAddr: 0x29B24, symSize: 0x84 }
  - { offset: 0x68079, size: 0x8, addend: 0x0, symName: '__ZN102_$LT$rayon..iter..extend..ListVecFolder$LT$T$GT$$u20$as$u20$rayon..iter..plumbing..Folder$LT$T$GT$$GT$12consume_iter17h3873e87a5e5b0921E', symObjAddr: 0x108, symBinAddr: 0x29BA8, symSize: 0x84 }
  - { offset: 0x680C7, size: 0x8, addend: 0x0, symName: '__ZN102_$LT$rayon..iter..extend..ListVecFolder$LT$T$GT$$u20$as$u20$rayon..iter..plumbing..Folder$LT$T$GT$$GT$12consume_iter17hbf038f63572f384eE', symObjAddr: 0x18C, symBinAddr: 0x29C2C, symSize: 0x84 }
  - { offset: 0x68115, size: 0x8, addend: 0x0, symName: '__ZN102_$LT$rayon..iter..extend..ListVecFolder$LT$T$GT$$u20$as$u20$rayon..iter..plumbing..Folder$LT$T$GT$$GT$8complete17h9f3a051399bb822cE', symObjAddr: 0x210, symBinAddr: 0x29CB0, symSize: 0xFC }
  - { offset: 0x68166, size: 0x8, addend: 0x0, symName: '__ZN143_$LT$rayon..iter..extend..ListReducer$u20$as$u20$rayon..iter..plumbing..Reducer$LT$alloc..collections..linked_list..LinkedList$LT$T$GT$$GT$$GT$6reduce17he0350452faba6c8aE', symObjAddr: 0x30C, symBinAddr: 0x29DAC, symSize: 0xB0 }
  - { offset: 0x681CF, size: 0x8, addend: 0x0, symName: '__ZN97_$LT$rayon..iter..extend..ListVecConsumer$u20$as$u20$rayon..iter..plumbing..Consumer$LT$T$GT$$GT$11into_folder17h6da0819784383e8cE', symObjAddr: 0x3BC, symBinAddr: 0x29E5C, symSize: 0x38 }
  - { offset: 0x6820F, size: 0x8, addend: 0x0, symName: '__ZN97_$LT$rayon..iter..extend..ListVecConsumer$u20$as$u20$rayon..iter..plumbing..Consumer$LT$T$GT$$GT$4full17h935fba4a3c544bf5E', symObjAddr: 0x3F4, symBinAddr: 0x29E94, symSize: 0x18 }
  - { offset: 0x68244, size: 0x8, addend: 0x0, symName: '__ZN97_$LT$rayon..iter..extend..ListVecConsumer$u20$as$u20$rayon..iter..plumbing..Consumer$LT$T$GT$$GT$8split_at17h60bc987c4dc7c17cE', symObjAddr: 0x40C, symBinAddr: 0x29EAC, symSize: 0x10 }
  - { offset: 0x69350, size: 0x8, addend: 0x0, symName: '__ZN105_$LT$std..collections..hash..map..Iter$LT$K$C$V$GT$$u20$as$u20$core..iter..traits..iterator..Iterator$GT$4next17h6c828777058e5700E', symObjAddr: 0x0, symBinAddr: 0x29EBC, symSize: 0x24 }
  - { offset: 0x69D82, size: 0x8, addend: 0x0, symName: __ZN4core4iter6traits8iterator8Iterator12try_for_each17h037fb221b35bd5ebE, symObjAddr: 0x624, symBinAddr: 0x2A4E0, symSize: 0x2C }
  - { offset: 0x69DDA, size: 0x8, addend: 0x0, symName: __ZN4core4iter6traits8iterator8Iterator12try_for_each17h3941b2b289bda9c6E, symObjAddr: 0x650, symBinAddr: 0x2A50C, symSize: 0x2C }
  - { offset: 0x69E32, size: 0x8, addend: 0x0, symName: __ZN4core4iter6traits8iterator8Iterator12try_for_each17hd9c63ba97f3c8a71E, symObjAddr: 0x67C, symBinAddr: 0x2A538, symSize: 0x2C }
  - { offset: 0x69E8A, size: 0x8, addend: 0x0, symName: __ZN4core4iter6traits8iterator8Iterator7collect17hd317ef270c7ec52aE, symObjAddr: 0x6A8, symBinAddr: 0x2A564, symSize: 0x14 }
  - { offset: 0x69ECB, size: 0x8, addend: 0x0, symName: __ZN4core4iter6traits8iterator8Iterator8for_each17he1e91dc7d9656c91E, symObjAddr: 0x6BC, symBinAddr: 0x2A578, symSize: 0x24 }
  - { offset: 0x69F17, size: 0x8, addend: 0x0, symName: __ZN4core4iter6traits8iterator8Iterator8try_fold17hcab51a29bc06e999E, symObjAddr: 0x6E0, symBinAddr: 0x2A59C, symSize: 0x158 }
  - { offset: 0x69FCA, size: 0x8, addend: 0x0, symName: __ZN4core4iter6traits8iterator8Iterator8try_fold17he4ae74e045cd3750E, symObjAddr: 0x838, symBinAddr: 0x2A6F4, symSize: 0x158 }
  - { offset: 0x6A07D, size: 0x8, addend: 0x0, symName: __ZN4core4iter6traits8iterator8Iterator8try_fold17hf887652fff8be986E, symObjAddr: 0x990, symBinAddr: 0x2A84C, symSize: 0x158 }
  - { offset: 0x6A181, size: 0x8, addend: 0x0, symName: '__ZN63_$LT$I$u20$as$u20$core..iter..traits..collect..IntoIterator$GT$9into_iter17h74d173cf977c7669E', symObjAddr: 0xAE8, symBinAddr: 0x2A9A4, symSize: 0x30 }
  - { offset: 0x6A1B9, size: 0x8, addend: 0x0, symName: '__ZN63_$LT$I$u20$as$u20$core..iter..traits..collect..IntoIterator$GT$9into_iter17h9812b6e1a7cb6480E', symObjAddr: 0xB18, symBinAddr: 0x2A9D4, symSize: 0x30 }
  - { offset: 0x6A6A1, size: 0x8, addend: 0x0, symName: '__ZN105_$LT$std..collections..hash..map..Iter$LT$K$C$V$GT$$u20$as$u20$core..iter..traits..iterator..Iterator$GT$4next17h6c828777058e5700E', symObjAddr: 0x0, symBinAddr: 0x29EBC, symSize: 0x24 }
  - { offset: 0x6A6E1, size: 0x8, addend: 0x0, symName: '__ZN105_$LT$std..collections..hash..map..Iter$LT$K$C$V$GT$$u20$as$u20$core..iter..traits..iterator..Iterator$GT$4next17he8bcea2f9ced4e72E', symObjAddr: 0x24, symBinAddr: 0x29EE0, symSize: 0x24 }
  - { offset: 0x6A721, size: 0x8, addend: 0x0, symName: '__ZN105_$LT$std..collections..hash..map..Iter$LT$K$C$V$GT$$u20$as$u20$core..iter..traits..iterator..Iterator$GT$9size_hint17h6fe9e9c6bbe6f6d7E', symObjAddr: 0x48, symBinAddr: 0x29F04, symSize: 0x2C }
  - { offset: 0x6A78C, size: 0x8, addend: 0x0, symName: '__ZN105_$LT$std..collections..hash..map..Iter$LT$K$C$V$GT$$u20$as$u20$core..iter..traits..iterator..Iterator$GT$9size_hint17hfa46c406f43d52e1E', symObjAddr: 0x74, symBinAddr: 0x29F30, symSize: 0x2C }
  - { offset: 0x6A861, size: 0x8, addend: 0x0, symName: '__ZN105_$LT$std..collections..hash..map..Keys$LT$K$C$V$GT$$u20$as$u20$core..iter..traits..iterator..Iterator$GT$4next17hb3dc90a6594375f6E', symObjAddr: 0xA0, symBinAddr: 0x29F5C, symSize: 0x60 }
  - { offset: 0x6A90C, size: 0x8, addend: 0x0, symName: '__ZN109_$LT$std..collections..hash..map..IntoIter$LT$K$C$V$GT$$u20$as$u20$core..iter..traits..iterator..Iterator$GT$4fold17hf98f349d74567fb0E', symObjAddr: 0x100, symBinAddr: 0x29FBC, symSize: 0x4C }
  - { offset: 0x6A9A7, size: 0x8, addend: 0x0, symName: '__ZN109_$LT$std..collections..hash..map..IntoIter$LT$K$C$V$GT$$u20$as$u20$core..iter..traits..iterator..Iterator$GT$9size_hint17h95a6c51f208d7d35E', symObjAddr: 0x14C, symBinAddr: 0x2A008, symSize: 0x2C }
  - { offset: 0x6AA2E, size: 0x8, addend: 0x0, symName: '__ZN115_$LT$std..collections..hash..map..HashMap$LT$K$C$V$C$S$GT$$u20$as$u20$core..iter..traits..collect..IntoIterator$GT$9into_iter17h38c3cb5938a6d866E', symObjAddr: 0x290, symBinAddr: 0x2A14C, symSize: 0x58 }
  - { offset: 0x6AB77, size: 0x8, addend: 0x0, symName: '__ZN119_$LT$$RF$std..collections..hash..map..HashMap$LT$K$C$V$C$S$GT$$u20$as$u20$core..iter..traits..collect..IntoIterator$GT$9into_iter17he959243d65513773E', symObjAddr: 0x2E8, symBinAddr: 0x2A1A4, symSize: 0x44 }
  - { offset: 0x6ABDE, size: 0x8, addend: 0x0, symName: '__ZN119_$LT$$RF$std..collections..hash..map..HashMap$LT$K$C$V$C$S$GT$$u20$as$u20$core..iter..traits..collect..IntoIterator$GT$9into_iter17hfebb0315cba3232dE', symObjAddr: 0x32C, symBinAddr: 0x2A1E8, symSize: 0x44 }
  - { offset: 0x6AE8C, size: 0x8, addend: 0x0, symName: '__ZN130_$LT$std..collections..hash..map..HashMap$LT$K$C$V$C$S$GT$$u20$as$u20$core..iter..traits..collect..Extend$LT$$LP$K$C$V$RP$$GT$$GT$6extend17h9edfeb314079268bE', symObjAddr: 0x370, symBinAddr: 0x2A22C, symSize: 0x24 }
  - { offset: 0x6C0C3, size: 0x8, addend: 0x0, symName: '__ZN10serde_core2de5impls111_$LT$impl$u20$serde_core..de..Deserialize$u20$for$u20$std..collections..hash..map..HashMap$LT$K$C$V$C$S$GT$$GT$11deserialize17h6dfd3b6ea66f3d3aE', symObjAddr: 0x178, symBinAddr: 0x2A034, symSize: 0x24 }
  - { offset: 0x6C133, size: 0x8, addend: 0x0, symName: '__ZN10serde_core2de5impls111_$LT$impl$u20$serde_core..de..Deserialize$u20$for$u20$std..collections..hash..map..HashMap$LT$K$C$V$C$S$GT$$GT$11deserialize17hc0329007d10278efE', symObjAddr: 0x19C, symBinAddr: 0x2A058, symSize: 0x24 }
  - { offset: 0x6C1A3, size: 0x8, addend: 0x0, symName: '__ZN10serde_core2de5impls111_$LT$impl$u20$serde_core..de..Deserialize$u20$for$u20$std..collections..hash..map..HashMap$LT$K$C$V$C$S$GT$$GT$11deserialize17hc3f534d355c8da66E', symObjAddr: 0x1C0, symBinAddr: 0x2A07C, symSize: 0x28 }
  - { offset: 0x6C28B, size: 0x8, addend: 0x0, symName: '__ZN10serde_core3ser5impls110_$LT$impl$u20$serde_core..ser..Serialize$u20$for$u20$std..collections..hash..map..HashMap$LT$K$C$V$C$H$GT$$GT$9serialize17h67283b3686201cbfE', symObjAddr: 0x1E8, symBinAddr: 0x2A0A4, symSize: 0x38 }
  - { offset: 0x6C2EC, size: 0x8, addend: 0x0, symName: '__ZN10serde_core3ser5impls110_$LT$impl$u20$serde_core..ser..Serialize$u20$for$u20$std..collections..hash..map..HashMap$LT$K$C$V$C$H$GT$$GT$9serialize17h8b110871be7d99edE', symObjAddr: 0x220, symBinAddr: 0x2A0DC, symSize: 0x38 }
  - { offset: 0x6C34D, size: 0x8, addend: 0x0, symName: '__ZN10serde_core3ser5impls110_$LT$impl$u20$serde_core..ser..Serialize$u20$for$u20$std..collections..hash..map..HashMap$LT$K$C$V$C$H$GT$$GT$9serialize17had790e3b28df1098E', symObjAddr: 0x258, symBinAddr: 0x2A114, symSize: 0x38 }
  - { offset: 0x6C50B, size: 0x8, addend: 0x0, symName: '__ZN3std11collections4hash3map20HashMap$LT$K$C$V$GT$3new17h19ae24c9ab7ada2bE', symObjAddr: 0x394, symBinAddr: 0x2A250, symSize: 0x7C }
  - { offset: 0x6C5BA, size: 0x8, addend: 0x0, symName: '__ZN3std11collections4hash3map24HashMap$LT$K$C$V$C$S$GT$12contains_key17h209dac61223095b0E', symObjAddr: 0x410, symBinAddr: 0x2A2CC, symSize: 0x2C }
  - { offset: 0x6C610, size: 0x8, addend: 0x0, symName: '__ZN3std11collections4hash3map24HashMap$LT$K$C$V$C$S$GT$24with_capacity_and_hasher17h0a414199697c0027E', symObjAddr: 0x43C, symBinAddr: 0x2A2F8, symSize: 0x48 }
  - { offset: 0x6C65D, size: 0x8, addend: 0x0, symName: '__ZN3std11collections4hash3map24HashMap$LT$K$C$V$C$S$GT$24with_capacity_and_hasher17h84c75cafc4eb4c23E', symObjAddr: 0x484, symBinAddr: 0x2A340, symSize: 0x48 }
  - { offset: 0x6C6AA, size: 0x8, addend: 0x0, symName: '__ZN3std11collections4hash3map24HashMap$LT$K$C$V$C$S$GT$3get17h396d06592d2af590E', symObjAddr: 0x4CC, symBinAddr: 0x2A388, symSize: 0x2C }
  - { offset: 0x6C75E, size: 0x8, addend: 0x0, symName: '__ZN3std11collections4hash3map24HashMap$LT$K$C$V$C$S$GT$3len17he35e0849d9e07b09E', symObjAddr: 0x4F8, symBinAddr: 0x2A3B4, symSize: 0x18 }
  - { offset: 0x6C7C7, size: 0x8, addend: 0x0, symName: '__ZN3std11collections4hash3map24HashMap$LT$K$C$V$C$S$GT$4iter17h26b69223783be654E', symObjAddr: 0x510, symBinAddr: 0x2A3CC, symSize: 0x44 }
  - { offset: 0x6C833, size: 0x8, addend: 0x0, symName: '__ZN3std11collections4hash3map24HashMap$LT$K$C$V$C$S$GT$4keys17ha1d44fa86e39d99bE', symObjAddr: 0x554, symBinAddr: 0x2A410, symSize: 0x5C }
  - { offset: 0x6C89C, size: 0x8, addend: 0x0, symName: '__ZN3std11collections4hash3map24HashMap$LT$K$C$V$C$S$GT$6insert17h898be870e5630d97E', symObjAddr: 0x5B0, symBinAddr: 0x2A46C, symSize: 0x24 }
  - { offset: 0x6C907, size: 0x8, addend: 0x0, symName: '__ZN3std11collections4hash3map24HashMap$LT$K$C$V$C$S$GT$6insert17haebe6017c38c67c4E', symObjAddr: 0x5D4, symBinAddr: 0x2A490, symSize: 0x24 }
  - { offset: 0x6C965, size: 0x8, addend: 0x0, symName: '__ZN3std11collections4hash3map24HashMap$LT$K$C$V$C$S$GT$6retain17hcef328d51e08e940E', symObjAddr: 0x5F8, symBinAddr: 0x2A4B4, symSize: 0x2C }
  - { offset: 0x6CB90, size: 0x8, addend: 0x0, symName: __ZN10serde_core2de7Visitor18visit_borrowed_str17h6495208a4e8794c9E, symObjAddr: 0x0, symBinAddr: 0x2AA04, symSize: 0x28 }
  - { offset: 0x6CC22, size: 0x8, addend: 0x0, symName: '__ZN175_$LT$_core..manifest.._..$LT$impl$u20$serde_core..de..Deserialize$u20$for$u20$_core..manifest..ManifestEntry$GT$..deserialize..__Visitor$u20$as$u20$serde_core..de..Visitor$GT$9visit_map17h68ba78e036011dcdE', symObjAddr: 0x58, symBinAddr: 0x2AA5C, symSize: 0x5BC }
  - { offset: 0x6CDEF, size: 0x8, addend: 0x0, symName: '__ZN175_$LT$_core..manifest.._..$LT$impl$u20$serde_core..de..Deserialize$u20$for$u20$_core..manifest..ManifestEntry$GT$..deserialize..__Visitor$u20$as$u20$serde_core..de..Visitor$GT$9visit_seq17h5a0787e0205b1ab9E', symObjAddr: 0x614, symBinAddr: 0x2B018, symSize: 0x248 }
  - { offset: 0x6CEBD, size: 0x8, addend: 0x0, symName: '__ZN177_$LT$_core..manifest.._..$LT$impl$u20$serde_core..de..Deserialize$u20$for$u20$_core..manifest..ManifestEntry$GT$..deserialize..__Field$u20$as$u20$serde_core..de..Deserialize$GT$11deserialize17hd4f724febd4f51caE', symObjAddr: 0x85C, symBinAddr: 0x2B260, symSize: 0x24 }
  - { offset: 0x6CEF8, size: 0x8, addend: 0x0, symName: '__ZN180_$LT$_core..manifest.._..$LT$impl$u20$serde_core..de..Deserialize$u20$for$u20$_core..manifest..ManifestEntry$GT$..deserialize..__FieldVisitor$u20$as$u20$serde_core..de..Visitor$GT$9visit_str17hc00264b15f460be9E', symObjAddr: 0x880, symBinAddr: 0x2B284, symSize: 0xA8 }
  - { offset: 0x6CF71, size: 0x8, addend: 0x0, symName: '__ZN5_core8manifest1_87_$LT$impl$u20$serde_core..ser..Serialize$u20$for$u20$_core..manifest..ManifestEntry$GT$9serialize17hdc300120f3d5d6a5E', symObjAddr: 0x12CC, symBinAddr: 0x2BCD0, symSize: 0x24C }
  - { offset: 0x6D030, size: 0x8, addend: 0x0, symName: '__ZN5_core8manifest1_88_$LT$impl$u20$serde_core..de..Deserialize$u20$for$u20$_core..manifest..ManifestEntry$GT$11deserialize17h1347cd85da00c203E', symObjAddr: 0x1518, symBinAddr: 0x2BF1C, symSize: 0x44 }
  - { offset: 0x6D06C, size: 0x8, addend: 0x0, symName: '__ZN5_core8manifest12is_temp_file28_$u7b$$u7b$closure$u7d$$u7d$17h2784654899ee2398E', symObjAddr: 0xAD4, symBinAddr: 0x2B4D8, symSize: 0x9C }
  - { offset: 0x6D0AF, size: 0x8, addend: 0x0, symName: '__ZN5_core8manifest14compute_hashes28_$u7b$$u7b$closure$u7d$$u7d$17h64152ab6f1a4ae28E', symObjAddr: 0xB70, symBinAddr: 0x2B574, symSize: 0x54 }
  - { offset: 0x6D0E6, size: 0x8, addend: 0x0, symName: '__ZN5_core8manifest14compute_hashes28_$u7b$$u7b$closure$u7d$$u7d$17hd18d0cfd81ebcab1E', symObjAddr: 0xBC4, symBinAddr: 0x2B5C8, symSize: 0x48 }
  - { offset: 0x6D13B, size: 0x8, addend: 0x0, symName: '__ZN5_core8manifest15copy_and_verify28_$u7b$$u7b$closure$u7d$$u7d$17h3d25ede892b38781E', symObjAddr: 0xC0C, symBinAddr: 0x2B610, symSize: 0x5A8 }
  - { offset: 0x6D33F, size: 0x8, addend: 0x0, symName: '__ZN5_core8manifest18cleanup_temp_files28_$u7b$$u7b$closure$u7d$$u7d$17h519159e37a5802d8E', symObjAddr: 0x11B4, symBinAddr: 0x2BBB8, symSize: 0x9C }
  - { offset: 0x6D375, size: 0x8, addend: 0x0, symName: '__ZN5_core8manifest18cleanup_temp_files28_$u7b$$u7b$closure$u7d$$u7d$17h9a40c98d51382148E', symObjAddr: 0x1250, symBinAddr: 0x2BC54, symSize: 0x7C }
  - { offset: 0x6D3C0, size: 0x8, addend: 0x0, symName: '__ZN5_core8manifest33update_manifest_with_known_hashes28_$u7b$$u7b$closure$u7d$$u7d$17h1a2416e519f9e216E', symObjAddr: 0x155C, symBinAddr: 0x2BF60, symSize: 0x54 }
  - { offset: 0x6D3F7, size: 0x8, addend: 0x0, symName: '__ZN5_core8manifest33update_manifest_with_known_hashes28_$u7b$$u7b$closure$u7d$$u7d$17hc59065b6290f9374E', symObjAddr: 0x15B0, symBinAddr: 0x2BFB4, symSize: 0x48 }
  - { offset: 0x6D447, size: 0x8, addend: 0x0, symName: __ZN5_core8manifest41collect_validation_failures_with_progress17h97cdb72f7718efc8E, symObjAddr: 0x15F8, symBinAddr: 0x2BFFC, symSize: 0x55C }
  - { offset: 0x6D652, size: 0x8, addend: 0x0, symName: __ZN5_core8manifest41collect_validation_failures_with_progress17h9f45f9b59564c719E, symObjAddr: 0x1B54, symBinAddr: 0x2C558, symSize: 0x558 }
  - { offset: 0x6D85D, size: 0x8, addend: 0x0, symName: __ZN5_core8manifest41collect_validation_failures_with_progress17hb7390daa0e461f46E, symObjAddr: 0x20AC, symBinAddr: 0x2CAB0, symSize: 0x558 }
  - { offset: 0x6DA68, size: 0x8, addend: 0x0, symName: __ZN5_core8manifest41collect_validation_failures_with_progress17hdda4a2c5e60d9defE, symObjAddr: 0x2604, symBinAddr: 0x2D008, symSize: 0x55C }
  - { offset: 0x6DC78, size: 0x8, addend: 0x0, symName: '__ZN5_core8manifest41collect_validation_failures_with_progress28_$u7b$$u7b$closure$u7d$$u7d$17h083dc0bcc814ede6E', symObjAddr: 0x2B60, symBinAddr: 0x2D564, symSize: 0x38 }
  - { offset: 0x6DCD4, size: 0x8, addend: 0x0, symName: '__ZN5_core8manifest41collect_validation_failures_with_progress28_$u7b$$u7b$closure$u7d$$u7d$17h16fcff2d53bc5ea3E', symObjAddr: 0x2B98, symBinAddr: 0x2D59C, symSize: 0x73C }
  - { offset: 0x6DFAE, size: 0x8, addend: 0x0, symName: '__ZN5_core8manifest41collect_validation_failures_with_progress28_$u7b$$u7b$closure$u7d$$u7d$17h2bb4e267cf759099E', symObjAddr: 0x32D4, symBinAddr: 0x2DCD8, symSize: 0x30 }
  - { offset: 0x6E00A, size: 0x8, addend: 0x0, symName: '__ZN5_core8manifest41collect_validation_failures_with_progress28_$u7b$$u7b$closure$u7d$$u7d$17h34768aa001e4f333E', symObjAddr: 0x3304, symBinAddr: 0x2DD08, symSize: 0x38 }
  - { offset: 0x6E066, size: 0x8, addend: 0x0, symName: '__ZN5_core8manifest41collect_validation_failures_with_progress28_$u7b$$u7b$closure$u7d$$u7d$17h53c55b67a9190444E', symObjAddr: 0x333C, symBinAddr: 0x2DD40, symSize: 0x38 }
  - { offset: 0x6E0C2, size: 0x8, addend: 0x0, symName: '__ZN5_core8manifest41collect_validation_failures_with_progress28_$u7b$$u7b$closure$u7d$$u7d$17h61bd2f61816b3745E', symObjAddr: 0x3374, symBinAddr: 0x2DD78, symSize: 0x30 }
  - { offset: 0x6E11E, size: 0x8, addend: 0x0, symName: '__ZN5_core8manifest41collect_validation_failures_with_progress28_$u7b$$u7b$closure$u7d$$u7d$17hb16964c434ca451fE', symObjAddr: 0x33A4, symBinAddr: 0x2DDA8, symSize: 0x38 }
  - { offset: 0x6E17A, size: 0x8, addend: 0x0, symName: '__ZN5_core8manifest41collect_validation_failures_with_progress28_$u7b$$u7b$closure$u7d$$u7d$17hc6b6ad8258bbbdb3E', symObjAddr: 0x33DC, symBinAddr: 0x2DDE0, symSize: 0x73C }
  - { offset: 0x6E454, size: 0x8, addend: 0x0, symName: '__ZN5_core8manifest41collect_validation_failures_with_progress28_$u7b$$u7b$closure$u7d$$u7d$17hec565515bc285655E', symObjAddr: 0x3B18, symBinAddr: 0x2E51C, symSize: 0x73C }
  - { offset: 0x6E72E, size: 0x8, addend: 0x0, symName: '__ZN5_core8manifest41collect_validation_failures_with_progress28_$u7b$$u7b$closure$u7d$$u7d$17hf406287cfaf608b4E', symObjAddr: 0x4254, symBinAddr: 0x2EC58, symSize: 0x30 }
  - { offset: 0x6E78A, size: 0x8, addend: 0x0, symName: '__ZN5_core8manifest41collect_validation_failures_with_progress28_$u7b$$u7b$closure$u7d$$u7d$17hf5e452b7f33dc1acE', symObjAddr: 0x4284, symBinAddr: 0x2EC88, symSize: 0x30 }
  - { offset: 0x6E7E6, size: 0x8, addend: 0x0, symName: '__ZN5_core8manifest41collect_validation_failures_with_progress28_$u7b$$u7b$closure$u7d$$u7d$17hf82b12111792dc7dE', symObjAddr: 0x42B4, symBinAddr: 0x2ECB8, symSize: 0x73C }
  - { offset: 0x6EAC5, size: 0x8, addend: 0x0, symName: '__ZN5_core8manifest41collect_validation_failures_with_progress28_$u7b$$u7b$closure$u7d$$u7d$28_$u7b$$u7b$closure$u7d$$u7d$17h66aca922e67be9c0E', symObjAddr: 0x49F0, symBinAddr: 0x2F3F4, symSize: 0x54 }
  - { offset: 0x6EB05, size: 0x8, addend: 0x0, symName: '__ZN5_core8manifest41collect_validation_failures_with_progress28_$u7b$$u7b$closure$u7d$$u7d$28_$u7b$$u7b$closure$u7d$$u7d$17h9401174a62135fb9E', symObjAddr: 0x4A44, symBinAddr: 0x2F448, symSize: 0x48 }
  - { offset: 0x6EB4F, size: 0x8, addend: 0x0, symName: '__ZN5_core8manifest41collect_validation_failures_with_progress28_$u7b$$u7b$closure$u7d$$u7d$28_$u7b$$u7b$closure$u7d$$u7d$17h9de7ebec5d7d3347E', symObjAddr: 0x4A8C, symBinAddr: 0x2F490, symSize: 0x48 }
  - { offset: 0x6EB99, size: 0x8, addend: 0x0, symName: '__ZN5_core8manifest41collect_validation_failures_with_progress28_$u7b$$u7b$closure$u7d$$u7d$28_$u7b$$u7b$closure$u7d$$u7d$17ha4b4ac8ca58ef95bE', symObjAddr: 0x4AD4, symBinAddr: 0x2F4D8, symSize: 0x54 }
  - { offset: 0x6EBD9, size: 0x8, addend: 0x0, symName: '__ZN5_core8manifest41collect_validation_failures_with_progress28_$u7b$$u7b$closure$u7d$$u7d$28_$u7b$$u7b$closure$u7d$$u7d$17ha92966c7371dfa36E', symObjAddr: 0x4B28, symBinAddr: 0x2F52C, symSize: 0x54 }
  - { offset: 0x6EC19, size: 0x8, addend: 0x0, symName: '__ZN5_core8manifest41collect_validation_failures_with_progress28_$u7b$$u7b$closure$u7d$$u7d$28_$u7b$$u7b$closure$u7d$$u7d$17hd0cc79badf6cab5dE', symObjAddr: 0x4B7C, symBinAddr: 0x2F580, symSize: 0x54 }
  - { offset: 0x6EC59, size: 0x8, addend: 0x0, symName: '__ZN5_core8manifest41collect_validation_failures_with_progress28_$u7b$$u7b$closure$u7d$$u7d$28_$u7b$$u7b$closure$u7d$$u7d$17hf335c77998e2dc8dE', symObjAddr: 0x4BD0, symBinAddr: 0x2F5D4, symSize: 0x48 }
  - { offset: 0x6ECA3, size: 0x8, addend: 0x0, symName: '__ZN5_core8manifest41collect_validation_failures_with_progress28_$u7b$$u7b$closure$u7d$$u7d$28_$u7b$$u7b$closure$u7d$$u7d$17hfb259c3ea84c6b98E', symObjAddr: 0x4C18, symBinAddr: 0x2F61C, symSize: 0x48 }
  - { offset: 0x70351, size: 0x8, addend: 0x0, symName: '__ZN4core3ops8function5impls71_$LT$impl$u20$core..ops..function..FnMut$LT$A$GT$$u20$for$u20$$RF$F$GT$8call_mut17h2fe44a84084805c1E', symObjAddr: 0x954, symBinAddr: 0x2B358, symSize: 0x30 }
  - { offset: 0x703A0, size: 0x8, addend: 0x0, symName: '__ZN4core3ops8function5impls71_$LT$impl$u20$core..ops..function..FnMut$LT$A$GT$$u20$for$u20$$RF$F$GT$8call_mut17h778483741d99af41E', symObjAddr: 0x984, symBinAddr: 0x2B388, symSize: 0x30 }
  - { offset: 0x703EF, size: 0x8, addend: 0x0, symName: '__ZN4core3ops8function5impls71_$LT$impl$u20$core..ops..function..FnMut$LT$A$GT$$u20$for$u20$$RF$F$GT$8call_mut17h8067dcf506f96ceaE', symObjAddr: 0x9B4, symBinAddr: 0x2B3B8, symSize: 0x30 }
  - { offset: 0x7043E, size: 0x8, addend: 0x0, symName: '__ZN4core3ops8function5impls71_$LT$impl$u20$core..ops..function..FnMut$LT$A$GT$$u20$for$u20$$RF$F$GT$8call_mut17hab64b15f4134f587E', symObjAddr: 0x9E4, symBinAddr: 0x2B3E8, symSize: 0x30 }
  - { offset: 0x70493, size: 0x8, addend: 0x0, symName: '__ZN4core3ops8function5impls79_$LT$impl$u20$core..ops..function..FnMut$LT$A$GT$$u20$for$u20$$RF$mut$u20$F$GT$8call_mut17h8106a0db704e74a1E', symObjAddr: 0xA14, symBinAddr: 0x2B418, symSize: 0x30 }
  - { offset: 0x704E2, size: 0x8, addend: 0x0, symName: '__ZN4core3ops8function5impls79_$LT$impl$u20$core..ops..function..FnMut$LT$A$GT$$u20$for$u20$$RF$mut$u20$F$GT$8call_mut17hbbc3bb3b4f90ffe8E', symObjAddr: 0xA44, symBinAddr: 0x2B448, symSize: 0x30 }
  - { offset: 0x70531, size: 0x8, addend: 0x0, symName: '__ZN4core3ops8function5impls79_$LT$impl$u20$core..ops..function..FnMut$LT$A$GT$$u20$for$u20$$RF$mut$u20$F$GT$8call_mut17hbc5b1934846f1773E', symObjAddr: 0xA74, symBinAddr: 0x2B478, symSize: 0x30 }
  - { offset: 0x70580, size: 0x8, addend: 0x0, symName: '__ZN4core3ops8function5impls79_$LT$impl$u20$core..ops..function..FnMut$LT$A$GT$$u20$for$u20$$RF$mut$u20$F$GT$8call_mut17hc05c46b06a9eda60E', symObjAddr: 0xAA4, symBinAddr: 0x2B4A8, symSize: 0x30 }
  - { offset: 0x71DED, size: 0x8, addend: 0x0, symName: __ZN10serde_core2de7Visitor18visit_borrowed_str17h6495208a4e8794c9E, symObjAddr: 0x0, symBinAddr: 0x2AA04, symSize: 0x28 }
  - { offset: 0x71E42, size: 0x8, addend: 0x0, symName: '__ZN46_$LT$T$u20$as$u20$serde_core..de..Expected$GT$3fmt17h93ae05f18bc383b8E', symObjAddr: 0x928, symBinAddr: 0x2B32C, symSize: 0x2C }
  - { offset: 0x71E99, size: 0x8, addend: 0x0, symName: '__ZN10serde_core3ser5impls62_$LT$impl$u20$serde_core..ser..Serialize$u20$for$u20$$RF$T$GT$9serialize17h508ba3a276006605E', symObjAddr: 0x28, symBinAddr: 0x2AA2C, symSize: 0x30 }
  - { offset: 0x73468, size: 0x8, addend: 0x0, symName: __ZN5rayon4iter8plumbing14LengthSplitter3new17hb9f33f990ccdd8c5E, symObjAddr: 0x0, symBinAddr: 0x2F664, symSize: 0xBC }
  - { offset: 0x7352F, size: 0x8, addend: 0x0, symName: __ZN5rayon4iter8plumbing14LengthSplitter3new17hb9f33f990ccdd8c5E, symObjAddr: 0x0, symBinAddr: 0x2F664, symSize: 0xBC }
  - { offset: 0x735B0, size: 0x8, addend: 0x0, symName: __ZN5rayon4iter8plumbing14LengthSplitter9try_split17h5def514e1ddf1a43E, symObjAddr: 0xBC, symBinAddr: 0x2F720, symSize: 0x6C }
  - { offset: 0x735F1, size: 0x8, addend: 0x0, symName: __ZN5rayon4iter8plumbing8Splitter3new17h686dc19ee87bd0c1E, symObjAddr: 0x128, symBinAddr: 0x2F78C, symSize: 0x14 }
  - { offset: 0x73611, size: 0x8, addend: 0x0, symName: __ZN5rayon4iter8plumbing8Splitter9try_split17h8837b13199a20bedE, symObjAddr: 0x13C, symBinAddr: 0x2F7A0, symSize: 0xA8 }
  - { offset: 0x7367F, size: 0x8, addend: 0x0, symName: __ZN4pyo311type_object10PyTypeInfo16is_type_of_bound17h994e1513ebf80b40E, symObjAddr: 0x0, symBinAddr: 0x2F848, symSize: 0x50 }
  - { offset: 0x73E9B, size: 0x8, addend: 0x0, symName: '__ZN50_$LT$T$u20$as$u20$core..convert..Into$LT$U$GT$$GT$4into17h1929fbe29b3d2797E', symObjAddr: 0x288, symBinAddr: 0x2FAD0, symSize: 0x14 }
  - { offset: 0x73EDC, size: 0x8, addend: 0x0, symName: '__ZN50_$LT$T$u20$as$u20$core..convert..Into$LT$U$GT$$GT$4into17h24f245bd55a80679E', symObjAddr: 0x29C, symBinAddr: 0x2FAE4, symSize: 0x14 }
  - { offset: 0x73F1D, size: 0x8, addend: 0x0, symName: '__ZN50_$LT$T$u20$as$u20$core..convert..Into$LT$U$GT$$GT$4into17h681014a1078f6335E', symObjAddr: 0x2B0, symBinAddr: 0x2FAF8, symSize: 0x14 }
  - { offset: 0x73F5E, size: 0x8, addend: 0x0, symName: '__ZN50_$LT$T$u20$as$u20$core..convert..Into$LT$U$GT$$GT$4into17hdaa656abdc9b2029E', symObjAddr: 0x2C4, symBinAddr: 0x2FB0C, symSize: 0x14 }
  - { offset: 0x75AA1, size: 0x8, addend: 0x0, symName: __ZN4pyo311type_object10PyTypeInfo16is_type_of_bound17h994e1513ebf80b40E, symObjAddr: 0x0, symBinAddr: 0x2F848, symSize: 0x50 }
  - { offset: 0x75AD6, size: 0x8, addend: 0x0, symName: __ZN4pyo311type_object10PyTypeInfo16is_type_of_bound17hdc497baeedb313fdE, symObjAddr: 0x50, symBinAddr: 0x2F898, symSize: 0x50 }
  - { offset: 0x75B0B, size: 0x8, addend: 0x0, symName: __ZN4pyo311type_object10PyTypeInfo16is_type_of_bound17hf4deedea09a512e1E, symObjAddr: 0xA0, symBinAddr: 0x2F8E8, symSize: 0x50 }
  - { offset: 0x75B40, size: 0x8, addend: 0x0, symName: __ZN4pyo311type_object10PyTypeInfo17type_object_bound17h297bc5a18b227568E, symObjAddr: 0xF0, symBinAddr: 0x2F938, symSize: 0x30 }
  - { offset: 0x75B80, size: 0x8, addend: 0x0, symName: __ZN4pyo311type_object10PyTypeInfo17type_object_bound17h3e8c69dc69d7d497E, symObjAddr: 0x120, symBinAddr: 0x2F968, symSize: 0x30 }
  - { offset: 0x75BC0, size: 0x8, addend: 0x0, symName: __ZN4pyo311type_object10PyTypeInfo17type_object_bound17h5453011368f6ce77E, symObjAddr: 0x150, symBinAddr: 0x2F998, symSize: 0x30 }
  - { offset: 0x75C00, size: 0x8, addend: 0x0, symName: __ZN4pyo311type_object10PyTypeInfo17type_object_bound17h87b7619a2ce35875E, symObjAddr: 0x180, symBinAddr: 0x2F9C8, symSize: 0x30 }
  - { offset: 0x75C40, size: 0x8, addend: 0x0, symName: __ZN4pyo311type_object10PyTypeInfo17type_object_bound17h944fba1962467f0fE, symObjAddr: 0x1B0, symBinAddr: 0x2F9F8, symSize: 0x30 }
  - { offset: 0x75C86, size: 0x8, addend: 0x0, symName: '__ZN52_$LT$T$u20$as$u20$pyo3..type_object..PyTypeCheck$GT$10type_check17h07cd8fc2936dd295E', symObjAddr: 0x2D8, symBinAddr: 0x2FB20, symSize: 0x24 }
  - { offset: 0x75CBB, size: 0x8, addend: 0x0, symName: '__ZN52_$LT$T$u20$as$u20$pyo3..type_object..PyTypeCheck$GT$10type_check17h99355f4fcbc7bf84E', symObjAddr: 0x2FC, symBinAddr: 0x2FB44, symSize: 0x24 }
  - { offset: 0x75CF0, size: 0x8, addend: 0x0, symName: '__ZN52_$LT$T$u20$as$u20$pyo3..type_object..PyTypeCheck$GT$10type_check17hb86015571fc1bd40E', symObjAddr: 0x320, symBinAddr: 0x2FB68, symSize: 0x24 }
  - { offset: 0x75D31, size: 0x8, addend: 0x0, symName: '__ZN4pyo312pyclass_init123_$LT$impl$u20$pyo3..callback..IntoPyCallbackOutput$LT$pyo3..pyclass_init..PyClassInitializer$LT$T$GT$$GT$$u20$for$u20$U$GT$7convert17h77333834731813c8E', symObjAddr: 0x1E0, symBinAddr: 0x2FA28, symSize: 0x68 }
  - { offset: 0x76040, size: 0x8, addend: 0x0, symName: __ZN4pyo35impl_7pyclass11PyClassImpl11dict_offset17h4d36932e3ac1a2d7E, symObjAddr: 0x248, symBinAddr: 0x2FA90, symSize: 0x8 }
  - { offset: 0x76067, size: 0x8, addend: 0x0, symName: __ZN4pyo35impl_7pyclass11PyClassImpl11dict_offset17h714b6be9abac8b28E, symObjAddr: 0x250, symBinAddr: 0x2FA98, symSize: 0x8 }
  - { offset: 0x7608E, size: 0x8, addend: 0x0, symName: __ZN4pyo35impl_7pyclass11PyClassImpl11dict_offset17h82f7f66f1e9c95b7E, symObjAddr: 0x258, symBinAddr: 0x2FAA0, symSize: 0x8 }
  - { offset: 0x760B5, size: 0x8, addend: 0x0, symName: __ZN4pyo35impl_7pyclass11PyClassImpl11dict_offset17h8c9875a2113c0f74E, symObjAddr: 0x260, symBinAddr: 0x2FAA8, symSize: 0x8 }
  - { offset: 0x760DC, size: 0x8, addend: 0x0, symName: __ZN4pyo35impl_7pyclass11PyClassImpl15weaklist_offset17ha3f9a6bc67ace82dE, symObjAddr: 0x268, symBinAddr: 0x2FAB0, symSize: 0x8 }
  - { offset: 0x76103, size: 0x8, addend: 0x0, symName: __ZN4pyo35impl_7pyclass11PyClassImpl15weaklist_offset17hb34eca5f0819abb8E, symObjAddr: 0x270, symBinAddr: 0x2FAB8, symSize: 0x8 }
  - { offset: 0x7612A, size: 0x8, addend: 0x0, symName: __ZN4pyo35impl_7pyclass11PyClassImpl15weaklist_offset17hf0b4c6d2960bd58dE, symObjAddr: 0x278, symBinAddr: 0x2FAC0, symSize: 0x8 }
  - { offset: 0x76151, size: 0x8, addend: 0x0, symName: __ZN4pyo35impl_7pyclass11PyClassImpl15weaklist_offset17hff00d746d7ee83f4E, symObjAddr: 0x280, symBinAddr: 0x2FAC8, symSize: 0x8 }
  - { offset: 0x7673E, size: 0x8, addend: 0x0, symName: '__ZN5_core6python10Incomplete15type_object_raw28_$u7b$$u7b$closure$u7d$$u7d$17h5268f9f693cd1ad5E', symObjAddr: 0x344, symBinAddr: 0x2FB8C, symSize: 0xAC }
  - { offset: 0x76797, size: 0x8, addend: 0x0, symName: '__ZN5_core6python13PyDataManager11zip_dataset28_$u7b$$u7b$closure$u7d$$u7d$17h1a815e93a1bccc71E', symObjAddr: 0x3F0, symBinAddr: 0x2FC38, symSize: 0x28 }
  - { offset: 0x767D0, size: 0x8, addend: 0x0, symName: '__ZN5_core6python13PyDataManager11zip_dataset28_$u7b$$u7b$closure$u7d$$u7d$17hca4f04d854618e16E', symObjAddr: 0x418, symBinAddr: 0x2FC60, symSize: 0x40 }
  - { offset: 0x7681D, size: 0x8, addend: 0x0, symName: '__ZN5_core6python13PyDataManager13list_datasets28_$u7b$$u7b$closure$u7d$$u7d$17h0f1bce9beb2ca772E', symObjAddr: 0x458, symBinAddr: 0x2FCA0, symSize: 0x30 }
  - { offset: 0x76863, size: 0x8, addend: 0x0, symName: '__ZN5_core6python13PyDataManager14active_mission28_$u7b$$u7b$closure$u7d$$u7d$17h2903d1d6bc3757ddE', symObjAddr: 0x488, symBinAddr: 0x2FCD0, symSize: 0x4C }
  - { offset: 0x7689C, size: 0x8, addend: 0x0, symName: '__ZN5_core6python13PyDataManager14active_mission28_$u7b$$u7b$closure$u7d$$u7d$17hc352bfd92b97a162E', symObjAddr: 0x4D4, symBinAddr: 0x2FD1C, symSize: 0x38 }
  - { offset: 0x768E9, size: 0x8, addend: 0x0, symName: '__ZN5_core6python13PyDataManager14remove_mission28_$u7b$$u7b$closure$u7d$$u7d$17h4885269cebe005a1E', symObjAddr: 0x50C, symBinAddr: 0x2FD54, symSize: 0x70 }
  - { offset: 0x76979, size: 0x8, addend: 0x0, symName: '__ZN5_core6python13PyDataManager18push_with_progress28_$u7b$$u7b$closure$u7d$$u7d$17h45626192a67b6a42E', symObjAddr: 0x5A8, symBinAddr: 0x2FDF0, symSize: 0x1C4 }
  - { offset: 0x76A15, size: 0x8, addend: 0x0, symName: '__ZN5_core6python13PyDataManager18push_with_progress28_$u7b$$u7b$closure$u7d$$u7d$17h7b23e71c811f906eE', symObjAddr: 0x76C, symBinAddr: 0x2FFB4, symSize: 0xF4 }
  - { offset: 0x76A67, size: 0x8, addend: 0x0, symName: '__ZN5_core6python13PyDataManager18push_with_progress28_$u7b$$u7b$closure$u7d$$u7d$17hab83039cad0eedf3E', symObjAddr: 0x860, symBinAddr: 0x300A8, symSize: 0x40 }
  - { offset: 0x76AA5, size: 0x8, addend: 0x0, symName: '__ZN5_core6python13PyDataManager18push_with_progress28_$u7b$$u7b$closure$u7d$$u7d$28_$u7b$$u7b$closure$u7d$$u7d$17h9520c2653d2dd93cE', symObjAddr: 0x8A0, symBinAddr: 0x300E8, symSize: 0x48 }
  - { offset: 0x76AF5, size: 0x8, addend: 0x0, symName: '__ZN5_core6python13PyDataManager18push_with_progress28_$u7b$$u7b$closure$u7d$$u7d$28_$u7b$$u7b$closure$u7d$$u7d$28_$u7b$$u7b$closure$u7d$$u7d$17hc4a66bd69dba9df2E', symObjAddr: 0x8E8, symBinAddr: 0x30130, symSize: 0x44 }
  - { offset: 0x76B6D, size: 0x8, addend: 0x0, symName: '__ZN5_core6python13PyDataManager31validate_failures_with_progress28_$u7b$$u7b$closure$u7d$$u7d$17h04ca02ffddd1421eE', symObjAddr: 0x9A8, symBinAddr: 0x301F0, symSize: 0x7C }
  - { offset: 0x76BB3, size: 0x8, addend: 0x0, symName: '__ZN5_core6python13PyDataManager31validate_failures_with_progress28_$u7b$$u7b$closure$u7d$$u7d$28_$u7b$$u7b$closure$u7d$$u7d$17h2fa0b8274cc0ba5cE', symObjAddr: 0xA24, symBinAddr: 0x3026C, symSize: 0x48 }
  - { offset: 0x76C03, size: 0x8, addend: 0x0, symName: '__ZN5_core6python13PyDataManager31validate_failures_with_progress28_$u7b$$u7b$closure$u7d$$u7d$28_$u7b$$u7b$closure$u7d$$u7d$28_$u7b$$u7b$closure$u7d$$u7d$17h30305b70ca604c65E', symObjAddr: 0xA6C, symBinAddr: 0x302B4, symSize: 0x44 }
  - { offset: 0x76C74, size: 0x8, addend: 0x0, symName: '__ZN5_core6python13PyDataManager3add28_$u7b$$u7b$closure$u7d$$u7d$17h396d1186545a059fE', symObjAddr: 0xADC, symBinAddr: 0x30324, symSize: 0x2C }
  - { offset: 0x76C9E, size: 0x8, addend: 0x0, symName: '__ZN5_core6python13PyDataManager3add28_$u7b$$u7b$closure$u7d$$u7d$17h51f910b4d3b16098E', symObjAddr: 0xB08, symBinAddr: 0x30350, symSize: 0x28 }
  - { offset: 0x76CEB, size: 0x8, addend: 0x0, symName: '__ZN5_core6python13PyDataManager4push28_$u7b$$u7b$closure$u7d$$u7d$17h2507e1f1d36d9eb6E', symObjAddr: 0xB30, symBinAddr: 0x30378, symSize: 0x40 }
  - { offset: 0x76D24, size: 0x8, addend: 0x0, symName: '__ZN5_core6python13PyDataManager4push28_$u7b$$u7b$closure$u7d$$u7d$17h70f3b194e05c2010E', symObjAddr: 0xB70, symBinAddr: 0x303B8, symSize: 0x1C4 }
  - { offset: 0x76DCD, size: 0x8, addend: 0x0, symName: '__ZN5_core6python13PyDataManager5reset28_$u7b$$u7b$closure$u7d$$u7d$17hb851cb0901ba1425E', symObjAddr: 0xD34, symBinAddr: 0x3057C, symSize: 0x28 }
  - { offset: 0x76E06, size: 0x8, addend: 0x0, symName: '__ZN5_core6python13PyDataManager5reset28_$u7b$$u7b$closure$u7d$$u7d$17hc6e8aeb832c51bafE', symObjAddr: 0xD5C, symBinAddr: 0x305A4, symSize: 0x38 }
  - { offset: 0x76E53, size: 0x8, addend: 0x0, symName: '__ZN5_core6python13PyDataManager6commit28_$u7b$$u7b$closure$u7d$$u7d$17h87e36174fa0f27baE', symObjAddr: 0xD94, symBinAddr: 0x305DC, symSize: 0x28 }
  - { offset: 0x76E8C, size: 0x8, addend: 0x0, symName: '__ZN5_core6python13PyDataManager6commit28_$u7b$$u7b$closure$u7d$$u7d$17hf5b517e3a3546a7fE', symObjAddr: 0xDBC, symBinAddr: 0x30604, symSize: 0x2C }
  - { offset: 0x76ECA, size: 0x8, addend: 0x0, symName: '__ZN5_core6python13PyDataManager6status28_$u7b$$u7b$closure$u7d$$u7d$17h2345b67a1129e14fE', symObjAddr: 0xDE8, symBinAddr: 0x30630, symSize: 0x4C }
  - { offset: 0x76F03, size: 0x8, addend: 0x0, symName: '__ZN5_core6python13PyDataManager6status28_$u7b$$u7b$closure$u7d$$u7d$17h9262112af368fbb3E', symObjAddr: 0xE34, symBinAddr: 0x3067C, symSize: 0x1B4 }
  - { offset: 0x76F89, size: 0x8, addend: 0x0, symName: '__ZN5_core6python13PyDataManager6status28_$u7b$$u7b$closure$u7d$$u7d$17haeea398b1bbce2c1E', symObjAddr: 0xFE8, symBinAddr: 0x30830, symSize: 0x1F4 }
  - { offset: 0x77062, size: 0x8, addend: 0x0, symName: '__ZN5_core6python13PyDataManager6status28_$u7b$$u7b$closure$u7d$$u7d$17hcfd66a0a2e7e894eE', symObjAddr: 0x11DC, symBinAddr: 0x30A24, symSize: 0x38 }
  - { offset: 0x770A7, size: 0x8, addend: 0x0, symName: '__ZN5_core6python13PyDataManager6status28_$u7b$$u7b$closure$u7d$$u7d$28_$u7b$$u7b$closure$u7d$$u7d$17h5bac5eaa3f9a1cc0E', symObjAddr: 0x1214, symBinAddr: 0x30A5C, symSize: 0x24 }
  - { offset: 0x770E2, size: 0x8, addend: 0x0, symName: '__ZN5_core6python13PyDataManager6status28_$u7b$$u7b$closure$u7d$$u7d$28_$u7b$$u7b$closure$u7d$$u7d$17h6001e9e105796cb3E', symObjAddr: 0x1238, symBinAddr: 0x30A80, symSize: 0x40 }
  - { offset: 0x77128, size: 0x8, addend: 0x0, symName: '__ZN5_core6python13PyDataManager6status28_$u7b$$u7b$closure$u7d$$u7d$28_$u7b$$u7b$closure$u7d$$u7d$17hbdbb87bafe0b243aE', symObjAddr: 0x1278, symBinAddr: 0x30AC0, symSize: 0x40 }
  - { offset: 0x77161, size: 0x8, addend: 0x0, symName: '__ZN5_core6python13PyDataManager6status28_$u7b$$u7b$closure$u7d$$u7d$28_$u7b$$u7b$closure$u7d$$u7d$17hfe1712731e1633d3E', symObjAddr: 0x12B8, symBinAddr: 0x30B00, symSize: 0x40 }
  - { offset: 0x771BD, size: 0x8, addend: 0x0, symName: '__ZN5_core6python13PyDataManager8activate28_$u7b$$u7b$closure$u7d$$u7d$17h35b939056cda09b0E', symObjAddr: 0x12F8, symBinAddr: 0x30B40, symSize: 0x2C }
  - { offset: 0x771E7, size: 0x8, addend: 0x0, symName: '__ZN5_core6python13PyDataManager8activate28_$u7b$$u7b$closure$u7d$$u7d$17heca53e98de58df7bE', symObjAddr: 0x1324, symBinAddr: 0x30B6C, symSize: 0x38 }
  - { offset: 0x7723A, size: 0x8, addend: 0x0, symName: '__ZN5_core6python13PyDataManager16__pymethod_add__28_$u7b$$u7b$closure$u7d$$u7d$17h9b9481dd14f11f4eE', symObjAddr: 0x57C, symBinAddr: 0x2FDC4, symSize: 0x2C }
  - { offset: 0x7726F, size: 0x8, addend: 0x0, symName: '__ZN5_core6python13PyDataManager21__pymethod_activate__28_$u7b$$u7b$closure$u7d$$u7d$17h59b0c516ff665855E', symObjAddr: 0x92C, symBinAddr: 0x30174, symSize: 0x2C }
  - { offset: 0x77297, size: 0x8, addend: 0x0, symName: '__ZN5_core6python13PyDataManager21__pymethod_activate__28_$u7b$$u7b$closure$u7d$$u7d$17h9d83935cb910b2ccE', symObjAddr: 0x958, symBinAddr: 0x301A0, symSize: 0x24 }
  - { offset: 0x772BF, size: 0x8, addend: 0x0, symName: '__ZN5_core6python13PyDataManager21__pymethod_activate__28_$u7b$$u7b$closure$u7d$$u7d$17ha0fa21753aaf48f9E', symObjAddr: 0x97C, symBinAddr: 0x301C4, symSize: 0x2C }
  - { offset: 0x77302, size: 0x8, addend: 0x0, symName: '__ZN5_core6python13PyDataManager32__pymethod_set_set_dataset_dir__28_$u7b$$u7b$closure$u7d$$u7d$17hb1e3873facd7dbb9E', symObjAddr: 0xAB0, symBinAddr: 0x302F8, symSize: 0x2C }
  - { offset: 0x7733D, size: 0x8, addend: 0x0, symName: '__ZN5_core6python14ReadmeNotFound15type_object_raw28_$u7b$$u7b$closure$u7d$$u7d$17hec208bf5942351cbE', symObjAddr: 0x135C, symBinAddr: 0x30BA4, symSize: 0xAC }
  - { offset: 0x773C9, size: 0x8, addend: 0x0, symName: '__ZN5_core6python16CorruptedDataset15type_object_raw28_$u7b$$u7b$closure$u7d$$u7d$17h107b51ade4d302baE', symObjAddr: 0x143C, symBinAddr: 0x30C84, symSize: 0xAC }
  - { offset: 0x77450, size: 0x8, addend: 0x0, symName: '__ZN5_core6python18default_config_dir28_$u7b$$u7b$closure$u7d$$u7d$17h337b6e47a10aa916E', symObjAddr: 0x151C, symBinAddr: 0x30D64, symSize: 0x84 }
  - { offset: 0x7749C, size: 0x8, addend: 0x0, symName: '__ZN5_core6python20ReadmeFilesInStaging15type_object_raw28_$u7b$$u7b$closure$u7d$$u7d$17h2d0ac6e20f941ac0E', symObjAddr: 0x15A0, symBinAddr: 0x30DE8, symSize: 0xAC }
  - { offset: 0x77528, size: 0x8, addend: 0x0, symName: '__ZN5_core6python21MissionFilesInStaging15type_object_raw28_$u7b$$u7b$closure$u7d$$u7d$17h3b4df6ac173e6fbfE', symObjAddr: 0x1680, symBinAddr: 0x30EC8, symSize: 0xAC }
  - { offset: 0x775B4, size: 0x8, addend: 0x0, symName: '__ZN5_core6python9PyDataset12staged_files28_$u7b$$u7b$closure$u7d$$u7d$17h840faf099106279eE', symObjAddr: 0x1760, symBinAddr: 0x30FA8, symSize: 0x4C }
  - { offset: 0x775F7, size: 0x8, addend: 0x0, symName: '__ZN5_core6python9PyDataset4name28_$u7b$$u7b$closure$u7d$$u7d$17h3690ab29851785ecE', symObjAddr: 0x17AC, symBinAddr: 0x30FF4, symSize: 0x40 }
  - { offset: 0x7763A, size: 0x8, addend: 0x0, symName: '__ZN5_core6python9PyDataset8missions28_$u7b$$u7b$closure$u7d$$u7d$17hd543930294765ad6E', symObjAddr: 0x17EC, symBinAddr: 0x31034, symSize: 0x58 }
  - { offset: 0x77683, size: 0x8, addend: 0x0, symName: '__ZN78_$LT$_core..python..PyDataset$u20$as$u20$pyo3..impl_..pyclass..PyClassImpl$GT$3doc28_$u7b$$u7b$closure$u7d$$u7d$17hc0f6c7f7dc385055E', symObjAddr: 0x1844, symBinAddr: 0x3108C, symSize: 0x58 }
  - { offset: 0x776DB, size: 0x8, addend: 0x0, symName: '__ZN78_$LT$_core..python..PyMission$u20$as$u20$pyo3..impl_..pyclass..PyClassImpl$GT$3doc28_$u7b$$u7b$closure$u7d$$u7d$17h3cdf470cb808179dE', symObjAddr: 0x189C, symBinAddr: 0x310E4, symSize: 0x58 }
  - { offset: 0x77738, size: 0x8, addend: 0x0, symName: '__ZN81_$LT$_core..python..PyStagedFile$u20$as$u20$pyo3..impl_..pyclass..PyClassImpl$GT$10items_iter15INTRINSIC_ITEMS28_$u7b$$u7b$closure$u7d$$u7d$17h5624f75939ea939dE', symObjAddr: 0x18F4, symBinAddr: 0x3113C, symSize: 0x44 }
  - { offset: 0x77760, size: 0x8, addend: 0x0, symName: '__ZN81_$LT$_core..python..PyStagedFile$u20$as$u20$pyo3..impl_..pyclass..PyClassImpl$GT$10items_iter15INTRINSIC_ITEMS28_$u7b$$u7b$closure$u7d$$u7d$17h8980e5ed9d547b47E', symObjAddr: 0x1938, symBinAddr: 0x31180, symSize: 0x44 }
  - { offset: 0x77788, size: 0x8, addend: 0x0, symName: '__ZN81_$LT$_core..python..PyStagedFile$u20$as$u20$pyo3..impl_..pyclass..PyClassImpl$GT$10items_iter15INTRINSIC_ITEMS28_$u7b$$u7b$closure$u7d$$u7d$17haff9e5dc2afbea45E', symObjAddr: 0x197C, symBinAddr: 0x311C4, symSize: 0x44 }
  - { offset: 0x777CC, size: 0x8, addend: 0x0, symName: '__ZN81_$LT$_core..python..PyStagedFile$u20$as$u20$pyo3..impl_..pyclass..PyClassImpl$GT$3doc28_$u7b$$u7b$closure$u7d$$u7d$17hb6c802866f2d3dd8E', symObjAddr: 0x19C0, symBinAddr: 0x31208, symSize: 0x58 }
  - { offset: 0x77824, size: 0x8, addend: 0x0, symName: '__ZN82_$LT$_core..python..PyDataManager$u20$as$u20$pyo3..impl_..pyclass..PyClassImpl$GT$3doc28_$u7b$$u7b$closure$u7d$$u7d$17h1e017b358edb848dE', symObjAddr: 0x1A18, symBinAddr: 0x31260, symSize: 0x54 }
  - { offset: 0x784D3, size: 0x8, addend: 0x0, symName: __ZN5_core6python14ReadmeNotFound7new_err17h5aeccb21861c7cb1E, symObjAddr: 0x1408, symBinAddr: 0x30C50, symSize: 0x34 }
  - { offset: 0x784FF, size: 0x8, addend: 0x0, symName: __ZN5_core6python16CorruptedDataset7new_err17h55a64f63d9005ffbE, symObjAddr: 0x14E8, symBinAddr: 0x30D30, symSize: 0x34 }
  - { offset: 0x7852B, size: 0x8, addend: 0x0, symName: __ZN5_core6python20ReadmeFilesInStaging7new_err17h556bf1797d0c2435E, symObjAddr: 0x164C, symBinAddr: 0x30E94, symSize: 0x34 }
  - { offset: 0x78557, size: 0x8, addend: 0x0, symName: __ZN5_core6python21MissionFilesInStaging7new_err17h60319ac75bd48b09E, symObjAddr: 0x172C, symBinAddr: 0x30F74, symSize: 0x34 }
  - { offset: 0x78C59, size: 0x8, addend: 0x0, symName: __ZN4core5slice20copy_from_slice_impl17h6d2c01e677955270E, symObjAddr: 0x0, symBinAddr: 0x312B4, symSize: 0xAC }
  - { offset: 0x79484, size: 0x8, addend: 0x0, symName: '__ZN4core5slice29_$LT$impl$u20$$u5b$T$u5d$$GT$16chunks_exact_mut17h866ece51675fccf7E', symObjAddr: 0xAC, symBinAddr: 0x31360, symSize: 0xF0 }
  - { offset: 0x79569, size: 0x8, addend: 0x0, symName: '__ZN4core5slice29_$LT$impl$u20$$u5b$T$u5d$$GT$22split_at_mut_unchecked17h437969771fed3facE', symObjAddr: 0x19C, symBinAddr: 0x31450, symSize: 0xF4 }
  - { offset: 0x796BD, size: 0x8, addend: 0x0, symName: '__ZN4core5slice29_$LT$impl$u20$$u5b$T$u5d$$GT$6chunks17h83e19a49695eda07E', symObjAddr: 0x290, symBinAddr: 0x31544, symSize: 0x84 }
  - { offset: 0x7972E, size: 0x8, addend: 0x0, symName: '__ZN4core5slice29_$LT$impl$u20$$u5b$T$u5d$$GT$7reverse7revswap17haa2f4185ee76578dE', symObjAddr: 0x314, symBinAddr: 0x315C8, symSize: 0x1B4 }
  - { offset: 0x797F0, size: 0x8, addend: 0x0, symName: '__ZN4core5slice29_$LT$impl$u20$$u5b$T$u5d$$GT$8iter_mut17hd1ad5c4ec37641d3E', symObjAddr: 0x4C8, symBinAddr: 0x3177C, symSize: 0x28 }
  - { offset: 0x79828, size: 0x8, addend: 0x0, symName: __ZN4core5slice20copy_from_slice_impl17h6d2c01e677955270E, symObjAddr: 0x0, symBinAddr: 0x312B4, symSize: 0xAC }
  - { offset: 0x7AE92, size: 0x8, addend: 0x0, symName: __ZN4core5slice4sort6shared5pivot11median3_rec17haade4ae3ea9b2fdaE, symObjAddr: 0x0, symBinAddr: 0x317A4, symSize: 0x1E0 }
  - { offset: 0x7B087, size: 0x8, addend: 0x0, symName: __ZN4core5slice4sort6shared5pivot11median3_rec17haade4ae3ea9b2fdaE, symObjAddr: 0x0, symBinAddr: 0x317A4, symSize: 0x1E0 }
  - { offset: 0x7B28B, size: 0x8, addend: 0x0, symName: __ZN4core5slice4sort6shared5pivot12choose_pivot17hd1c9f47ee474265fE, symObjAddr: 0x1E0, symBinAddr: 0x31984, symSize: 0x244 }
  - { offset: 0x7B779, size: 0x8, addend: 0x0, symName: __ZN4pyo35types4list13new_from_iter17hb10acb66384fe609E, symObjAddr: 0x0, symBinAddr: 0x31BC8, symSize: 0x2A8 }
  - { offset: 0x7C94D, size: 0x8, addend: 0x0, symName: __ZN4pyo35types4list13new_from_iter17hb10acb66384fe609E, symObjAddr: 0x0, symBinAddr: 0x31BC8, symSize: 0x2A8 }
  - { offset: 0x7D0A1, size: 0x8, addend: 0x0, symName: '__ZN5_core7manager11DataManager21ensure_active_dataset28_$u7b$$u7b$closure$u7d$$u7d$17h144eeea20ec31518E', symObjAddr: 0x0, symBinAddr: 0x31E70, symSize: 0x54 }
  - { offset: 0x7D878, size: 0x8, addend: 0x0, symName: '__ZN5_core7manager11DataManager21ensure_active_dataset28_$u7b$$u7b$closure$u7d$$u7d$17h144eeea20ec31518E', symObjAddr: 0x0, symBinAddr: 0x31E70, symSize: 0x54 }
  - { offset: 0x7D8AD, size: 0x8, addend: 0x0, symName: '__ZN5_core7manager11DataManager24sync_active_dataset_info28_$u7b$$u7b$closure$u7d$$u7d$17h14921d506f3a3b3bE', symObjAddr: 0x54, symBinAddr: 0x31EC4, symSize: 0x38 }
  - { offset: 0x7D8F0, size: 0x8, addend: 0x0, symName: '__ZN5_core7manager11DataManager4load28_$u7b$$u7b$closure$u7d$$u7d$17hd1aec5986f6a4f74E', symObjAddr: 0x8C, symBinAddr: 0x31EFC, symSize: 0x28 }
  - { offset: 0x7D939, size: 0x8, addend: 0x0, symName: '__ZN5_core7manager16DataManagerState12find_dataset28_$u7b$$u7b$closure$u7d$$u7d$17hb227e6f0687aeebaE', symObjAddr: 0xB4, symBinAddr: 0x31F24, symSize: 0x38 }
  - { offset: 0x7D97C, size: 0x8, addend: 0x0, symName: '__ZN5_core7manager16DataManagerState19remove_dataset_info28_$u7b$$u7b$closure$u7d$$u7d$17h9e845c0be140051eE', symObjAddr: 0xEC, symBinAddr: 0x31F5C, symSize: 0x38 }
  - { offset: 0x7D9BF, size: 0x8, addend: 0x0, symName: '__ZN5_core7manager16DataManagerState19upsert_dataset_info28_$u7b$$u7b$closure$u7d$$u7d$17h14823cf5aca2f63dE', symObjAddr: 0x124, symBinAddr: 0x31F94, symSize: 0x38 }
  - { offset: 0x7DA02, size: 0x8, addend: 0x0, symName: '__ZN5_core7manager16DataManagerState4load28_$u7b$$u7b$closure$u7d$$u7d$17hd16cb108f58264c9E', symObjAddr: 0x15C, symBinAddr: 0x31FCC, symSize: 0x38 }
  - { offset: 0x7DA37, size: 0x8, addend: 0x0, symName: '__ZN5_core7manager18default_config_dir28_$u7b$$u7b$closure$u7d$$u7d$17hfe8062dd30a8b6cbE', symObjAddr: 0x194, symBinAddr: 0x32004, symSize: 0x74 }
  - { offset: 0x7E3C7, size: 0x8, addend: 0x0, symName: '__ZN10serde_core3ser5impls62_$LT$impl$u20$serde_core..ser..Serialize$u20$for$u20$$RF$T$GT$9serialize17h213c9b4e65e75e54E', symObjAddr: 0x0, symBinAddr: 0x32078, symSize: 0x30 }
  - { offset: 0x7E7A2, size: 0x8, addend: 0x0, symName: '__ZN10serde_json5value3ser81_$LT$impl$u20$serde_core..ser..Serialize$u20$for$u20$serde_json..value..Value$GT$9serialize17h889e0f79b9d3b1b8E', symObjAddr: 0x60, symBinAddr: 0x320D8, symSize: 0x35C }
  - { offset: 0x7E917, size: 0x8, addend: 0x0, symName: '__ZN10serde_json5value3ser81_$LT$impl$u20$serde_core..ser..Serialize$u20$for$u20$serde_json..value..Value$GT$9serialize17hf82dc64b16e66b38E', symObjAddr: 0x3BC, symBinAddr: 0x32434, symSize: 0x35C }
  - { offset: 0x7EEF9, size: 0x8, addend: 0x0, symName: '__ZN10serde_core3ser5impls62_$LT$impl$u20$serde_core..ser..Serialize$u20$for$u20$$RF$T$GT$9serialize17h213c9b4e65e75e54E', symObjAddr: 0x0, symBinAddr: 0x32078, symSize: 0x30 }
  - { offset: 0x7EF48, size: 0x8, addend: 0x0, symName: '__ZN10serde_core3ser5impls62_$LT$impl$u20$serde_core..ser..Serialize$u20$for$u20$$RF$T$GT$9serialize17h42f0d7605b58dfbbE', symObjAddr: 0x30, symBinAddr: 0x320A8, symSize: 0x30 }
  - { offset: 0x7FB64, size: 0x8, addend: 0x0, symName: '__ZN4core5slice29_$LT$impl$u20$$u5b$T$u5d$$GT$18split_at_unchecked18precondition_check17h3b7b7a5ed4d71d4bE', symObjAddr: 0x0, symBinAddr: 0x32790, symSize: 0x60 }
  - { offset: 0x7FB85, size: 0x8, addend: 0x0, symName: '__ZN4core5slice29_$LT$impl$u20$$u5b$T$u5d$$GT$18split_at_unchecked18precondition_check17h3b7b7a5ed4d71d4bE', symObjAddr: 0x0, symBinAddr: 0x32790, symSize: 0x60 }
  - { offset: 0x7FBDE, size: 0x8, addend: 0x0, symName: '__ZN4core5slice29_$LT$impl$u20$$u5b$T$u5d$$GT$22split_at_mut_unchecked18precondition_check17h55fca2460b00b501E', symObjAddr: 0x60, symBinAddr: 0x327F0, symSize: 0x60 }
  - { offset: 0x7FC88, size: 0x8, addend: 0x0, symName: '__ZN3std4sync6poison5mutex14Mutex$LT$T$GT$10into_inner17he519199757562c35E', symObjAddr: 0x0, symBinAddr: 0x32850, symSize: 0x118 }
  - { offset: 0x80029, size: 0x8, addend: 0x0, symName: '__ZN3std4sync6poison5mutex14Mutex$LT$T$GT$10into_inner28_$u7b$$u7b$closure$u7d$$u7d$17h0dd15ac8f5568819E', symObjAddr: 0x118, symBinAddr: 0x32968, symSize: 0x30 }
  - { offset: 0x800C2, size: 0x8, addend: 0x0, symName: '__ZN3std4sync6poison5mutex19MutexGuard$LT$T$GT$3new28_$u7b$$u7b$closure$u7d$$u7d$17hf25431e8c1c39673E', symObjAddr: 0x344, symBinAddr: 0x32B94, symSize: 0x18 }
  - { offset: 0x80111, size: 0x8, addend: 0x0, symName: '__ZN89_$LT$std..sync..poison..mutex..MutexGuard$LT$T$GT$$u20$as$u20$core..ops..deref..Deref$GT$5deref17hfce5b38eed48ae3dE', symObjAddr: 0x35C, symBinAddr: 0x32BAC, symSize: 0x1C }
  - { offset: 0x80163, size: 0x8, addend: 0x0, symName: '__ZN92_$LT$std..sync..poison..mutex..MutexGuard$LT$T$GT$$u20$as$u20$core..ops..deref..DerefMut$GT$9deref_mut17h5ee338146dcc8e57E', symObjAddr: 0x378, symBinAddr: 0x32BC8, symSize: 0x1C }
  - { offset: 0x81731, size: 0x8, addend: 0x0, symName: '__ZN3std4sync6poison5mutex14Mutex$LT$T$GT$10into_inner17he519199757562c35E', symObjAddr: 0x0, symBinAddr: 0x32850, symSize: 0x118 }
  - { offset: 0x8183F, size: 0x8, addend: 0x0, symName: '__ZN3std4sync6poison5mutex14Mutex$LT$T$GT$3new17h77e5f69be42bc505E', symObjAddr: 0x148, symBinAddr: 0x32998, symSize: 0x7C }
  - { offset: 0x81951, size: 0x8, addend: 0x0, symName: '__ZN3std4sync6poison5mutex14Mutex$LT$T$GT$4lock17h9fbfd3caef1625cdE', symObjAddr: 0x1C4, symBinAddr: 0x32A14, symSize: 0x48 }
  - { offset: 0x81A16, size: 0x8, addend: 0x0, symName: '__ZN3std4sync6poison5mutex14Mutex$LT$T$GT$8try_lock17h492a732470179785E', symObjAddr: 0x20C, symBinAddr: 0x32A5C, symSize: 0x138 }
  - { offset: 0x81BEA, size: 0x8, addend: 0x0, symName: __ZN10rayon_core4join12join_context17h0c03f53f509950f7E, symObjAddr: 0x0, symBinAddr: 0x32BE4, symSize: 0x58 }
  - { offset: 0x84845, size: 0x8, addend: 0x0, symName: __ZN10rayon_core4join12join_context17h0c03f53f509950f7E, symObjAddr: 0x0, symBinAddr: 0x32BE4, symSize: 0x58 }
  - { offset: 0x848A5, size: 0x8, addend: 0x0, symName: __ZN10rayon_core4join12join_context17h10ee01fb97ac8db2E, symObjAddr: 0x58, symBinAddr: 0x32C3C, symSize: 0x58 }
  - { offset: 0x84905, size: 0x8, addend: 0x0, symName: __ZN10rayon_core4join12join_context17h1f08a293558b2701E, symObjAddr: 0xB0, symBinAddr: 0x32C94, symSize: 0x58 }
  - { offset: 0x84965, size: 0x8, addend: 0x0, symName: __ZN10rayon_core4join12join_context17h234a1d52a9ec90beE, symObjAddr: 0x108, symBinAddr: 0x32CEC, symSize: 0x58 }
  - { offset: 0x849C5, size: 0x8, addend: 0x0, symName: __ZN10rayon_core4join12join_context17h298712fb9740ebe1E, symObjAddr: 0x160, symBinAddr: 0x32D44, symSize: 0x58 }
  - { offset: 0x84A25, size: 0x8, addend: 0x0, symName: __ZN10rayon_core4join12join_context17h5ac47a371e66e90fE, symObjAddr: 0x1B8, symBinAddr: 0x32D9C, symSize: 0x58 }
  - { offset: 0x84A85, size: 0x8, addend: 0x0, symName: __ZN10rayon_core4join12join_context17h8e29b82576e52d31E, symObjAddr: 0x210, symBinAddr: 0x32DF4, symSize: 0x50 }
  - { offset: 0x84AE1, size: 0x8, addend: 0x0, symName: __ZN10rayon_core4join12join_context17ha87a9b7c05accdc0E, symObjAddr: 0x260, symBinAddr: 0x32E44, symSize: 0x58 }
  - { offset: 0x84B41, size: 0x8, addend: 0x0, symName: __ZN10rayon_core4join12join_context17hd45ab8c374e584c7E, symObjAddr: 0x2B8, symBinAddr: 0x32E9C, symSize: 0x50 }
  - { offset: 0x84B9D, size: 0x8, addend: 0x0, symName: __ZN10rayon_core4join12join_context17hf29ff5f58459e12dE, symObjAddr: 0x308, symBinAddr: 0x32EEC, symSize: 0x50 }
  - { offset: 0x84BF9, size: 0x8, addend: 0x0, symName: __ZN10rayon_core4join12join_context17hf30ae79205ec1265E, symObjAddr: 0x358, symBinAddr: 0x32F3C, symSize: 0x58 }
  - { offset: 0x84C59, size: 0x8, addend: 0x0, symName: __ZN10rayon_core4join12join_context17hf74508b8aeabc116E, symObjAddr: 0x3B0, symBinAddr: 0x32F94, symSize: 0x50 }
  - { offset: 0x84CBA, size: 0x8, addend: 0x0, symName: '__ZN10rayon_core4join12join_context28_$u7b$$u7b$closure$u7d$$u7d$17h0ab328b11203bc1bE', symObjAddr: 0x400, symBinAddr: 0x32FE4, symSize: 0x4B8 }
  - { offset: 0x84E15, size: 0x8, addend: 0x0, symName: '__ZN10rayon_core4join12join_context28_$u7b$$u7b$closure$u7d$$u7d$17h0ae119d405fb0b01E', symObjAddr: 0x8B8, symBinAddr: 0x3349C, symSize: 0x4B8 }
  - { offset: 0x84F70, size: 0x8, addend: 0x0, symName: '__ZN10rayon_core4join12join_context28_$u7b$$u7b$closure$u7d$$u7d$17h0dcf36caa8cadd86E', symObjAddr: 0xD70, symBinAddr: 0x33954, symSize: 0x4B8 }
  - { offset: 0x850CB, size: 0x8, addend: 0x0, symName: '__ZN10rayon_core4join12join_context28_$u7b$$u7b$closure$u7d$$u7d$17h4b5c7a543f3c7cd2E', symObjAddr: 0x1228, symBinAddr: 0x33E0C, symSize: 0x40C }
  - { offset: 0x8521F, size: 0x8, addend: 0x0, symName: '__ZN10rayon_core4join12join_context28_$u7b$$u7b$closure$u7d$$u7d$17h4cb6b16ec6013eb1E', symObjAddr: 0x1634, symBinAddr: 0x34218, symSize: 0x4B8 }
  - { offset: 0x8537A, size: 0x8, addend: 0x0, symName: '__ZN10rayon_core4join12join_context28_$u7b$$u7b$closure$u7d$$u7d$17h60035550e4856d65E', symObjAddr: 0x1AEC, symBinAddr: 0x346D0, symSize: 0x40C }
  - { offset: 0x854CE, size: 0x8, addend: 0x0, symName: '__ZN10rayon_core4join12join_context28_$u7b$$u7b$closure$u7d$$u7d$17h65be38947b24980cE', symObjAddr: 0x1EF8, symBinAddr: 0x34ADC, symSize: 0x40C }
  - { offset: 0x85622, size: 0x8, addend: 0x0, symName: '__ZN10rayon_core4join12join_context28_$u7b$$u7b$closure$u7d$$u7d$17h81fd9c0eb2327c02E', symObjAddr: 0x2304, symBinAddr: 0x34EE8, symSize: 0x4B8 }
  - { offset: 0x8577D, size: 0x8, addend: 0x0, symName: '__ZN10rayon_core4join12join_context28_$u7b$$u7b$closure$u7d$$u7d$17h931b1a6a00845d9eE', symObjAddr: 0x27BC, symBinAddr: 0x353A0, symSize: 0x40C }
  - { offset: 0x858D1, size: 0x8, addend: 0x0, symName: '__ZN10rayon_core4join12join_context28_$u7b$$u7b$closure$u7d$$u7d$17haf4eef5f0864620dE', symObjAddr: 0x2BC8, symBinAddr: 0x357AC, symSize: 0x4B8 }
  - { offset: 0x85A2C, size: 0x8, addend: 0x0, symName: '__ZN10rayon_core4join12join_context28_$u7b$$u7b$closure$u7d$$u7d$17hf0999eef9f977e35E', symObjAddr: 0x3080, symBinAddr: 0x35C64, symSize: 0x4B8 }
  - { offset: 0x85B87, size: 0x8, addend: 0x0, symName: '__ZN10rayon_core4join12join_context28_$u7b$$u7b$closure$u7d$$u7d$17hf9814e924c45a727E', symObjAddr: 0x3538, symBinAddr: 0x3611C, symSize: 0x4B8 }
  - { offset: 0x85CE2, size: 0x8, addend: 0x0, symName: __ZN10rayon_core4join12join_context6call_a17h11e863659a633b8dE, symObjAddr: 0x39F0, symBinAddr: 0x365D4, symSize: 0x50 }
  - { offset: 0x85D2F, size: 0x8, addend: 0x0, symName: __ZN10rayon_core4join12join_context6call_a17h1233506ae23f8dfaE, symObjAddr: 0x3A40, symBinAddr: 0x36624, symSize: 0x50 }
  - { offset: 0x85D7C, size: 0x8, addend: 0x0, symName: __ZN10rayon_core4join12join_context6call_a17h1e827649885780daE, symObjAddr: 0x3A90, symBinAddr: 0x36674, symSize: 0x50 }
  - { offset: 0x85DC9, size: 0x8, addend: 0x0, symName: __ZN10rayon_core4join12join_context6call_a17h1f1788c85bd221a0E, symObjAddr: 0x3AE0, symBinAddr: 0x366C4, symSize: 0x50 }
  - { offset: 0x85E16, size: 0x8, addend: 0x0, symName: __ZN10rayon_core4join12join_context6call_a17h8f55ba18c2bed3b0E, symObjAddr: 0x3B30, symBinAddr: 0x36714, symSize: 0x50 }
  - { offset: 0x85E63, size: 0x8, addend: 0x0, symName: __ZN10rayon_core4join12join_context6call_a17hb35de363ca364d95E, symObjAddr: 0x3B80, symBinAddr: 0x36764, symSize: 0x50 }
  - { offset: 0x85EB0, size: 0x8, addend: 0x0, symName: __ZN10rayon_core4join12join_context6call_a17hc99063c7696a3ad8E, symObjAddr: 0x3BD0, symBinAddr: 0x367B4, symSize: 0x50 }
  - { offset: 0x85EFD, size: 0x8, addend: 0x0, symName: __ZN10rayon_core4join12join_context6call_a17hca754ae9672bcddaE, symObjAddr: 0x3C20, symBinAddr: 0x36804, symSize: 0x50 }
  - { offset: 0x85F4A, size: 0x8, addend: 0x0, symName: __ZN10rayon_core4join12join_context6call_a17he34c14dab90cf1fbE, symObjAddr: 0x3C70, symBinAddr: 0x36854, symSize: 0x50 }
  - { offset: 0x85F97, size: 0x8, addend: 0x0, symName: __ZN10rayon_core4join12join_context6call_a17hedd6bae3bc92be06E, symObjAddr: 0x3CC0, symBinAddr: 0x368A4, symSize: 0x50 }
  - { offset: 0x85FE4, size: 0x8, addend: 0x0, symName: __ZN10rayon_core4join12join_context6call_a17hf15d63e94e2acad6E, symObjAddr: 0x3D10, symBinAddr: 0x368F4, symSize: 0x50 }
  - { offset: 0x86031, size: 0x8, addend: 0x0, symName: __ZN10rayon_core4join12join_context6call_a17hf22621a92cbbed6bE, symObjAddr: 0x3D60, symBinAddr: 0x36944, symSize: 0x50 }
  - { offset: 0x86083, size: 0x8, addend: 0x0, symName: '__ZN10rayon_core4join12join_context6call_a28_$u7b$$u7b$closure$u7d$$u7d$17h188f1e8879d2580fE', symObjAddr: 0x3DB0, symBinAddr: 0x36994, symSize: 0x94 }
  - { offset: 0x860CF, size: 0x8, addend: 0x0, symName: '__ZN10rayon_core4join12join_context6call_a28_$u7b$$u7b$closure$u7d$$u7d$17h29c6a78c1be0d239E', symObjAddr: 0x3E44, symBinAddr: 0x36A28, symSize: 0x94 }
  - { offset: 0x8611B, size: 0x8, addend: 0x0, symName: '__ZN10rayon_core4join12join_context6call_a28_$u7b$$u7b$closure$u7d$$u7d$17h2a580caa3f3e451eE', symObjAddr: 0x3ED8, symBinAddr: 0x36ABC, symSize: 0x94 }
  - { offset: 0x86167, size: 0x8, addend: 0x0, symName: '__ZN10rayon_core4join12join_context6call_a28_$u7b$$u7b$closure$u7d$$u7d$17h5eb9a0425802c4edE', symObjAddr: 0x3F6C, symBinAddr: 0x36B50, symSize: 0x94 }
  - { offset: 0x861B3, size: 0x8, addend: 0x0, symName: '__ZN10rayon_core4join12join_context6call_a28_$u7b$$u7b$closure$u7d$$u7d$17h64f79d7088e88a69E', symObjAddr: 0x4000, symBinAddr: 0x36BE4, symSize: 0x9C }
  - { offset: 0x86203, size: 0x8, addend: 0x0, symName: '__ZN10rayon_core4join12join_context6call_a28_$u7b$$u7b$closure$u7d$$u7d$17h89473baf3bef4204E', symObjAddr: 0x409C, symBinAddr: 0x36C80, symSize: 0x9C }
  - { offset: 0x86253, size: 0x8, addend: 0x0, symName: '__ZN10rayon_core4join12join_context6call_a28_$u7b$$u7b$closure$u7d$$u7d$17ha1eb70f7a4d8a0d7E', symObjAddr: 0x4138, symBinAddr: 0x36D1C, symSize: 0x9C }
  - { offset: 0x862A3, size: 0x8, addend: 0x0, symName: '__ZN10rayon_core4join12join_context6call_a28_$u7b$$u7b$closure$u7d$$u7d$17ha4e3ca991cc6ae5dE', symObjAddr: 0x41D4, symBinAddr: 0x36DB8, symSize: 0x9C }
  - { offset: 0x862F3, size: 0x8, addend: 0x0, symName: '__ZN10rayon_core4join12join_context6call_a28_$u7b$$u7b$closure$u7d$$u7d$17ha97e481ee609eaa1E', symObjAddr: 0x4270, symBinAddr: 0x36E54, symSize: 0x9C }
  - { offset: 0x86343, size: 0x8, addend: 0x0, symName: '__ZN10rayon_core4join12join_context6call_a28_$u7b$$u7b$closure$u7d$$u7d$17hcc50793606307f4dE', symObjAddr: 0x430C, symBinAddr: 0x36EF0, symSize: 0x9C }
  - { offset: 0x86393, size: 0x8, addend: 0x0, symName: '__ZN10rayon_core4join12join_context6call_a28_$u7b$$u7b$closure$u7d$$u7d$17he95f26a34db571b6E', symObjAddr: 0x43A8, symBinAddr: 0x36F8C, symSize: 0x9C }
  - { offset: 0x863E3, size: 0x8, addend: 0x0, symName: '__ZN10rayon_core4join12join_context6call_a28_$u7b$$u7b$closure$u7d$$u7d$17hf107b30f2028325eE', symObjAddr: 0x4444, symBinAddr: 0x37028, symSize: 0x9C }
  - { offset: 0x8659C, size: 0x8, addend: 0x0, symName: __ZN10rayon_core4join12join_context6call_b17h15942094f3a7ae0aE, symObjAddr: 0x44E0, symBinAddr: 0x370C4, symSize: 0x30 }
  - { offset: 0x865DB, size: 0x8, addend: 0x0, symName: __ZN10rayon_core4join12join_context6call_b17h15df07cdbf12e79fE, symObjAddr: 0x4510, symBinAddr: 0x370F4, symSize: 0x30 }
  - { offset: 0x8661A, size: 0x8, addend: 0x0, symName: __ZN10rayon_core4join12join_context6call_b17h495264005d29063eE, symObjAddr: 0x4540, symBinAddr: 0x37124, symSize: 0x30 }
  - { offset: 0x86659, size: 0x8, addend: 0x0, symName: __ZN10rayon_core4join12join_context6call_b17h5de33f0e759cb23fE, symObjAddr: 0x4570, symBinAddr: 0x37154, symSize: 0x30 }
  - { offset: 0x86698, size: 0x8, addend: 0x0, symName: __ZN10rayon_core4join12join_context6call_b17h68ac2a19d26e1865E, symObjAddr: 0x45A0, symBinAddr: 0x37184, symSize: 0x30 }
  - { offset: 0x866D7, size: 0x8, addend: 0x0, symName: __ZN10rayon_core4join12join_context6call_b17h6e60e245c957086bE, symObjAddr: 0x45D0, symBinAddr: 0x371B4, symSize: 0x30 }
  - { offset: 0x86716, size: 0x8, addend: 0x0, symName: __ZN10rayon_core4join12join_context6call_b17h76fcbf68ee10ec50E, symObjAddr: 0x4600, symBinAddr: 0x371E4, symSize: 0x30 }
  - { offset: 0x86755, size: 0x8, addend: 0x0, symName: __ZN10rayon_core4join12join_context6call_b17h8f1c47bcce2475f0E, symObjAddr: 0x4630, symBinAddr: 0x37214, symSize: 0x30 }
  - { offset: 0x86794, size: 0x8, addend: 0x0, symName: __ZN10rayon_core4join12join_context6call_b17h9ebb02557bd47eebE, symObjAddr: 0x4660, symBinAddr: 0x37244, symSize: 0x30 }
  - { offset: 0x867D3, size: 0x8, addend: 0x0, symName: __ZN10rayon_core4join12join_context6call_b17hb36230b39276c438E, symObjAddr: 0x4690, symBinAddr: 0x37274, symSize: 0x30 }
  - { offset: 0x86812, size: 0x8, addend: 0x0, symName: __ZN10rayon_core4join12join_context6call_b17hbe807575af7f9a54E, symObjAddr: 0x46C0, symBinAddr: 0x372A4, symSize: 0x30 }
  - { offset: 0x86851, size: 0x8, addend: 0x0, symName: __ZN10rayon_core4join12join_context6call_b17hf19e4c8744fdcca0E, symObjAddr: 0x46F0, symBinAddr: 0x372D4, symSize: 0x30 }
  - { offset: 0x86895, size: 0x8, addend: 0x0, symName: '__ZN10rayon_core4join12join_context6call_b28_$u7b$$u7b$closure$u7d$$u7d$17h0295cb711255bef5E', symObjAddr: 0x4720, symBinAddr: 0x37304, symSize: 0x98 }
  - { offset: 0x868DF, size: 0x8, addend: 0x0, symName: '__ZN10rayon_core4join12join_context6call_b28_$u7b$$u7b$closure$u7d$$u7d$17h0dd4442446166210E', symObjAddr: 0x47B8, symBinAddr: 0x3739C, symSize: 0xA0 }
  - { offset: 0x8692D, size: 0x8, addend: 0x0, symName: '__ZN10rayon_core4join12join_context6call_b28_$u7b$$u7b$closure$u7d$$u7d$17h1066e61fba596913E', symObjAddr: 0x4858, symBinAddr: 0x3743C, symSize: 0x98 }
  - { offset: 0x86977, size: 0x8, addend: 0x0, symName: '__ZN10rayon_core4join12join_context6call_b28_$u7b$$u7b$closure$u7d$$u7d$17h10ffe1d27a373943E', symObjAddr: 0x48F0, symBinAddr: 0x374D4, symSize: 0xA0 }
  - { offset: 0x869C5, size: 0x8, addend: 0x0, symName: '__ZN10rayon_core4join12join_context6call_b28_$u7b$$u7b$closure$u7d$$u7d$17h131dd7d7afceb1fbE', symObjAddr: 0x4990, symBinAddr: 0x37574, symSize: 0x98 }
  - { offset: 0x86A0F, size: 0x8, addend: 0x0, symName: '__ZN10rayon_core4join12join_context6call_b28_$u7b$$u7b$closure$u7d$$u7d$17h1ffc52b8f4bd77e5E', symObjAddr: 0x4A28, symBinAddr: 0x3760C, symSize: 0xA0 }
  - { offset: 0x86A5D, size: 0x8, addend: 0x0, symName: '__ZN10rayon_core4join12join_context6call_b28_$u7b$$u7b$closure$u7d$$u7d$17h25c5ff983b1dc7c5E', symObjAddr: 0x4AC8, symBinAddr: 0x376AC, symSize: 0xA0 }
  - { offset: 0x86AAB, size: 0x8, addend: 0x0, symName: '__ZN10rayon_core4join12join_context6call_b28_$u7b$$u7b$closure$u7d$$u7d$17h2d735224a736f426E', symObjAddr: 0x4B68, symBinAddr: 0x3774C, symSize: 0x98 }
  - { offset: 0x86AF5, size: 0x8, addend: 0x0, symName: '__ZN10rayon_core4join12join_context6call_b28_$u7b$$u7b$closure$u7d$$u7d$17h3fa10033222b5142E', symObjAddr: 0x4C00, symBinAddr: 0x377E4, symSize: 0xA0 }
  - { offset: 0x86B43, size: 0x8, addend: 0x0, symName: '__ZN10rayon_core4join12join_context6call_b28_$u7b$$u7b$closure$u7d$$u7d$17h79489772d5e9c24cE', symObjAddr: 0x4CA0, symBinAddr: 0x37884, symSize: 0xA0 }
  - { offset: 0x86B91, size: 0x8, addend: 0x0, symName: '__ZN10rayon_core4join12join_context6call_b28_$u7b$$u7b$closure$u7d$$u7d$17hb38f1966e3eb300eE', symObjAddr: 0x4D40, symBinAddr: 0x37924, symSize: 0xA0 }
  - { offset: 0x86BDF, size: 0x8, addend: 0x0, symName: '__ZN10rayon_core4join12join_context6call_b28_$u7b$$u7b$closure$u7d$$u7d$17he94fed350ab05c13E', symObjAddr: 0x4DE0, symBinAddr: 0x379C4, symSize: 0xA0 }
  - { offset: 0x898E2, size: 0x8, addend: 0x0, symName: __ZN4core5slice4sort6stable9quicksort16stable_partition17h145bd1dcc6e39c98E, symObjAddr: 0x0, symBinAddr: 0x37A64, symSize: 0x450 }
  - { offset: 0x8A1B3, size: 0x8, addend: 0x0, symName: __ZN4core5slice4sort6stable9quicksort16stable_partition17h145bd1dcc6e39c98E, symObjAddr: 0x0, symBinAddr: 0x37A64, symSize: 0x450 }
  - { offset: 0x8A5EE, size: 0x8, addend: 0x0, symName: __ZN4core5slice4sort6stable9quicksort16stable_partition17h63fdfd874d5991a9E, symObjAddr: 0x450, symBinAddr: 0x37EB4, symSize: 0x450 }
  - { offset: 0x8AA29, size: 0x8, addend: 0x0, symName: __ZN4core5slice4sort6stable9quicksort9quicksort17h060d6e2c22a78a08E, symObjAddr: 0x9DC, symBinAddr: 0x38440, symSize: 0x36C }
  - { offset: 0x8ACC5, size: 0x8, addend: 0x0, symName: '__ZN4core5slice4sort6stable9quicksort9quicksort28_$u7b$$u7b$closure$u7d$$u7d$17h890bb6d32556ececE', symObjAddr: 0xD48, symBinAddr: 0x387AC, symSize: 0x48 }
  - { offset: 0x8B217, size: 0x8, addend: 0x0, symName: '__ZN4core5slice4sort6stable9quicksort23PartitionState$LT$T$GT$13partition_one17h7c16ece2318b325dE', symObjAddr: 0x8A0, symBinAddr: 0x38304, symSize: 0x13C }
  - { offset: 0x8B39F, size: 0x8, addend: 0x0, symName: '__ZN9hashbrown5table22HashTable$LT$T$C$A$GT$10find_entry17hd98b7eb3479200e3E', symObjAddr: 0x0, symBinAddr: 0x387F4, symSize: 0x7C }
  - { offset: 0x8BEF8, size: 0x8, addend: 0x0, symName: '__ZN9hashbrown5table22HashTable$LT$T$C$A$GT$10find_entry17hd98b7eb3479200e3E', symObjAddr: 0x0, symBinAddr: 0x387F4, symSize: 0x7C }
  - { offset: 0x8C291, size: 0x8, addend: 0x0, symName: '__ZN9hashbrown5table22HashTable$LT$T$C$A$GT$4find17h8b67305515a1696dE', symObjAddr: 0x7C, symBinAddr: 0x38870, symSize: 0x40 }
  - { offset: 0x8C309, size: 0x8, addend: 0x0, symName: '__ZN9hashbrown5table26OccupiedEntry$LT$T$C$A$GT$6remove17h61905d83e1dfb8c4E', symObjAddr: 0xBC, symBinAddr: 0x388B0, symSize: 0x84 }
  - { offset: 0x8C39A, size: 0x8, addend: 0x0, symName: '__ZN3std3sys12thread_local6native4lazy20Storage$LT$T$C$D$GT$11get_or_init17h03b01a80c0a52f5eE', symObjAddr: 0x0, symBinAddr: 0x38934, symSize: 0x90 }
  - { offset: 0x8CA67, size: 0x8, addend: 0x0, symName: __ZN3std3sys12thread_local6native4lazy7destroy17h7ff69f464bbe6c98E, symObjAddr: 0x270, symBinAddr: 0x389C4, symSize: 0x30 }
  - { offset: 0x8CA9D, size: 0x8, addend: 0x0, symName: '__ZN3std3sys12thread_local6native4lazy7destroy28_$u7b$$u7b$closure$u7d$$u7d$17hf841d8646a3ca344E', symObjAddr: 0x2A0, symBinAddr: 0x389F4, symSize: 0x64 }
  - { offset: 0x8CB58, size: 0x8, addend: 0x0, symName: '__ZN81_$LT$$LP$$RP$$u20$as$u20$std..sys..thread_local..native..lazy..DestroyedState$GT$13register_dtor17h1884e30231181de6E', symObjAddr: 0x304, symBinAddr: 0x38A58, symSize: 0x34 }
  - { offset: 0x8CCB5, size: 0x8, addend: 0x0, symName: '__ZN3std3sys12thread_local6native4lazy20Storage$LT$T$C$D$GT$11get_or_init17h03b01a80c0a52f5eE', symObjAddr: 0x0, symBinAddr: 0x38934, symSize: 0x90 }
  - { offset: 0x8CF1F, size: 0x8, addend: 0x0, symName: '__ZN3std3sys12thread_local6native4lazy20Storage$LT$T$C$D$GT$16get_or_init_slow17h37a9e13e5e46a8d0E', symObjAddr: 0x90, symBinAddr: 0x38B244, symSize: 0x1E0 }
  - { offset: 0x8D298, size: 0x8, addend: 0x0, symName: __ZN4core4hash11BuildHasher8hash_one17h18ec5a5a3de2e964E, symObjAddr: 0x0, symBinAddr: 0x38A8C, symSize: 0x88 }
  - { offset: 0x8D2B4, size: 0x8, addend: 0x0, symName: __ZN4core4hash11BuildHasher8hash_one17h18ec5a5a3de2e964E, symObjAddr: 0x0, symBinAddr: 0x38A8C, symSize: 0x88 }
  - { offset: 0x8D319, size: 0x8, addend: 0x0, symName: __ZN4core4hash11BuildHasher8hash_one17h74d8a6262ad2438eE, symObjAddr: 0x88, symBinAddr: 0x38B14, symSize: 0x84 }
  - { offset: 0x8D37E, size: 0x8, addend: 0x0, symName: __ZN4core4hash11BuildHasher8hash_one17h858f9b0a7b410ac6E, symObjAddr: 0x10C, symBinAddr: 0x38B98, symSize: 0x84 }
  - { offset: 0x8D6FA, size: 0x8, addend: 0x0, symName: '__ZN4core3str21_$LT$impl$u20$str$GT$10trim_start17h8520f8b86e6625cbE', symObjAddr: 0x0, symBinAddr: 0x38C1C, symSize: 0x28 }
  - { offset: 0x8D716, size: 0x8, addend: 0x0, symName: '__ZN4core3str21_$LT$impl$u20$str$GT$10trim_start17h8520f8b86e6625cbE', symObjAddr: 0x0, symBinAddr: 0x38C1C, symSize: 0x28 }
  - { offset: 0x8D744, size: 0x8, addend: 0x0, symName: '__ZN4core3str21_$LT$impl$u20$str$GT$3len17h80f2ccdbffe617f6E', symObjAddr: 0x28, symBinAddr: 0x38C44, symSize: 0x1C }
  - { offset: 0x8D770, size: 0x8, addend: 0x0, symName: '__ZN4core3str21_$LT$impl$u20$str$GT$5bytes17h71780e957e49d2c7E', symObjAddr: 0x44, symBinAddr: 0x38C60, symSize: 0x20 }
  - { offset: 0x8D812, size: 0x8, addend: 0x0, symName: '__ZN4core3str21_$LT$impl$u20$str$GT$5lines17hd6ce04d5f83ba3c3E', symObjAddr: 0x64, symBinAddr: 0x38C80, symSize: 0xC4 }
  - { offset: 0x8D8C0, size: 0x8, addend: 0x0, symName: '__ZN4core3str21_$LT$impl$u20$str$GT$8is_ascii17h8f3b2e5163747b8bE', symObjAddr: 0x128, symBinAddr: 0x38D44, symSize: 0x34 }
  - { offset: 0x8D947, size: 0x8, addend: 0x0, symName: '__ZN4core3str21_$LT$impl$u20$str$GT$8is_empty17hbd627374c0057b1eE', symObjAddr: 0x15C, symBinAddr: 0x38D78, symSize: 0x1C }
  - { offset: 0x8DAD9, size: 0x8, addend: 0x0, symName: '__ZN89_$LT$core..str..LinesMap$u20$as$u20$core..ops..function..Fn$LT$$LP$$RF$str$C$$RP$$GT$$GT$4call17h7c68fe311be7b721E', symObjAddr: 0x178, symBinAddr: 0x38D94, symSize: 0x134 }
  - { offset: 0x8DBFD, size: 0x8, addend: 0x0, symName: '__ZN92_$LT$core..str..LinesMap$u20$as$u20$core..ops..function..FnMut$LT$$LP$$RF$str$C$$RP$$GT$$GT$8call_mut17hcc786792c3acd635E', symObjAddr: 0x2AC, symBinAddr: 0x38EC8, symSize: 0x44 }
  - { offset: 0x8E067, size: 0x8, addend: 0x0, symName: __ZN4core4sync6atomic10AtomicBool3new17h2d76cb20cd8ab061E, symObjAddr: 0x0, symBinAddr: 0x38F0C, symSize: 0x18 }
  - { offset: 0x8E2F6, size: 0x8, addend: 0x0, symName: __ZN4core4sync6atomic10AtomicBool3new17h2d76cb20cd8ab061E, symObjAddr: 0x0, symBinAddr: 0x38F0C, symSize: 0x18 }
  - { offset: 0x8E326, size: 0x8, addend: 0x0, symName: __ZN4core4sync6atomic10AtomicBool4load17h3587cbda7e3de9c6E, symObjAddr: 0x18, symBinAddr: 0x38F24, symSize: 0x2C }
  - { offset: 0x8E358, size: 0x8, addend: 0x0, symName: __ZN4core4sync6atomic10AtomicBool5store17h5f75556560d30f55E, symObjAddr: 0x44, symBinAddr: 0x38F50, symSize: 0x28 }
  - { offset: 0x8E3A0, size: 0x8, addend: 0x0, symName: __ZN4core4sync6atomic11AtomicUsize3new17h692384fc4343605fE, symObjAddr: 0x6C, symBinAddr: 0x38F78, symSize: 0x18 }
  - { offset: 0x8E3D0, size: 0x8, addend: 0x0, symName: __ZN4core4sync6atomic11AtomicUsize4load17hbc899b2fe99fbfc4E, symObjAddr: 0x84, symBinAddr: 0x38F90, symSize: 0x24 }
  - { offset: 0x8E438, size: 0x8, addend: 0x0, symName: __ZN4core4sync6atomic11AtomicUsize4swap17h87154a1ea86415a3E, symObjAddr: 0xA8, symBinAddr: 0x38FB4, symSize: 0xD8 }
  - { offset: 0x8E4CD, size: 0x8, addend: 0x0, symName: __ZN4core4sync6atomic9AtomicU643new17hc59d511dc80394d5E, symObjAddr: 0x180, symBinAddr: 0x3908C, symSize: 0x18 }
  - { offset: 0x8E533, size: 0x8, addend: 0x0, symName: __ZN4core4sync6atomic9AtomicU649fetch_add17h594d03991ff117baE, symObjAddr: 0x198, symBinAddr: 0x390A4, symSize: 0xD8 }
  - { offset: 0x8E5DF, size: 0x8, addend: 0x0, symName: __ZN3std2io5error5Error4kind17hcd46d89655302086E, symObjAddr: 0x0, symBinAddr: 0x3917C, symSize: 0xB4 }
  - { offset: 0x8E93D, size: 0x8, addend: 0x0, symName: '__ZN66_$LT$std..io..error..ErrorKind$u20$as$u20$core..cmp..PartialEq$GT$2eq17h8deb851b39fd30f6E', symObjAddr: 0xB4, symBinAddr: 0x39230, symSize: 0x2C }
  - { offset: 0x8E97D, size: 0x8, addend: 0x0, symName: '__ZN94_$LT$std..io..error..Error$u20$as$u20$core..convert..From$LT$std..io..error..ErrorKind$GT$$GT$4from17h7822ac5bb7aae44aE', symObjAddr: 0xE0, symBinAddr: 0x3925C, symSize: 0x20 }
  - { offset: 0x8EAE9, size: 0x8, addend: 0x0, symName: __ZN3std2io5error5Error4kind17hcd46d89655302086E, symObjAddr: 0x0, symBinAddr: 0x3917C, symSize: 0xB4 }
  - { offset: 0x8EBB7, size: 0x8, addend: 0x0, symName: __ZN5_core5utils24convert_to_4space_indent17h8504939210bcda61E, symObjAddr: 0x0, symBinAddr: 0x3927C, symSize: 0x31C }
  - { offset: 0x8EBCE, size: 0x8, addend: 0x0, symName: __ZN5_core5utils24convert_to_4space_indent17h8504939210bcda61E, symObjAddr: 0x0, symBinAddr: 0x3927C, symSize: 0x31C }
  - { offset: 0x8EF8B, size: 0x8, addend: 0x0, symName: '__ZN175_$LT$_core..manifest.._..$LT$impl$u20$serde_core..de..Deserialize$u20$for$u20$_core..manifest..ManifestEntry$GT$..deserialize..__Visitor$u20$as$u20$serde_core..de..Visitor$GT$9expecting17h79af1e371592e867E', symObjAddr: 0x0, symBinAddr: 0x39598, symSize: 0x40 }
  - { offset: 0x8F91F, size: 0x8, addend: 0x0, symName: '__ZN175_$LT$_core..manifest.._..$LT$impl$u20$serde_core..de..Deserialize$u20$for$u20$_core..manifest..ManifestEntry$GT$..deserialize..__Visitor$u20$as$u20$serde_core..de..Visitor$GT$9expecting17h79af1e371592e867E', symObjAddr: 0x0, symBinAddr: 0x39598, symSize: 0x40 }
  - { offset: 0x8F97E, size: 0x8, addend: 0x0, symName: __ZN5_core8manifest12is_temp_file17h5df66344ef3e6b33E, symObjAddr: 0x40, symBinAddr: 0x395D8, symSize: 0x38 }
  - { offset: 0x8F9AA, size: 0x8, addend: 0x0, symName: __ZN5_core8manifest13read_manifest17hdd4fd01bce030be1E, symObjAddr: 0x78, symBinAddr: 0x39610, symSize: 0x1E0 }
  - { offset: 0x8FA62, size: 0x8, addend: 0x0, symName: __ZN5_core8manifest14compute_hashes17hd25529ed848843b1E, symObjAddr: 0x258, symBinAddr: 0x397F0, symSize: 0x550 }
  - { offset: 0x8FBC6, size: 0x8, addend: 0x0, symName: __ZN5_core8manifest14write_manifest17h1c2f577989547e50E, symObjAddr: 0x7A8, symBinAddr: 0x39D40, symSize: 0x19C }
  - { offset: 0x8FC8E, size: 0x8, addend: 0x0, symName: __ZN5_core8manifest15copy_and_verify17h941150eed0d0cfc1E, symObjAddr: 0x944, symBinAddr: 0x39EDC, symSize: 0x204 }
  - { offset: 0x8FD6D, size: 0x8, addend: 0x0, symName: __ZN5_core8manifest15update_manifest17hf2d9aafe85f3f48eE, symObjAddr: 0xB48, symBinAddr: 0x3A0E0, symSize: 0x310 }
  - { offset: 0x8FE6A, size: 0x8, addend: 0x0, symName: __ZN5_core8manifest17compute_file_hash17h16429b0df1a2c327E, symObjAddr: 0xE58, symBinAddr: 0x3A3F0, symSize: 0x268 }
  - { offset: 0x8FF55, size: 0x8, addend: 0x0, symName: __ZN5_core8manifest18cleanup_temp_files17hd935356a7addb500E, symObjAddr: 0x10C0, symBinAddr: 0x3A658, symSize: 0x368 }
  - { offset: 0x9002C, size: 0x8, addend: 0x0, symName: __ZN5_core8manifest33update_manifest_with_known_hashes17h8becf2ce512605b0E, symObjAddr: 0x1428, symBinAddr: 0x3A9C0, symSize: 0x58C }
  - { offset: 0x9210D, size: 0x8, addend: 0x0, symName: '__ZN111_$LT$alloc..vec..in_place_drop..InPlaceDstDataSrcBufDrop$LT$Src$C$Dest$GT$$u20$as$u20$core..ops..drop..Drop$GT$4drop17he7ed2c47b3d986faE', symObjAddr: 0x0, symBinAddr: 0x3AF4C, symSize: 0xB4 }
  - { offset: 0x923F5, size: 0x8, addend: 0x0, symName: '__ZN82_$LT$zopfli..deflate..DeflateEncoder$LT$W$GT$$u20$as$u20$core..ops..drop..Drop$GT$4drop17h027024d720881a79E', symObjAddr: 0x9240, symBinAddr: 0x43EA4, symSize: 0x44 }
  - { offset: 0x92708, size: 0x8, addend: 0x0, symName: '__ZN3zip5write94_$LT$impl$u20$core..ops..drop..Drop$u20$for$u20$zip..write..zip_writer..ZipWriter$LT$W$GT$$GT$4drop17hecec9be456a72ecfE', symObjAddr: 0x808, symBinAddr: 0x3B754, symSize: 0x110 }
  - { offset: 0x92F12, size: 0x8, addend: 0x0, symName: '__ZN90_$LT$std..io..buffered..bufwriter..BufWriter$LT$W$GT$$u20$as$u20$core..ops..drop..Drop$GT$4drop17h44be32566087e187E', symObjAddr: 0x9590, symBinAddr: 0x441F4, symSize: 0x4C }
  - { offset: 0x933C9, size: 0x8, addend: 0x0, symName: '__ZN87_$LT$std..sync..poison..mutex..MutexGuard$LT$T$GT$$u20$as$u20$core..ops..drop..Drop$GT$4drop17h71d6210fff89cb85E', symObjAddr: 0x94C8, symBinAddr: 0x4412C, symSize: 0x58 }
  - { offset: 0x9508E, size: 0x8, addend: 0x0, symName: '__ZN4core3ptr100drop_in_place$LT$core..option..Option$LT$pyo3..pycell..PyRef$LT$_core..python..PyDataset$GT$$GT$$GT$17hf01a15874fd71d7aE', symObjAddr: 0x1A50, symBinAddr: 0x3C978, symSize: 0x44 }
  - { offset: 0x950BD, size: 0x8, addend: 0x0, symName: '__ZN4core3ptr100drop_in_place$LT$core..option..Option$LT$pyo3..pycell..PyRef$LT$_core..python..PyMission$GT$$GT$$GT$17h607ba9e5b4a42e4aE', symObjAddr: 0x1A94, symBinAddr: 0x3C9BC, symSize: 0x44 }
  - { offset: 0x950EC, size: 0x8, addend: 0x0, symName: '__ZN4core3ptr100drop_in_place$LT$core..slice..sort..stable..merge..MergeState$LT$_core..db..StagedFileRecord$GT$$GT$17h66c83cd3dc7dca09E', symObjAddr: 0x1AD8, symBinAddr: 0x3CA00, symSize: 0x24 }
  - { offset: 0x9511B, size: 0x8, addend: 0x0, symName: '__ZN4core3ptr101drop_in_place$LT$alloc..raw_vec..RawVec$LT$$LP$std..path..PathBuf$C$alloc..string..String$RP$$GT$$GT$17h3eca2fd33f963267E', symObjAddr: 0x1B20, symBinAddr: 0x3CA24, symSize: 0x24 }
  - { offset: 0x9514A, size: 0x8, addend: 0x0, symName: '__ZN4core3ptr101drop_in_place$LT$core..iter..adapters..rev..Rev$LT$alloc..vec..into_iter..IntoIter$LT$u16$GT$$GT$$GT$17h63f2e82a82849ef6E', symObjAddr: 0x1B44, symBinAddr: 0x3CA48, symSize: 0x24 }
  - { offset: 0x95179, size: 0x8, addend: 0x0, symName: '__ZN4core3ptr102drop_in_place$LT$$LP$alloc..string..String$C$core..option..Option$LT$alloc..string..String$GT$$RP$$GT$17he944bded9f2c0f25E', symObjAddr: 0x1B68, symBinAddr: 0x3CA6C, symSize: 0x60 }
  - { offset: 0x951A8, size: 0x8, addend: 0x0, symName: '__ZN4core3ptr102drop_in_place$LT$core..cell..UnsafeCell$LT$core..option..Option$LT$_core..errors..E4EError$GT$$GT$$GT$17h3782576d4191721bE', symObjAddr: 0x1BC8, symBinAddr: 0x3CACC, symSize: 0x24 }
  - { offset: 0x951D7, size: 0x8, addend: 0x0, symName: '__ZN4core3ptr103drop_in_place$LT$core..result..Result$LT$_core..dataset..DatasetState$C$_core..errors..E4EError$GT$$GT$17h6d13cf56207d808eE', symObjAddr: 0x1BEC, symBinAddr: 0x3CAF0, symSize: 0x5C }
  - { offset: 0x95206, size: 0x8, addend: 0x0, symName: '__ZN4core3ptr103drop_in_place$LT$hashbrown..map..HashMap$LT$$RF$str$C$$LP$$RP$$C$std..hash..random..RandomState$GT$$GT$17hc92524ea4c45cd47E', symObjAddr: 0x1C48, symBinAddr: 0x3CB4C, symSize: 0x24 }
  - { offset: 0x95235, size: 0x8, addend: 0x0, symName: '__ZN4core3ptr104drop_in_place$LT$core..option..Option$LT$pyo3..pycell..PyRef$LT$_core..python..PyDataManager$GT$$GT$$GT$17hd3566543a1d8ef99E', symObjAddr: 0x1C6C, symBinAddr: 0x3CB70, symSize: 0x44 }
  - { offset: 0x95264, size: 0x8, addend: 0x0, symName: '__ZN4core3ptr104drop_in_place$LT$core..slice..sort..shared..smallsort..CopyOnDrop$LT$_core..db..StagedFileRecord$GT$$GT$17h22340afa74cb9828E', symObjAddr: 0x1CB0, symBinAddr: 0x3CBB4, symSize: 0x24 }
  - { offset: 0x95293, size: 0x8, addend: 0x0, symName: '__ZN4core3ptr105drop_in_place$LT$core..result..Result$LT$_core..metadata..MetadataJson$C$serde_json..error..Error$GT$$GT$17h2847f0d7c0f26328E', symObjAddr: 0x1CF8, symBinAddr: 0x3CBD8, symSize: 0x5C }
  - { offset: 0x952C2, size: 0x8, addend: 0x0, symName: '__ZN4core3ptr105drop_in_place$LT$core..result..Result$LT$alloc..ffi..c_str..CString$C$alloc..ffi..c_str..NulError$GT$$GT$17h432c6ab1993e151bE', symObjAddr: 0x1D54, symBinAddr: 0x3CC34, symSize: 0x58 }
  - { offset: 0x952F1, size: 0x8, addend: 0x0, symName: '__ZN4core3ptr106drop_in_place$LT$core..result..Result$LT$$BP$mut$u20$pyo3_ffi..object..PyObject$C$pyo3..err..PyErr$GT$$GT$17hbaf43dbcd8f9238aE', symObjAddr: 0x1DAC, symBinAddr: 0x3CC8C, symSize: 0x40 }
  - { offset: 0x95320, size: 0x8, addend: 0x0, symName: '__ZN4core3ptr106drop_in_place$LT$core..result..Result$LT$_core..manifest..ManifestEntry$C$serde_json..error..Error$GT$$GT$17ha8479cdc0b1fd79aE', symObjAddr: 0x1DEC, symBinAddr: 0x3CCCC, symSize: 0x5C }
  - { offset: 0x9534F, size: 0x8, addend: 0x0, symName: '__ZN4core3ptr106drop_in_place$LT$zopfli..deflate..BitwiseWriter$LT$zip..write..MaybeEncrypted$LT$std..fs..File$GT$$GT$$GT$17h68d80112576af72eE', symObjAddr: 0x1E48, symBinAddr: 0x3CD28, symSize: 0x24 }
  - { offset: 0x9537E, size: 0x8, addend: 0x0, symName: '__ZN4core3ptr1077drop_in_place$LT$rayon_core..job..StackJob$LT$rayon_core..latch..SpinLatch$C$rayon_core..registry..Registry..in_worker_cross$LT$rayon_core..join..join_context$LT$rayon..iter..plumbing..bridge_producer_consumer..helper$LT$rayon..slice..IterProducer$LT$$LP$$RF$alloc..string..String$C$$RF$_core..manifest..ManifestEntry$RP$$GT$$C$rayon..iter..for_each..ForEachConsumer$LT$_core..dataset..duplicate_dataset_with_progress$LT$_core..ffi..e4e_push..$u7b$$u7b$closure$u7d$$u7d$$GT$..$u7b$$u7b$closure$u7d$$u7d$$GT$$GT$..$u7b$$u7b$closure$u7d$$u7d$$C$rayon..iter..plumbing..bridge_producer_consumer..helper$LT$rayon..slice..IterProducer$LT$$LP$$RF$alloc..string..String$C$$RF$_core..manifest..ManifestEntry$RP$$GT$$C$rayon..iter..for_each..ForEachConsumer$LT$_core..dataset..duplicate_dataset_with_progress$LT$_core..ffi..e4e_push..$u7b$$u7b$closure$u7d$$u7d$$GT$..$u7b$$u7b$closure$u7d$$u7d$$GT$$GT$..$u7b$$u7b$closure$u7d$$u7d$$C$$LP$$RP$$C$$LP$$RP$$GT$..$u7b$$u7b$closure$u7d$$u7d$$C$$LP$$LP$$RP$$C$$LP$$RP$$RP$$GT$..$u7b$$u7b$closure$u7d$$u7d$$C$$LP$$LP$$RP$$C$$LP$$RP$$RP$$GT$$GT$17h54ffc51dff5b4c0fE', symObjAddr: 0x1E6C, symBinAddr: 0x3CD4C, symSize: 0x24 }
  - { offset: 0x953AD, size: 0x8, addend: 0x0, symName: '__ZN4core3ptr107drop_in_place$LT$core..option..Option$LT$pyo3..pycell..PyRefMut$LT$_core..python..PyDataManager$GT$$GT$$GT$17ha3d80ab06daf5dcaE', symObjAddr: 0x1E90, symBinAddr: 0x3CD70, symSize: 0x44 }
  - { offset: 0x953DC, size: 0x8, addend: 0x0, symName: '__ZN4core3ptr107drop_in_place$LT$hashbrown..map..IntoIter$LT$alloc..string..String$C$_core..manifest..ManifestEntry$GT$$GT$17h4b1f05915e349b93E', symObjAddr: 0x1ED4, symBinAddr: 0x3CDB4, symSize: 0x24 }
  - { offset: 0x9540B, size: 0x8, addend: 0x0, symName: '__ZN4core3ptr107drop_in_place$LT$zopfli..deflate..DeflateEncoder$LT$zip..write..MaybeEncrypted$LT$std..fs..File$GT$$GT$$GT$17hfe915ec1bc7c5637E', symObjAddr: 0x1F64, symBinAddr: 0x3CDD8, symSize: 0x88 }
  - { offset: 0x9543A, size: 0x8, addend: 0x0, symName: '__ZN4core3ptr108drop_in_place$LT$core..result..Result$LT$$LP$$RP$$C$alloc..borrow..Cow$LT$core..ffi..c_str..CStr$GT$$GT$$GT$17hc46a0f4be8f5ac4cE', symObjAddr: 0x1FEC, symBinAddr: 0x3CE60, symSize: 0x44 }
  - { offset: 0x95469, size: 0x8, addend: 0x0, symName: '__ZN4core3ptr109drop_in_place$LT$hashbrown..raw..RawTable$LT$$LP$alloc..string..String$C$serde_json..value..Value$RP$$GT$$GT$17h31844203782b0e5aE', symObjAddr: 0x2030, symBinAddr: 0x3CEA4, symSize: 0x24 }
  - { offset: 0x95498, size: 0x8, addend: 0x0, symName: '__ZN4core3ptr1103drop_in_place$LT$rayon_core..job..StackJob$LT$rayon_core..latch..SpinLatch$C$rayon_core..registry..Registry..in_worker_cross$LT$rayon_core..join..join_context$LT$rayon..iter..plumbing..bridge_producer_consumer..helper$LT$rayon..slice..IterProducer$LT$$LP$$RF$alloc..string..String$C$$RF$_core..manifest..ManifestEntry$RP$$GT$$C$rayon..iter..for_each..ForEachConsumer$LT$_core..dataset..duplicate_dataset_with_progress$LT$_core..dataset..duplicate_dataset..$u7b$$u7b$closure$u7d$$u7d$$GT$..$u7b$$u7b$closure$u7d$$u7d$$GT$$GT$..$u7b$$u7b$closure$u7d$$u7d$$C$rayon..iter..plumbing..bridge_producer_consumer..helper$LT$rayon..slice..IterProducer$LT$$LP$$RF$alloc..string..String$C$$RF$_core..manifest..ManifestEntry$RP$$GT$$C$rayon..iter..for_each..ForEachConsumer$LT$_core..dataset..duplicate_dataset_with_progress$LT$_core..dataset..duplicate_dataset..$u7b$$u7b$closure$u7d$$u7d$$GT$..$u7b$$u7b$closure$u7d$$u7d$$GT$$GT$..$u7b$$u7b$closure$u7d$$u7d$$C$$LP$$RP$$C$$LP$$RP$$GT$..$u7b$$u7b$closure$u7d$$u7d$$C$$LP$$LP$$RP$$C$$LP$$RP$$RP$$GT$..$u7b$$u7b$closure$u7d$$u7d$$C$$LP$$LP$$RP$$C$$LP$$RP$$RP$$GT$$GT$17h39616c31ddf26cc3E', symObjAddr: 0x2054, symBinAddr: 0x3CEC8, symSize: 0x24 }
  - { offset: 0x954C7, size: 0x8, addend: 0x0, symName: '__ZN4core3ptr1105drop_in_place$LT$rayon_core..job..StackJob$LT$rayon_core..latch..SpinLatch$C$rayon_core..registry..Registry..in_worker_cross$LT$rayon_core..join..join_context$LT$rayon..iter..plumbing..bridge_producer_consumer..helper$LT$rayon..slice..IterProducer$LT$$LP$$RF$alloc..string..String$C$$RF$_core..manifest..ManifestEntry$RP$$GT$$C$rayon..iter..for_each..ForEachConsumer$LT$_core..dataset..duplicate_dataset_with_progress$LT$_core..ffi..e4e_push_with_progress..$u7b$$u7b$closure$u7d$$u7d$$GT$..$u7b$$u7b$closure$u7d$$u7d$$GT$$GT$..$u7b$$u7b$closure$u7d$$u7d$$C$rayon..iter..plumbing..bridge_producer_consumer..helper$LT$rayon..slice..IterProducer$LT$$LP$$RF$alloc..string..String$C$$RF$_core..manifest..ManifestEntry$RP$$GT$$C$rayon..iter..for_each..ForEachConsumer$LT$_core..dataset..duplicate_dataset_with_progress$LT$_core..ffi..e4e_push_with_progress..$u7b$$u7b$closure$u7d$$u7d$$GT$..$u7b$$u7b$closure$u7d$$u7d$$GT$$GT$..$u7b$$u7b$closure$u7d$$u7d$$C$$LP$$RP$$C$$LP$$RP$$GT$..$u7b$$u7b$closure$u7d$$u7d$$C$$LP$$LP$$RP$$C$$LP$$RP$$RP$$GT$..$u7b$$u7b$closure$u7d$$u7d$$C$$LP$$LP$$RP$$C$$LP$$RP$$RP$$GT$$GT$17h670d3fca46c59c62E', symObjAddr: 0x2078, symBinAddr: 0x3CEEC, symSize: 0x24 }
  - { offset: 0x954F6, size: 0x8, addend: 0x0, symName: '__ZN4core3ptr110drop_in_place$LT$std..sync..poison..PoisonError$LT$core..option..Option$LT$_core..errors..E4EError$GT$$GT$$GT$17ha390953395bf213eE', symObjAddr: 0x20C0, symBinAddr: 0x3CF10, symSize: 0x24 }
  - { offset: 0x95525, size: 0x8, addend: 0x0, symName: '__ZN4core3ptr111drop_in_place$LT$_core..python..PyDataManager..validate_failures_with_progress..$u7b$$u7b$closure$u7d$$u7d$$GT$17h3531106e173efe90E', symObjAddr: 0x20E4, symBinAddr: 0x3CF34, symSize: 0x60 }
  - { offset: 0x95554, size: 0x8, addend: 0x0, symName: '__ZN4core3ptr111drop_in_place$LT$std..io..default_write_fmt..Adapter$LT$zip..write..MaybeEncrypted$LT$std..fs..File$GT$$GT$$GT$17hb655789d2fa73b45E', symObjAddr: 0x2168, symBinAddr: 0x3CF94, symSize: 0x24 }
  - { offset: 0x95583, size: 0x8, addend: 0x0, symName: '__ZN4core3ptr111drop_in_place$LT$std..sync..poison..mutex..Mutex$LT$core..option..Option$LT$_core..errors..E4EError$GT$$GT$$GT$17h60ba44fd0cf2eb29E', symObjAddr: 0x218C, symBinAddr: 0x3CFB8, symSize: 0x60 }
  - { offset: 0x955B2, size: 0x8, addend: 0x0, symName: '__ZN4core3ptr112drop_in_place$LT$$u5b$$LP$alloc..string..String$C$core..option..Option$LT$alloc..string..String$GT$$RP$$u5d$$GT$17hd7e016bd0da4a9d7E', symObjAddr: 0x21EC, symBinAddr: 0x3D018, symSize: 0xC4 }
  - { offset: 0x955E1, size: 0x8, addend: 0x0, symName: '__ZN4core3ptr112drop_in_place$LT$core..cell..UnsafeCell$LT$rayon_core..job..JobResult$LT$$LP$$LP$$RP$$C$$LP$$RP$$RP$$GT$$GT$$GT$17h87fe0c1a01a0331bE', symObjAddr: 0x22B0, symBinAddr: 0x3D0DC, symSize: 0x24 }
  - { offset: 0x95610, size: 0x8, addend: 0x0, symName: '__ZN4core3ptr112drop_in_place$LT$core..result..Result$LT$alloc..vec..Vec$LT$alloc..string..String$GT$$C$pyo3..err..PyErr$GT$$GT$17h4556e0371a9e34aeE', symObjAddr: 0x22D4, symBinAddr: 0x3D100, symSize: 0x50 }
  - { offset: 0x9563F, size: 0x8, addend: 0x0, symName: '__ZN4core3ptr113drop_in_place$LT$std..collections..hash..map..HashMap$LT$alloc..string..String$C$serde_json..value..Value$GT$$GT$17h320b3add6929689bE', symObjAddr: 0x2324, symBinAddr: 0x3D150, symSize: 0x24 }
  - { offset: 0x9566E, size: 0x8, addend: 0x0, symName: '__ZN4core3ptr1140drop_in_place$LT$rayon_core..job..StackJob$LT$rayon_core..latch..LatchRef$LT$rayon_core..latch..LockLatch$GT$$C$rayon_core..registry..Registry..in_worker_cold$LT$rayon_core..join..join_context$LT$rayon..iter..plumbing..bridge_producer_consumer..helper$LT$rayon..slice..IterProducer$LT$$LP$$RF$alloc..string..String$C$$RF$_core..manifest..ManifestEntry$RP$$GT$$C$rayon..iter..for_each..ForEachConsumer$LT$_core..dataset..duplicate_dataset_with_progress$LT$_core..ffi..e4e_push..$u7b$$u7b$closure$u7d$$u7d$$GT$..$u7b$$u7b$closure$u7d$$u7d$$GT$$GT$..$u7b$$u7b$closure$u7d$$u7d$$C$rayon..iter..plumbing..bridge_producer_consumer..helper$LT$rayon..slice..IterProducer$LT$$LP$$RF$alloc..string..String$C$$RF$_core..manifest..ManifestEntry$RP$$GT$$C$rayon..iter..for_each..ForEachConsumer$LT$_core..dataset..duplicate_dataset_with_progress$LT$_core..ffi..e4e_push..$u7b$$u7b$closure$u7d$$u7d$$GT$..$u7b$$u7b$closure$u7d$$u7d$$GT$$GT$..$u7b$$u7b$closure$u7d$$u7d$$C$$LP$$RP$$C$$LP$$RP$$GT$..$u7b$$u7b$closure$u7d$$u7d$$C$$LP$$LP$$RP$$C$$LP$$RP$$RP$$GT$..$u7b$$u7b$closure$u7d$$u7d$..$u7b$$u7b$closure$u7d$$u7d$$C$$LP$$LP$$RP$$C$$LP$$RP$$RP$$GT$$GT$17h0705ef36a0a4523eE', symObjAddr: 0x2348, symBinAddr: 0x3D174, symSize: 0x24 }
  - { offset: 0x9569D, size: 0x8, addend: 0x0, symName: '__ZN4core3ptr114drop_in_place$LT$alloc..vec..Vec$LT$$LP$$RF$alloc..string..String$C$$RF$_core..manifest..ManifestEntry$RP$$GT$$GT$17hda4952b4e391c735E', symObjAddr: 0x236C, symBinAddr: 0x3D198, symSize: 0x5C }
  - { offset: 0x956CC, size: 0x8, addend: 0x0, symName: '__ZN4core3ptr114drop_in_place$LT$flate2..deflate..write..DeflateEncoder$LT$zip..write..MaybeEncrypted$LT$std..fs..File$GT$$GT$$GT$17ha359b6214759d31cE', symObjAddr: 0x23C8, symBinAddr: 0x3D1F4, symSize: 0x24 }
  - { offset: 0x956FB, size: 0x8, addend: 0x0, symName: '__ZN4core3ptr115drop_in_place$LT$core..result..Result$LT$$RF$mut$u20$_core..dataset..DatasetState$C$_core..errors..E4EError$GT$$GT$17hd403adf4a836fa10E', symObjAddr: 0x2410, symBinAddr: 0x3D218, symSize: 0x4C }
  - { offset: 0x9572A, size: 0x8, addend: 0x0, symName: '__ZN4core3ptr115drop_in_place$LT$hashbrown..raw..RawTable$LT$$LP$alloc..string..String$C$_core..manifest..ManifestEntry$RP$$GT$$GT$17h73fe81072b61e4dfE', symObjAddr: 0x245C, symBinAddr: 0x3D264, symSize: 0x24 }
  - { offset: 0x95759, size: 0x8, addend: 0x0, symName: '__ZN4core3ptr1166drop_in_place$LT$rayon_core..job..StackJob$LT$rayon_core..latch..LatchRef$LT$rayon_core..latch..LockLatch$GT$$C$rayon_core..registry..Registry..in_worker_cold$LT$rayon_core..join..join_context$LT$rayon..iter..plumbing..bridge_producer_consumer..helper$LT$rayon..slice..IterProducer$LT$$LP$$RF$alloc..string..String$C$$RF$_core..manifest..ManifestEntry$RP$$GT$$C$rayon..iter..for_each..ForEachConsumer$LT$_core..dataset..duplicate_dataset_with_progress$LT$_core..dataset..duplicate_dataset..$u7b$$u7b$closure$u7d$$u7d$$GT$..$u7b$$u7b$closure$u7d$$u7d$$GT$$GT$..$u7b$$u7b$closure$u7d$$u7d$$C$rayon..iter..plumbing..bridge_producer_consumer..helper$LT$rayon..slice..IterProducer$LT$$LP$$RF$alloc..string..String$C$$RF$_core..manifest..ManifestEntry$RP$$GT$$C$rayon..iter..for_each..ForEachConsumer$LT$_core..dataset..duplicate_dataset_with_progress$LT$_core..dataset..duplicate_dataset..$u7b$$u7b$closure$u7d$$u7d$$GT$..$u7b$$u7b$closure$u7d$$u7d$$GT$$GT$..$u7b$$u7b$closure$u7d$$u7d$$C$$LP$$RP$$C$$LP$$RP$$GT$..$u7b$$u7b$closure$u7d$$u7d$$C$$LP$$LP$$RP$$C$$LP$$RP$$RP$$GT$..$u7b$$u7b$closure$u7d$$u7d$..$u7b$$u7b$closure$u7d$$u7d$$C$$LP$$LP$$RP$$C$$LP$$RP$$RP$$GT$$GT$17h3b8b0480e7ac61c1E', symObjAddr: 0x2480, symBinAddr: 0x3D288, symSize: 0x24 }
  - { offset: 0x95788, size: 0x8, addend: 0x0, symName: '__ZN4core3ptr1168drop_in_place$LT$rayon_core..job..StackJob$LT$rayon_core..latch..LatchRef$LT$rayon_core..latch..LockLatch$GT$$C$rayon_core..registry..Registry..in_worker_cold$LT$rayon_core..join..join_context$LT$rayon..iter..plumbing..bridge_producer_consumer..helper$LT$rayon..slice..IterProducer$LT$$LP$$RF$alloc..string..String$C$$RF$_core..manifest..ManifestEntry$RP$$GT$$C$rayon..iter..for_each..ForEachConsumer$LT$_core..dataset..duplicate_dataset_with_progress$LT$_core..ffi..e4e_push_with_progress..$u7b$$u7b$closure$u7d$$u7d$$GT$..$u7b$$u7b$closure$u7d$$u7d$$GT$$GT$..$u7b$$u7b$closure$u7d$$u7d$$C$rayon..iter..plumbing..bridge_producer_consumer..helper$LT$rayon..slice..IterProducer$LT$$LP$$RF$alloc..string..String$C$$RF$_core..manifest..ManifestEntry$RP$$GT$$C$rayon..iter..for_each..ForEachConsumer$LT$_core..dataset..duplicate_dataset_with_progress$LT$_core..ffi..e4e_push_with_progress..$u7b$$u7b$closure$u7d$$u7d$$GT$..$u7b$$u7b$closure$u7d$$u7d$$GT$$GT$..$u7b$$u7b$closure$u7d$$u7d$$C$$LP$$RP$$C$$LP$$RP$$GT$..$u7b$$u7b$closure$u7d$$u7d$$C$$LP$$LP$$RP$$C$$LP$$RP$$RP$$GT$..$u7b$$u7b$closure$u7d$$u7d$..$u7b$$u7b$closure$u7d$$u7d$$C$$LP$$LP$$RP$$C$$LP$$RP$$RP$$GT$$GT$17h0a8b8f36c9139e28E', symObjAddr: 0x24A4, symBinAddr: 0x3D2AC, symSize: 0x24 }
  - { offset: 0x957B7, size: 0x8, addend: 0x0, symName: '__ZN4core3ptr116drop_in_place$LT$core..result..Result$LT$alloc..vec..Vec$LT$std..path..PathBuf$GT$$C$_core..errors..E4EError$GT$$GT$17h5f2a59b0876a46eeE', symObjAddr: 0x24C8, symBinAddr: 0x3D2D0, symSize: 0x5C }
  - { offset: 0x957E6, size: 0x8, addend: 0x0, symName: '__ZN4core3ptr116drop_in_place$LT$std..sync..poison..mutex..MutexGuard$LT$core..option..Option$LT$_core..errors..E4EError$GT$$GT$$GT$17hf9756aee92b4e3b3E', symObjAddr: 0x2524, symBinAddr: 0x3D32C, symSize: 0x24 }
  - { offset: 0x95815, size: 0x8, addend: 0x0, symName: '__ZN4core3ptr117drop_in_place$LT$core..result..Result$LT$pyo3..instance..Py$LT$pyo3..types..any..PyAny$GT$$C$pyo3..err..PyErr$GT$$GT$17he76c7ebd81189807E', symObjAddr: 0x2548, symBinAddr: 0x3D350, symSize: 0x50 }
  - { offset: 0x95844, size: 0x8, addend: 0x0, symName: '__ZN4core3ptr117drop_in_place$LT$rusqlite..row..MappedRows$LT$_core..db..DatasetDb..get_missions..$u7b$$u7b$closure$u7d$$u7d$$GT$$GT$17h981a503c0cd30ac3E', symObjAddr: 0x2598, symBinAddr: 0x3D3A0, symSize: 0x24 }
  - { offset: 0x95873, size: 0x8, addend: 0x0, symName: '__ZN4core3ptr118drop_in_place$LT$core..option..Option$LT$core..result..Result$LT$std..fs..DirEntry$C$std..io..error..Error$GT$$GT$$GT$17hb7ec570be4278bafE', symObjAddr: 0x25BC, symBinAddr: 0x3D3C4, symSize: 0x40 }
  - { offset: 0x958A2, size: 0x8, addend: 0x0, symName: '__ZN4core3ptr118drop_in_place$LT$hashbrown..raw..RawIntoIter$LT$$LP$alloc..string..String$C$_core..manifest..ManifestEntry$RP$$GT$$GT$17h689469dad1e83921E', symObjAddr: 0x25FC, symBinAddr: 0x3D404, symSize: 0x24 }
  - { offset: 0x958D1, size: 0x8, addend: 0x0, symName: '__ZN4core3ptr1191drop_in_place$LT$rayon_core..job..StackJob$LT$rayon_core..latch..SpinLatch$C$rayon_core..registry..Registry..in_worker_cross$LT$rayon_core..join..join_context$LT$rayon..iter..plumbing..bridge_producer_consumer..helper$LT$rayon..slice..IterProducer$LT$$LP$$RF$alloc..string..String$C$$RF$_core..manifest..ManifestEntry$RP$$GT$$C$rayon..iter..for_each..ForEachConsumer$LT$_core..dataset..duplicate_dataset_with_progress$LT$_core..python..PyDataManager..push_with_progress..$u7b$$u7b$closure$u7d$$u7d$..$u7b$$u7b$closure$u7d$$u7d$$GT$..$u7b$$u7b$closure$u7d$$u7d$$GT$$GT$..$u7b$$u7b$closure$u7d$$u7d$$C$rayon..iter..plumbing..bridge_producer_consumer..helper$LT$rayon..slice..IterProducer$LT$$LP$$RF$alloc..string..String$C$$RF$_core..manifest..ManifestEntry$RP$$GT$$C$rayon..iter..for_each..ForEachConsumer$LT$_core..dataset..duplicate_dataset_with_progress$LT$_core..python..PyDataManager..push_with_progress..$u7b$$u7b$closure$u7d$$u7d$..$u7b$$u7b$closure$u7d$$u7d$$GT$..$u7b$$u7b$closure$u7d$$u7d$$GT$$GT$..$u7b$$u7b$closure$u7d$$u7d$$C$$LP$$RP$$C$$LP$$RP$$GT$..$u7b$$u7b$closure$u7d$$u7d$$C$$LP$$LP$$RP$$C$$LP$$RP$$RP$$GT$..$u7b$$u7b$closure$u7d$$u7d$$C$$LP$$LP$$RP$$C$$LP$$RP$$RP$$GT$$GT$17h2f9c244b003acee2E', symObjAddr: 0x2620, symBinAddr: 0x3D428, symSize: 0x24 }
  - { offset: 0x95900, size: 0x8, addend: 0x0, symName: '__ZN4core3ptr119drop_in_place$LT$flate2..zio..Writer$LT$zip..write..MaybeEncrypted$LT$std..fs..File$GT$$C$flate2..mem..Compress$GT$$GT$17h574add960c402b83E', symObjAddr: 0x2644, symBinAddr: 0x3D44C, symSize: 0xB8 }
  - { offset: 0x9592F, size: 0x8, addend: 0x0, symName: '__ZN4core3ptr119drop_in_place$LT$std..collections..hash..map..HashMap$LT$alloc..string..String$C$_core..manifest..ManifestEntry$GT$$GT$17hf2caa227c97becd3E', symObjAddr: 0x26FC, symBinAddr: 0x3D504, symSize: 0x24 }
  - { offset: 0x9595E, size: 0x8, addend: 0x0, symName: '__ZN4core3ptr120drop_in_place$LT$core..result..Result$LT$alloc..vec..Vec$LT$alloc..string..String$GT$$C$serde_json..error..Error$GT$$GT$17h7775701fcbf7473bE', symObjAddr: 0x2720, symBinAddr: 0x3D528, symSize: 0x5C }
  - { offset: 0x9598D, size: 0x8, addend: 0x0, symName: '__ZN4core3ptr120drop_in_place$LT$std..collections..hash..map..IntoIter$LT$alloc..string..String$C$_core..manifest..ManifestEntry$GT$$GT$17h1234586e2a1bf0f3E', symObjAddr: 0x277C, symBinAddr: 0x3D584, symSize: 0x24 }
  - { offset: 0x959BC, size: 0x8, addend: 0x0, symName: '__ZN4core3ptr121drop_in_place$LT$alloc..raw_vec..RawVec$LT$$LP$$RF$alloc..string..String$C$$RF$_core..manifest..ManifestEntry$RP$$GT$$GT$17h27716a236d1cf8f2E', symObjAddr: 0x27A0, symBinAddr: 0x3D5A8, symSize: 0x24 }
  - { offset: 0x959EB, size: 0x8, addend: 0x0, symName: '__ZN4core3ptr121drop_in_place$LT$alloc..vec..Vec$LT$u8$GT$..extend_trusted$LT$core..str..iter..Bytes$GT$..$u7b$$u7b$closure$u7d$$u7d$$GT$17he548dff4d8b9e31fE', symObjAddr: 0x27C4, symBinAddr: 0x3D5CC, symSize: 0x24 }
  - { offset: 0x95A1A, size: 0x8, addend: 0x0, symName: '__ZN4core3ptr121drop_in_place$LT$core..result..Result$LT$alloc..vec..Vec$LT$u8$GT$$C$std..io..buffered..bufwriter..WriterPanicked$GT$$GT$17hfd07344523cc5470E', symObjAddr: 0x27E8, symBinAddr: 0x3D5F0, symSize: 0x50 }
  - { offset: 0x95A49, size: 0x8, addend: 0x0, symName: '__ZN4core3ptr121drop_in_place$LT$rusqlite..row..MappedRows$LT$_core..db..ManagerDb..get_all_datasets..$u7b$$u7b$closure$u7d$$u7d$$GT$$GT$17h4986aff5badd6fafE', symObjAddr: 0x2838, symBinAddr: 0x3D640, symSize: 0x24 }
  - { offset: 0x95A78, size: 0x8, addend: 0x0, symName: '__ZN4core3ptr122drop_in_place$LT$alloc..vec..in_place_drop..InPlaceDstDataSrcBufDrop$LT$alloc..string..String$C$std..path..PathBuf$GT$$GT$17h1a25ea0a2ceae395E', symObjAddr: 0x285C, symBinAddr: 0x3D664, symSize: 0x24 }
  - { offset: 0x95AA7, size: 0x8, addend: 0x0, symName: '__ZN4core3ptr124drop_in_place$LT$core..option..Option$LT$core..option..Option$LT$zip..write..MaybeEncrypted$LT$std..fs..File$GT$$GT$$GT$$GT$17h92d34ba4d8a78762E', symObjAddr: 0x2880, symBinAddr: 0x3D688, symSize: 0x4C }
  - { offset: 0x95AD6, size: 0x8, addend: 0x0, symName: '__ZN4core3ptr1252drop_in_place$LT$rayon_core..job..StackJob$LT$rayon_core..latch..SpinLatch$C$rayon_core..join..join_context..call_b$LT$alloc..collections..linked_list..LinkedList$LT$alloc..vec..Vec$LT$$LP$alloc..string..String$C$core..option..Option$LT$alloc..string..String$GT$$RP$$GT$$GT$$C$rayon..iter..plumbing..bridge_producer_consumer..helper$LT$rayon..slice..IterProducer$LT$std..path..PathBuf$GT$$C$rayon..iter..map..MapConsumer$LT$rayon..iter..map..MapConsumer$LT$rayon..iter..while_some..WhileSomeConsumer$LT$rayon..iter..extend..ListVecConsumer$GT$$C$rayon..result..$LT$impl$u20$rayon..iter..FromParallelIterator$LT$core..result..Result$LT$T$C$E$GT$$GT$$u20$for$u20$core..result..Result$LT$C$C$E$GT$$GT$..from_par_iter..ok$LT$$LP$alloc..string..String$C$core..option..Option$LT$alloc..string..String$GT$$RP$$C$_core..errors..E4EError$GT$..$u7b$$u7b$closure$u7d$$u7d$$GT$$C$_core..manifest..collect_validation_failures_with_progress$LT$_core..ffi..e4e_validate..$u7b$$u7b$closure$u7d$$u7d$$GT$..$u7b$$u7b$closure$u7d$$u7d$$GT$$GT$..$u7b$$u7b$closure$u7d$$u7d$$GT$..$u7b$$u7b$closure$u7d$$u7d$$C$alloc..collections..linked_list..LinkedList$LT$alloc..vec..Vec$LT$$LP$alloc..string..String$C$core..option..Option$LT$alloc..string..String$GT$$RP$$GT$$GT$$GT$$GT$17hbae3516fc1958518E', symObjAddr: 0x28CC, symBinAddr: 0x3D6D4, symSize: 0x24 }
  - { offset: 0x95B05, size: 0x8, addend: 0x0, symName: '__ZN4core3ptr1254drop_in_place$LT$rayon_core..job..StackJob$LT$rayon_core..latch..LatchRef$LT$rayon_core..latch..LockLatch$GT$$C$rayon_core..registry..Registry..in_worker_cold$LT$rayon_core..join..join_context$LT$rayon..iter..plumbing..bridge_producer_consumer..helper$LT$rayon..slice..IterProducer$LT$$LP$$RF$alloc..string..String$C$$RF$_core..manifest..ManifestEntry$RP$$GT$$C$rayon..iter..for_each..ForEachConsumer$LT$_core..dataset..duplicate_dataset_with_progress$LT$_core..python..PyDataManager..push_with_progress..$u7b$$u7b$closure$u7d$$u7d$..$u7b$$u7b$closure$u7d$$u7d$$GT$..$u7b$$u7b$closure$u7d$$u7d$$GT$$GT$..$u7b$$u7b$closure$u7d$$u7d$$C$rayon..iter..plumbing..bridge_producer_consumer..helper$LT$rayon..slice..IterProducer$LT$$LP$$RF$alloc..string..String$C$$RF$_core..manifest..ManifestEntry$RP$$GT$$C$rayon..iter..for_each..ForEachConsumer$LT$_core..dataset..duplicate_dataset_with_progress$LT$_core..python..PyDataManager..push_with_progress..$u7b$$u7b$closure$u7d$$u7d$..$u7b$$u7b$closure$u7d$$u7d$$GT$..$u7b$$u7b$closure$u7d$$u7d$$GT$$GT$..$u7b$$u7b$closure$u7d$$u7d$$C$$LP$$RP$$C$$LP$$RP$$GT$..$u7b$$u7b$closure$u7d$$u7d$$C$$LP$$LP$$RP$$C$$LP$$RP$$RP$$GT$..$u7b$$u7b$closure$u7d$$u7d$..$u7b$$u7b$closure$u7d$$u7d$$C$$LP$$LP$$RP$$C$$LP$$RP$$RP$$GT$$GT$17h00dec0dee576a76bE', symObjAddr: 0x28F0, symBinAddr: 0x3D6F8, symSize: 0x24 }
  - { offset: 0x95B34, size: 0x8, addend: 0x0, symName: '__ZN4core3ptr125drop_in_place$LT$alloc..vec..Vec$LT$$LP$alloc..string..String$C$core..option..Option$LT$alloc..string..String$GT$$RP$$GT$$GT$17h10db844bc23652beE', symObjAddr: 0x2914, symBinAddr: 0x3D71C, symSize: 0x5C }
  - { offset: 0x95B63, size: 0x8, addend: 0x0, symName: '__ZN4core3ptr125drop_in_place$LT$core..result..Result$LT$alloc..vec..Vec$LT$_core..db..StagedFileRecord$GT$$C$_core..errors..E4EError$GT$$GT$17hcf7ae33c45edb3d0E', symObjAddr: 0x2970, symBinAddr: 0x3D778, symSize: 0x5C }
  - { offset: 0x95B92, size: 0x8, addend: 0x0, symName: '__ZN4core3ptr1266drop_in_place$LT$rayon_core..job..StackJob$LT$rayon_core..latch..SpinLatch$C$rayon_core..join..join_context..call_b$LT$alloc..collections..linked_list..LinkedList$LT$alloc..vec..Vec$LT$$LP$alloc..string..String$C$core..option..Option$LT$alloc..string..String$GT$$RP$$GT$$GT$$C$rayon..iter..plumbing..bridge_producer_consumer..helper$LT$rayon..slice..IterProducer$LT$std..path..PathBuf$GT$$C$rayon..iter..map..MapConsumer$LT$rayon..iter..map..MapConsumer$LT$rayon..iter..while_some..WhileSomeConsumer$LT$rayon..iter..extend..ListVecConsumer$GT$$C$rayon..result..$LT$impl$u20$rayon..iter..FromParallelIterator$LT$core..result..Result$LT$T$C$E$GT$$GT$$u20$for$u20$core..result..Result$LT$C$C$E$GT$$GT$..from_par_iter..ok$LT$$LP$alloc..string..String$C$core..option..Option$LT$alloc..string..String$GT$$RP$$C$_core..errors..E4EError$GT$..$u7b$$u7b$closure$u7d$$u7d$$GT$$C$_core..manifest..collect_validation_failures_with_progress$LT$_core..ffi..e4e_validate_with_progress..$u7b$$u7b$closure$u7d$$u7d$$GT$..$u7b$$u7b$closure$u7d$$u7d$$GT$$GT$..$u7b$$u7b$closure$u7d$$u7d$$GT$..$u7b$$u7b$closure$u7d$$u7d$$C$alloc..collections..linked_list..LinkedList$LT$alloc..vec..Vec$LT$$LP$alloc..string..String$C$core..option..Option$LT$alloc..string..String$GT$$RP$$GT$$GT$$GT$$GT$17haff3e5b97be50aceE', symObjAddr: 0x29CC, symBinAddr: 0x3D7D4, symSize: 0x24 }
  - { offset: 0x95BC1, size: 0x8, addend: 0x0, symName: '__ZN4core3ptr1269drop_in_place$LT$rayon_core..job..StackJob$LT$rayon_core..latch..SpinLatch$C$rayon_core..join..join_context..call_b$LT$alloc..collections..linked_list..LinkedList$LT$alloc..vec..Vec$LT$$LP$alloc..string..String$C$core..option..Option$LT$alloc..string..String$GT$$RP$$GT$$GT$$C$rayon..iter..plumbing..bridge_producer_consumer..helper$LT$rayon..slice..IterProducer$LT$std..path..PathBuf$GT$$C$rayon..iter..map..MapConsumer$LT$rayon..iter..map..MapConsumer$LT$rayon..iter..while_some..WhileSomeConsumer$LT$rayon..iter..extend..ListVecConsumer$GT$$C$rayon..result..$LT$impl$u20$rayon..iter..FromParallelIterator$LT$core..result..Result$LT$T$C$E$GT$$GT$$u20$for$u20$core..result..Result$LT$C$C$E$GT$$GT$..from_par_iter..ok$LT$$LP$alloc..string..String$C$core..option..Option$LT$alloc..string..String$GT$$RP$$C$_core..errors..E4EError$GT$..$u7b$$u7b$closure$u7d$$u7d$$GT$$C$_core..manifest..collect_validation_failures_with_progress$LT$_core..dataset..validate_dataset_failures..$u7b$$u7b$closure$u7d$$u7d$$GT$..$u7b$$u7b$closure$u7d$$u7d$$GT$$GT$..$u7b$$u7b$closure$u7d$$u7d$$GT$..$u7b$$u7b$closure$u7d$$u7d$$C$alloc..collections..linked_list..LinkedList$LT$alloc..vec..Vec$LT$$LP$alloc..string..String$C$core..option..Option$LT$alloc..string..String$GT$$RP$$GT$$GT$$GT$$GT$17h6ad0027926e86df2E', symObjAddr: 0x29F0, symBinAddr: 0x3D7F8, symSize: 0x24 }
  - { offset: 0x95BF0, size: 0x8, addend: 0x0, symName: '__ZN4core3ptr129drop_in_place$LT$rusqlite..row..MappedRows$LT$_core..db..DatasetDb..get_dataset_staged_files..$u7b$$u7b$closure$u7d$$u7d$$GT$$GT$17ha63715b7cbb21d56E', symObjAddr: 0x2A5C, symBinAddr: 0x3D81C, symSize: 0x24 }
  - { offset: 0x95C1F, size: 0x8, addend: 0x0, symName: '__ZN4core3ptr129drop_in_place$LT$rusqlite..row..MappedRows$LT$_core..db..DatasetDb..get_mission_staged_files..$u7b$$u7b$closure$u7d$$u7d$$GT$$GT$17h2bd21c57520d2280E', symObjAddr: 0x2A80, symBinAddr: 0x3D840, symSize: 0x24 }
  - { offset: 0x95C4E, size: 0x8, addend: 0x0, symName: '__ZN4core3ptr130drop_in_place$LT$core..option..Option$LT$$LP$alloc..string..String$C$core..option..Option$LT$alloc..string..String$GT$$RP$$GT$$GT$17he2ee46ef1b503890E', symObjAddr: 0x2AA4, symBinAddr: 0x3D864, symSize: 0x48 }
  - { offset: 0x95C7D, size: 0x8, addend: 0x0, symName: '__ZN4core3ptr1310drop_in_place$LT$rayon_core..job..StackJob$LT$rayon_core..latch..SpinLatch$C$rayon_core..join..join_context..call_b$LT$rayon..iter..collect..consumer..CollectResult$LT$$LP$alloc..string..String$C$core..option..Option$LT$alloc..string..String$GT$$RP$$GT$$C$rayon..iter..plumbing..bridge_producer_consumer..helper$LT$rayon..slice..IterProducer$LT$std..path..PathBuf$GT$$C$rayon..iter..map..MapConsumer$LT$rayon..iter..map..MapConsumer$LT$rayon..iter..while_some..WhileSomeConsumer$LT$rayon..iter..collect..consumer..CollectConsumer$LT$$LP$alloc..string..String$C$core..option..Option$LT$alloc..string..String$GT$$RP$$GT$$GT$$C$rayon..result..$LT$impl$u20$rayon..iter..FromParallelIterator$LT$core..result..Result$LT$T$C$E$GT$$GT$$u20$for$u20$core..result..Result$LT$C$C$E$GT$$GT$..from_par_iter..ok$LT$$LP$alloc..string..String$C$core..option..Option$LT$alloc..string..String$GT$$RP$$C$_core..errors..E4EError$GT$..$u7b$$u7b$closure$u7d$$u7d$$GT$$C$_core..manifest..collect_validation_failures_with_progress$LT$_core..ffi..e4e_validate..$u7b$$u7b$closure$u7d$$u7d$$GT$..$u7b$$u7b$closure$u7d$$u7d$$GT$$GT$..$u7b$$u7b$closure$u7d$$u7d$$GT$..$u7b$$u7b$closure$u7d$$u7d$$C$rayon..iter..collect..consumer..CollectResult$LT$$LP$alloc..string..String$C$core..option..Option$LT$alloc..string..String$GT$$RP$$GT$$GT$$GT$17h09cf4644251ca846E', symObjAddr: 0x2AEC, symBinAddr: 0x3D8AC, symSize: 0x24 }
  - { offset: 0x95CAC, size: 0x8, addend: 0x0, symName: '__ZN4core3ptr1318drop_in_place$LT$rayon_core..job..StackJob$LT$rayon_core..latch..SpinLatch$C$rayon_core..join..join_context..call_b$LT$alloc..collections..linked_list..LinkedList$LT$alloc..vec..Vec$LT$$LP$alloc..string..String$C$core..option..Option$LT$alloc..string..String$GT$$RP$$GT$$GT$$C$rayon..iter..plumbing..bridge_producer_consumer..helper$LT$rayon..slice..IterProducer$LT$std..path..PathBuf$GT$$C$rayon..iter..map..MapConsumer$LT$rayon..iter..map..MapConsumer$LT$rayon..iter..while_some..WhileSomeConsumer$LT$rayon..iter..extend..ListVecConsumer$GT$$C$rayon..result..$LT$impl$u20$rayon..iter..FromParallelIterator$LT$core..result..Result$LT$T$C$E$GT$$GT$$u20$for$u20$core..result..Result$LT$C$C$E$GT$$GT$..from_par_iter..ok$LT$$LP$alloc..string..String$C$core..option..Option$LT$alloc..string..String$GT$$RP$$C$_core..errors..E4EError$GT$..$u7b$$u7b$closure$u7d$$u7d$$GT$$C$_core..manifest..collect_validation_failures_with_progress$LT$_core..python..PyDataManager..validate_failures_with_progress..$u7b$$u7b$closure$u7d$$u7d$..$u7b$$u7b$closure$u7d$$u7d$$GT$..$u7b$$u7b$closure$u7d$$u7d$$GT$$GT$..$u7b$$u7b$closure$u7d$$u7d$$GT$..$u7b$$u7b$closure$u7d$$u7d$$C$alloc..collections..linked_list..LinkedList$LT$alloc..vec..Vec$LT$$LP$alloc..string..String$C$core..option..Option$LT$alloc..string..String$GT$$RP$$GT$$GT$$GT$$GT$17h3fcc08186c1fc4cdE', symObjAddr: 0x2B10, symBinAddr: 0x3D8D0, symSize: 0x24 }
  - { offset: 0x95CDB, size: 0x8, addend: 0x0, symName: '__ZN4core3ptr131drop_in_place$LT$alloc..vec..Vec$LT$T$C$A$GT$..retain_mut..BackshiftOnDrop$LT$_core..db..DatasetInfo$C$alloc..alloc..Global$GT$$GT$17h5328797154c441aeE', symObjAddr: 0x2B34, symBinAddr: 0x3D8F4, symSize: 0x24 }
  - { offset: 0x95D0A, size: 0x8, addend: 0x0, symName: '__ZN4core3ptr131drop_in_place$LT$alloc..vec..Vec$LT$u8$GT$..extend_trusted$LT$core..option..IntoIter$LT$u8$GT$$GT$..$u7b$$u7b$closure$u7d$$u7d$$GT$17he972d0a7b90d59e1E', symObjAddr: 0x2B58, symBinAddr: 0x3D918, symSize: 0x24 }
  - { offset: 0x95D39, size: 0x8, addend: 0x0, symName: '__ZN4core3ptr1324drop_in_place$LT$rayon_core..job..StackJob$LT$rayon_core..latch..SpinLatch$C$rayon_core..join..join_context..call_b$LT$rayon..iter..collect..consumer..CollectResult$LT$$LP$alloc..string..String$C$core..option..Option$LT$alloc..string..String$GT$$RP$$GT$$C$rayon..iter..plumbing..bridge_producer_consumer..helper$LT$rayon..slice..IterProducer$LT$std..path..PathBuf$GT$$C$rayon..iter..map..MapConsumer$LT$rayon..iter..map..MapConsumer$LT$rayon..iter..while_some..WhileSomeConsumer$LT$rayon..iter..collect..consumer..CollectConsumer$LT$$LP$alloc..string..String$C$core..option..Option$LT$alloc..string..String$GT$$RP$$GT$$GT$$C$rayon..result..$LT$impl$u20$rayon..iter..FromParallelIterator$LT$core..result..Result$LT$T$C$E$GT$$GT$$u20$for$u20$core..result..Result$LT$C$C$E$GT$$GT$..from_par_iter..ok$LT$$LP$alloc..string..String$C$core..option..Option$LT$alloc..string..String$GT$$RP$$C$_core..errors..E4EError$GT$..$u7b$$u7b$closure$u7d$$u7d$$GT$$C$_core..manifest..collect_validation_failures_with_progress$LT$_core..ffi..e4e_validate_with_progress..$u7b$$u7b$closure$u7d$$u7d$$GT$..$u7b$$u7b$closure$u7d$$u7d$$GT$$GT$..$u7b$$u7b$closure$u7d$$u7d$$GT$..$u7b$$u7b$closure$u7d$$u7d$$C$rayon..iter..collect..consumer..CollectResult$LT$$LP$alloc..string..String$C$core..option..Option$LT$alloc..string..String$GT$$RP$$GT$$GT$$GT$17hf63a671d06e5a3cfE', symObjAddr: 0x2BA0, symBinAddr: 0x3D93C, symSize: 0x24 }
  - { offset: 0x95D68, size: 0x8, addend: 0x0, symName: '__ZN4core3ptr1327drop_in_place$LT$rayon_core..job..StackJob$LT$rayon_core..latch..SpinLatch$C$rayon_core..join..join_context..call_b$LT$rayon..iter..collect..consumer..CollectResult$LT$$LP$alloc..string..String$C$core..option..Option$LT$alloc..string..String$GT$$RP$$GT$$C$rayon..iter..plumbing..bridge_producer_consumer..helper$LT$rayon..slice..IterProducer$LT$std..path..PathBuf$GT$$C$rayon..iter..map..MapConsumer$LT$rayon..iter..map..MapConsumer$LT$rayon..iter..while_some..WhileSomeConsumer$LT$rayon..iter..collect..consumer..CollectConsumer$LT$$LP$alloc..string..String$C$core..option..Option$LT$alloc..string..String$GT$$RP$$GT$$GT$$C$rayon..result..$LT$impl$u20$rayon..iter..FromParallelIterator$LT$core..result..Result$LT$T$C$E$GT$$GT$$u20$for$u20$core..result..Result$LT$C$C$E$GT$$GT$..from_par_iter..ok$LT$$LP$alloc..string..String$C$core..option..Option$LT$alloc..string..String$GT$$RP$$C$_core..errors..E4EError$GT$..$u7b$$u7b$closure$u7d$$u7d$$GT$$C$_core..manifest..collect_validation_failures_with_progress$LT$_core..dataset..validate_dataset_failures..$u7b$$u7b$closure$u7d$$u7d$$GT$..$u7b$$u7b$closure$u7d$$u7d$$GT$$GT$..$u7b$$u7b$closure$u7d$$u7d$$GT$..$u7b$$u7b$closure$u7d$$u7d$$C$rayon..iter..collect..consumer..CollectResult$LT$$LP$alloc..string..String$C$core..option..Option$LT$alloc..string..String$GT$$RP$$GT$$GT$$GT$17hb7b48b0db89d9e12E', symObjAddr: 0x2BC4, symBinAddr: 0x3D960, symSize: 0x24 }
  - { offset: 0x95D97, size: 0x8, addend: 0x0, symName: '__ZN4core3ptr132drop_in_place$LT$alloc..raw_vec..RawVec$LT$$LP$alloc..string..String$C$core..option..Option$LT$alloc..string..String$GT$$RP$$GT$$GT$17h6e60526cd5936f87E', symObjAddr: 0x2BE8, symBinAddr: 0x3D984, symSize: 0x24 }
  - { offset: 0x95DC6, size: 0x8, addend: 0x0, symName: '__ZN4core3ptr132drop_in_place$LT$pyo3..err..PyErr..new$LT$_core..python..ReadmeNotFound$C$alloc..string..String$GT$..$u7b$$u7b$closure$u7d$$u7d$$GT$17hb0be380284d25571E', symObjAddr: 0x2C0C, symBinAddr: 0x3D9A8, symSize: 0x24 }
  - { offset: 0x95DF5, size: 0x8, addend: 0x0, symName: '__ZN4core3ptr132drop_in_place$LT$rusqlite..row..MappedRows$LT$_core..db..DatasetDb..get_dataset_committed_files..$u7b$$u7b$closure$u7d$$u7d$$GT$$GT$17h456aeb97340368efE', symObjAddr: 0x2C30, symBinAddr: 0x3D9CC, symSize: 0x24 }
  - { offset: 0x95E24, size: 0x8, addend: 0x0, symName: '__ZN4core3ptr132drop_in_place$LT$rusqlite..row..MappedRows$LT$_core..db..DatasetDb..get_mission_committed_files..$u7b$$u7b$closure$u7d$$u7d$$GT$$GT$17h43176e0c3a2d970fE', symObjAddr: 0x2C54, symBinAddr: 0x3D9F0, symSize: 0x24 }
  - { offset: 0x95E53, size: 0x8, addend: 0x0, symName: '__ZN4core3ptr133drop_in_place$LT$hashbrown..map..HashMap$LT$alloc..string..String$C$serde_json..value..Value$C$std..hash..random..RandomState$GT$$GT$17hfbc09532483f1f35E', symObjAddr: 0x2C78, symBinAddr: 0x3DA14, symSize: 0x24 }
  - { offset: 0x95E82, size: 0x8, addend: 0x0, symName: '__ZN4core3ptr134drop_in_place$LT$core..option..Option$LT$zopfli..deflate..BitwiseWriter$LT$zip..write..MaybeEncrypted$LT$std..fs..File$GT$$GT$$GT$$GT$17hc87e4e661b73e08aE', symObjAddr: 0x2CC0, symBinAddr: 0x3DA38, symSize: 0x48 }
  - { offset: 0x95EB1, size: 0x8, addend: 0x0, symName: '__ZN4core3ptr134drop_in_place$LT$pyo3..err..PyErr..new$LT$_core..python..CorruptedDataset$C$alloc..string..String$GT$..$u7b$$u7b$closure$u7d$$u7d$$GT$17h9593e95cfa1ef671E', symObjAddr: 0x2D08, symBinAddr: 0x3DA80, symSize: 0x24 }
  - { offset: 0x95EE0, size: 0x8, addend: 0x0, symName: '__ZN4core3ptr1376drop_in_place$LT$rayon_core..job..StackJob$LT$rayon_core..latch..SpinLatch$C$rayon_core..join..join_context..call_b$LT$rayon..iter..collect..consumer..CollectResult$LT$$LP$alloc..string..String$C$core..option..Option$LT$alloc..string..String$GT$$RP$$GT$$C$rayon..iter..plumbing..bridge_producer_consumer..helper$LT$rayon..slice..IterProducer$LT$std..path..PathBuf$GT$$C$rayon..iter..map..MapConsumer$LT$rayon..iter..map..MapConsumer$LT$rayon..iter..while_some..WhileSomeConsumer$LT$rayon..iter..collect..consumer..CollectConsumer$LT$$LP$alloc..string..String$C$core..option..Option$LT$alloc..string..String$GT$$RP$$GT$$GT$$C$rayon..result..$LT$impl$u20$rayon..iter..FromParallelIterator$LT$core..result..Result$LT$T$C$E$GT$$GT$$u20$for$u20$core..result..Result$LT$C$C$E$GT$$GT$..from_par_iter..ok$LT$$LP$alloc..string..String$C$core..option..Option$LT$alloc..string..String$GT$$RP$$C$_core..errors..E4EError$GT$..$u7b$$u7b$closure$u7d$$u7d$$GT$$C$_core..manifest..collect_validation_failures_with_progress$LT$_core..python..PyDataManager..validate_failures_with_progress..$u7b$$u7b$closure$u7d$$u7d$..$u7b$$u7b$closure$u7d$$u7d$$GT$..$u7b$$u7b$closure$u7d$$u7d$$GT$$GT$..$u7b$$u7b$closure$u7d$$u7d$$GT$..$u7b$$u7b$closure$u7d$$u7d$$C$rayon..iter..collect..consumer..CollectResult$LT$$LP$alloc..string..String$C$core..option..Option$LT$alloc..string..String$GT$$RP$$GT$$GT$$GT$17h932fac2a7221ede5E', symObjAddr: 0x2D2C, symBinAddr: 0x3DAA4, symSize: 0x24 }
  - { offset: 0x95F0F, size: 0x8, addend: 0x0, symName: '__ZN4core3ptr138drop_in_place$LT$pyo3..err..PyErr..new$LT$_core..python..ReadmeFilesInStaging$C$alloc..string..String$GT$..$u7b$$u7b$closure$u7d$$u7d$$GT$17hec2000bf918530ccE', symObjAddr: 0x2D50, symBinAddr: 0x3DAC8, symSize: 0x24 }
  - { offset: 0x95F3E, size: 0x8, addend: 0x0, symName: '__ZN4core3ptr139drop_in_place$LT$hashbrown..map..HashMap$LT$alloc..string..String$C$_core..manifest..ManifestEntry$C$std..hash..random..RandomState$GT$$GT$17h0b8750110e0d0adaE', symObjAddr: 0x2D74, symBinAddr: 0x3DAEC, symSize: 0x24 }
  - { offset: 0x95F6D, size: 0x8, addend: 0x0, symName: '__ZN4core3ptr139drop_in_place$LT$pyo3..err..PyErr..new$LT$_core..python..MissionFilesInStaging$C$alloc..string..String$GT$..$u7b$$u7b$closure$u7d$$u7d$$GT$17hf6ca324aef8cfadaE', symObjAddr: 0x2D98, symBinAddr: 0x3DB10, symSize: 0x24 }
  - { offset: 0x95F9C, size: 0x8, addend: 0x0, symName: '__ZN4core3ptr141drop_in_place$LT$core..option..Option$LT$std..collections..hash..map..HashMap$LT$alloc..string..String$C$serde_json..value..Value$GT$$GT$$GT$17h26c91ffec0e128cdE', symObjAddr: 0x2DBC, symBinAddr: 0x3DB34, symSize: 0x44 }
  - { offset: 0x95FCB, size: 0x8, addend: 0x0, symName: '__ZN4core3ptr144drop_in_place$LT$rayon..iter..extend..ListVecFolder$LT$$LP$alloc..string..String$C$core..option..Option$LT$alloc..string..String$GT$$RP$$GT$$GT$17h8b3189c1a9669b05E', symObjAddr: 0x2E00, symBinAddr: 0x3DB78, symSize: 0x24 }
  - { offset: 0x95FFA, size: 0x8, addend: 0x0, symName: '__ZN4core3ptr148drop_in_place$LT$core..result..Result$LT$core..option..Option$LT$zip..write..MaybeEncrypted$LT$std..fs..File$GT$$GT$$C$std..io..error..Error$GT$$GT$17h5dbf5e7db9e07f55E', symObjAddr: 0x2E24, symBinAddr: 0x3DB9C, symSize: 0x60 }
  - { offset: 0x96029, size: 0x8, addend: 0x0, symName: '__ZN4core3ptr149drop_in_place$LT$$LT$alloc..vec..drain..Drain$LT$T$C$A$GT$$u20$as$u20$core..ops..drop..Drop$GT$..drop..DropGuard$LT$u8$C$alloc..alloc..Global$GT$$GT$17hdff1bdef3bd7985aE', symObjAddr: 0x2E84, symBinAddr: 0x3DBFC, symSize: 0x24 }
  - { offset: 0x96058, size: 0x8, addend: 0x0, symName: '__ZN4core3ptr150drop_in_place$LT$core..iter..adapters..filter_map..FilterMap$LT$std..fs..ReadDir$C$_core..dataset..check_complete..$u7b$$u7b$closure$u7d$$u7d$$GT$$GT$17h5f3d48f3f2ad49f1E', symObjAddr: 0x2EA8, symBinAddr: 0x3DC20, symSize: 0x24 }
  - { offset: 0x96087, size: 0x8, addend: 0x0, symName: '__ZN4core3ptr150drop_in_place$LT$std..io..default_write_fmt..Adapter$LT$zopfli..deflate..DeflateEncoder$LT$zip..write..MaybeEncrypted$LT$std..fs..File$GT$$GT$$GT$$GT$17ha4b7eaf2f49e4076E', symObjAddr: 0x2ECC, symBinAddr: 0x3DC44, symSize: 0x24 }
  - { offset: 0x960B6, size: 0x8, addend: 0x0, symName: '__ZN4core3ptr154drop_in_place$LT$core..iter..adapters..filter_map..FilterMap$LT$walkdir..IntoIter$C$_core..dataset..get_dataset_files..$u7b$$u7b$closure$u7d$$u7d$$GT$$GT$17hfa72c14181de1812E', symObjAddr: 0x2EF0, symBinAddr: 0x3DC68, symSize: 0x24 }
  - { offset: 0x960E5, size: 0x8, addend: 0x0, symName: '__ZN4core3ptr154drop_in_place$LT$std..io..buffered..bufwriter..BufWriter$LT$zopfli..deflate..DeflateEncoder$LT$zip..write..MaybeEncrypted$LT$std..fs..File$GT$$GT$$GT$$GT$17h59bd2b94e29256b4E', symObjAddr: 0x2F14, symBinAddr: 0x3DC8C, symSize: 0x88 }
  - { offset: 0x96114, size: 0x8, addend: 0x0, symName: '__ZN4core3ptr154drop_in_place$LT$std..sync..poison..PoisonError$LT$std..sync..poison..mutex..MutexGuard$LT$core..option..Option$LT$_core..errors..E4EError$GT$$GT$$GT$$GT$17hd4f2721e2ca8a5e4E', symObjAddr: 0x2F9C, symBinAddr: 0x3DD14, symSize: 0x24 }
  - { offset: 0x96143, size: 0x8, addend: 0x0, symName: '__ZN4core3ptr155drop_in_place$LT$rayon..iter..collect..consumer..CollectResult$LT$$LP$alloc..string..String$C$core..option..Option$LT$alloc..string..String$GT$$RP$$GT$$GT$17hb4a0f7474674fa06E', symObjAddr: 0x2FC0, symBinAddr: 0x3DD38, symSize: 0x24 }
  - { offset: 0x96172, size: 0x8, addend: 0x0, symName: '__ZN4core3ptr155drop_in_place$LT$std..sync..poison..TryLockError$LT$std..sync..poison..mutex..MutexGuard$LT$core..option..Option$LT$_core..errors..E4EError$GT$$GT$$GT$$GT$17he65fd8804eab5f45E', symObjAddr: 0x2FE4, symBinAddr: 0x3DD5C, symSize: 0x48 }
  - { offset: 0x961A1, size: 0x8, addend: 0x0, symName: '__ZN4core3ptr156drop_in_place$LT$core..iter..adapters..filter_map..FilterMap$LT$walkdir..IntoIter$C$_core..dataset..stage_mission_files..$u7b$$u7b$closure$u7d$$u7d$$GT$$GT$17hc7df8bcbfa954b37E', symObjAddr: 0x302C, symBinAddr: 0x3DDA4, symSize: 0x24 }
  - { offset: 0x961D0, size: 0x8, addend: 0x0, symName: '__ZN4core3ptr157drop_in_place$LT$$LT$alloc..vec..into_iter..IntoIter$LT$T$C$A$GT$$u20$as$u20$core..ops..drop..Drop$GT$..drop..DropGuard$LT$u16$C$alloc..alloc..Global$GT$$GT$17h18cb0e15b5596183E', symObjAddr: 0x3050, symBinAddr: 0x3DDC8, symSize: 0x24 }
  - { offset: 0x961FF, size: 0x8, addend: 0x0, symName: '__ZN4core3ptr157drop_in_place$LT$core..iter..adapters..filter_map..FilterMap$LT$walkdir..IntoIter$C$_core..dataset..commit_dataset_files..$u7b$$u7b$closure$u7d$$u7d$$GT$$GT$17h8cb64fd4efd3cd26E', symObjAddr: 0x3074, symBinAddr: 0x3DDEC, symSize: 0x24 }
  - { offset: 0x9622E, size: 0x8, addend: 0x0, symName: '__ZN4core3ptr157drop_in_place$LT$std..io..default_write_fmt..Adapter$LT$flate2..deflate..write..DeflateEncoder$LT$zip..write..MaybeEncrypted$LT$std..fs..File$GT$$GT$$GT$$GT$17hb1215df6224f1927E', symObjAddr: 0x3098, symBinAddr: 0x3DE10, symSize: 0x24 }
  - { offset: 0x9625D, size: 0x8, addend: 0x0, symName: '__ZN4core3ptr168drop_in_place$LT$core..result..Result$LT$std..collections..hash..map..HashMap$LT$alloc..string..String$C$serde_json..value..Value$GT$$C$serde_json..error..Error$GT$$GT$17hbd913e25710eb3edE', symObjAddr: 0x30BC, symBinAddr: 0x3DE34, symSize: 0x58 }
  - { offset: 0x9628C, size: 0x8, addend: 0x0, symName: '__ZN4core3ptr170drop_in_place$LT$alloc..collections..linked_list..Node$LT$alloc..vec..Vec$LT$$LP$alloc..string..String$C$core..option..Option$LT$alloc..string..String$GT$$RP$$GT$$GT$$GT$17h92f1f465b2bad6b4E', symObjAddr: 0x3114, symBinAddr: 0x3DE8C, symSize: 0x24 }
  - { offset: 0x962BB, size: 0x8, addend: 0x0, symName: '__ZN4core3ptr174drop_in_place$LT$alloc..collections..linked_list..IntoIter$LT$alloc..vec..Vec$LT$$LP$alloc..string..String$C$core..option..Option$LT$alloc..string..String$GT$$RP$$GT$$GT$$GT$17hb5c664be9a31ea9aE', symObjAddr: 0x3138, symBinAddr: 0x3DEB0, symSize: 0x24 }
  - { offset: 0x962EA, size: 0x8, addend: 0x0, symName: '__ZN4core3ptr174drop_in_place$LT$core..result..Result$LT$std..collections..hash..map..HashMap$LT$alloc..string..String$C$_core..manifest..ManifestEntry$GT$$C$serde_json..error..Error$GT$$GT$17h15185f83ef2de1a6E', symObjAddr: 0x315C, symBinAddr: 0x3DED4, symSize: 0x58 }
  - { offset: 0x96319, size: 0x8, addend: 0x0, symName: '__ZN4core3ptr175drop_in_place$LT$$LT$T$u20$as$u20$alloc..slice..$LT$impl$u20$$u5b$T$u5d$$GT$..to_vec_in..ConvertVec$GT$..to_vec..DropGuard$LT$std..path..PathBuf$C$alloc..alloc..Global$GT$$GT$17h6f8e82d6cb00b186E', symObjAddr: 0x31B4, symBinAddr: 0x3DF2C, symSize: 0x24 }
  - { offset: 0x96348, size: 0x8, addend: 0x0, symName: '__ZN4core3ptr175drop_in_place$LT$$LT$alloc..vec..into_iter..IntoIter$LT$T$C$A$GT$$u20$as$u20$core..ops..drop..Drop$GT$..drop..DropGuard$LT$alloc..string..String$C$alloc..alloc..Global$GT$$GT$17hd9c103dbb0087267E', symObjAddr: 0x31D8, symBinAddr: 0x3DF50, symSize: 0x24 }
  - { offset: 0x96377, size: 0x8, addend: 0x0, symName: '__ZN4core3ptr176drop_in_place$LT$alloc..collections..linked_list..LinkedList$LT$alloc..vec..Vec$LT$$LP$alloc..string..String$C$core..option..Option$LT$alloc..string..String$GT$$RP$$GT$$GT$$GT$17h98b805651b4d463bE', symObjAddr: 0x31FC, symBinAddr: 0x3DF74, symSize: 0x24 }
  - { offset: 0x963A6, size: 0x8, addend: 0x0, symName: '__ZN4core3ptr178drop_in_place$LT$$LT$T$u20$as$u20$alloc..slice..$LT$impl$u20$$u5b$T$u5d$$GT$..to_vec_in..ConvertVec$GT$..to_vec..DropGuard$LT$alloc..string..String$C$alloc..alloc..Global$GT$$GT$17h99759e267b25b849E', symObjAddr: 0x3220, symBinAddr: 0x3DF98, symSize: 0x24 }
  - { offset: 0x963D5, size: 0x8, addend: 0x0, symName: '__ZN4core3ptr178drop_in_place$LT$$LT$alloc..vec..into_iter..IntoIter$LT$T$C$A$GT$$u20$as$u20$core..ops..drop..Drop$GT$..drop..DropGuard$LT$_core..db..MissionRecord$C$alloc..alloc..Global$GT$$GT$17hf205509b986e7da9E', symObjAddr: 0x3244, symBinAddr: 0x3DFBC, symSize: 0x24 }
  - { offset: 0x96404, size: 0x8, addend: 0x0, symName: '__ZN4core3ptr178drop_in_place$LT$$LT$alloc..vec..into_iter..IntoIter$LT$T$C$A$GT$$u20$as$u20$core..ops..drop..Drop$GT$..drop..DropGuard$LT$_core..python..PyMission$C$alloc..alloc..Global$GT$$GT$17h774aea5f20659eaeE', symObjAddr: 0x3268, symBinAddr: 0x3DFE0, symSize: 0x24 }
  - { offset: 0x96433, size: 0x8, addend: 0x0, symName: '__ZN4core3ptr181drop_in_place$LT$$LT$alloc..vec..into_iter..IntoIter$LT$T$C$A$GT$$u20$as$u20$core..ops..drop..Drop$GT$..drop..DropGuard$LT$_core..python..PyStagedFile$C$alloc..alloc..Global$GT$$GT$17h1461844a81a70c1aE', symObjAddr: 0x328C, symBinAddr: 0x3E004, symSize: 0x24 }
  - { offset: 0x96462, size: 0x8, addend: 0x0, symName: '__ZN4core3ptr184drop_in_place$LT$$LT$T$u20$as$u20$alloc..slice..$LT$impl$u20$$u5b$T$u5d$$GT$..to_vec_in..ConvertVec$GT$..to_vec..DropGuard$LT$_core..db..StagedFileRecord$C$alloc..alloc..Global$GT$$GT$17h138ac73ef22ef6f5E', symObjAddr: 0x32B0, symBinAddr: 0x3E028, symSize: 0x24 }
  - { offset: 0x96491, size: 0x8, addend: 0x0, symName: '__ZN4core3ptr185drop_in_place$LT$$LT$T$u20$as$u20$alloc..slice..$LT$impl$u20$$u5b$T$u5d$$GT$..to_vec_in..ConvertVec$GT$..to_vec..DropGuard$LT$_core..dataset..MissionState$C$alloc..alloc..Global$GT$$GT$17h78194066edd1b6ebE', symObjAddr: 0x32D4, symBinAddr: 0x3E04C, symSize: 0x24 }
  - { offset: 0x964C0, size: 0x8, addend: 0x0, symName: '__ZN4core3ptr189drop_in_place$LT$rayon_core..job..JobResult$LT$rayon..iter..collect..consumer..CollectResult$LT$$LP$alloc..string..String$C$core..option..Option$LT$alloc..string..String$GT$$RP$$GT$$GT$$GT$17h049e500a9ed5eab8E', symObjAddr: 0x32F8, symBinAddr: 0x3E070, symSize: 0x64 }
  - { offset: 0x964EF, size: 0x8, addend: 0x0, symName: '__ZN4core3ptr190drop_in_place$LT$zip..write..$LT$impl$u20$zip..write..zip_writer..ZipWriter$LT$std..fs..File$GT$$GT$..start_entry$LT$$RF$alloc..string..String$C$$LP$$RP$$GT$..$u7b$$u7b$closure$u7d$$u7d$$GT$17h6fcd0bbd4b492e5fE', symObjAddr: 0x335C, symBinAddr: 0x3E0D4, symSize: 0x24 }
  - { offset: 0x9651E, size: 0x8, addend: 0x0, symName: '__ZN4core3ptr192drop_in_place$LT$rayon..iter..while_some..WhileSomeFolder$LT$rayon..iter..extend..ListVecFolder$LT$$LP$alloc..string..String$C$core..option..Option$LT$alloc..string..String$GT$$RP$$GT$$GT$$GT$17h0b361052618c8483E', symObjAddr: 0x3380, symBinAddr: 0x3E0F8, symSize: 0x24 }
  - { offset: 0x9654D, size: 0x8, addend: 0x0, symName: '__ZN4core3ptr197drop_in_place$LT$std..io..default_write_fmt..Adapter$LT$std..io..buffered..bufwriter..BufWriter$LT$zopfli..deflate..DeflateEncoder$LT$zip..write..MaybeEncrypted$LT$std..fs..File$GT$$GT$$GT$$GT$$GT$17h6f431a0093ae231cE', symObjAddr: 0x33EC, symBinAddr: 0x3E11C, symSize: 0x24 }
  - { offset: 0x9657C, size: 0x8, addend: 0x0, symName: '__ZN4core3ptr203drop_in_place$LT$rayon..iter..while_some..WhileSomeFolder$LT$rayon..iter..collect..consumer..CollectResult$LT$$LP$alloc..string..String$C$core..option..Option$LT$alloc..string..String$GT$$RP$$GT$$GT$$GT$17hcf932116f3395ccdE', symObjAddr: 0x3410, symBinAddr: 0x3E140, symSize: 0x24 }
  - { offset: 0x965AB, size: 0x8, addend: 0x0, symName: '__ZN4core3ptr210drop_in_place$LT$rayon_core..job..JobResult$LT$alloc..collections..linked_list..LinkedList$LT$alloc..vec..Vec$LT$$LP$alloc..string..String$C$core..option..Option$LT$alloc..string..String$GT$$RP$$GT$$GT$$GT$$GT$17hc170993004adb7a0E', symObjAddr: 0x3434, symBinAddr: 0x3E164, symSize: 0x64 }
  - { offset: 0x965DA, size: 0x8, addend: 0x0, symName: '__ZN4core3ptr214drop_in_place$LT$core..iter..adapters..map..Map$LT$alloc..vec..into_iter..IntoIter$LT$alloc..string..String$GT$$C$$LT$std..path..PathBuf$u20$as$u20$core..convert..From$LT$alloc..string..String$GT$$GT$..from$GT$$GT$17ha77e16d8d51b6a9cE', symObjAddr: 0x3498, symBinAddr: 0x3E1C8, symSize: 0x24 }
  - { offset: 0x96609, size: 0x8, addend: 0x0, symName: '__ZN4core3ptr217drop_in_place$LT$core..iter..traits..iterator..Iterator..for_each..call$LT$u8$C$alloc..vec..Vec$LT$u8$GT$..extend_trusted$LT$core..str..iter..Bytes$GT$..$u7b$$u7b$closure$u7d$$u7d$$GT$..$u7b$$u7b$closure$u7d$$u7d$$GT$17h64ca4b535c856ec7E', symObjAddr: 0x34BC, symBinAddr: 0x3E1EC, symSize: 0x24 }
  - { offset: 0x96638, size: 0x8, addend: 0x0, symName: '__ZN4core3ptr219drop_in_place$LT$core..cell..UnsafeCell$LT$rayon_core..job..JobResult$LT$rayon..iter..collect..consumer..CollectResult$LT$$LP$alloc..string..String$C$core..option..Option$LT$alloc..string..String$GT$$RP$$GT$$GT$$GT$$GT$17ha6c1ea6acdcf1621E', symObjAddr: 0x34E0, symBinAddr: 0x3E210, symSize: 0x24 }
  - { offset: 0x96667, size: 0x8, addend: 0x0, symName: '__ZN4core3ptr222drop_in_place$LT$alloc..boxed..Box$LT$alloc..collections..linked_list..Node$LT$alloc..vec..Vec$LT$$LP$alloc..string..String$C$core..option..Option$LT$alloc..string..String$GT$$RP$$GT$$GT$$C$$RF$alloc..alloc..Global$GT$$GT$17hc42a56478c785fdaE', symObjAddr: 0x3504, symBinAddr: 0x3E234, symSize: 0x60 }
  - { offset: 0x96696, size: 0x8, addend: 0x0, symName: '__ZN4core3ptr222drop_in_place$LT$alloc..boxed..Box$LT$dyn$u20$core..ops..function..FnOnce$LT$$LP$zip..write..MaybeEncrypted$LT$std..fs..File$GT$$C$$RP$$GT$$u2b$Output$u20$$u3d$$u20$zip..write..GenericZipWriter$LT$std..fs..File$GT$$GT$$GT$17h38e987b5e8f3f451E', symObjAddr: 0x3564, symBinAddr: 0x3E294, symSize: 0x80 }
  - { offset: 0x966C5, size: 0x8, addend: 0x0, symName: '__ZN4core3ptr227drop_in_place$LT$core..iter..traits..iterator..Iterator..for_each..call$LT$u8$C$alloc..vec..Vec$LT$u8$GT$..extend_trusted$LT$core..option..IntoIter$LT$u8$GT$$GT$..$u7b$$u7b$closure$u7d$$u7d$$GT$..$u7b$$u7b$closure$u7d$$u7d$$GT$17h677fe2cefa560d1fE', symObjAddr: 0x35E4, symBinAddr: 0x3E314, symSize: 0x24 }
  - { offset: 0x966F4, size: 0x8, addend: 0x0, symName: '__ZN4core3ptr240drop_in_place$LT$core..cell..UnsafeCell$LT$rayon_core..job..JobResult$LT$alloc..collections..linked_list..LinkedList$LT$alloc..vec..Vec$LT$$LP$alloc..string..String$C$core..option..Option$LT$alloc..string..String$GT$$RP$$GT$$GT$$GT$$GT$$GT$17hab01faa7c25a1723E', symObjAddr: 0x3608, symBinAddr: 0x3E338, symSize: 0x24 }
  - { offset: 0x96723, size: 0x8, addend: 0x0, symName: '__ZN4core3ptr250drop_in_place$LT$core..option..Option$LT$alloc..boxed..Box$LT$alloc..collections..linked_list..Node$LT$alloc..vec..Vec$LT$$LP$alloc..string..String$C$core..option..Option$LT$alloc..string..String$GT$$RP$$GT$$GT$$C$$RF$alloc..alloc..Global$GT$$GT$$GT$17h424a376affc58892E', symObjAddr: 0x362C, symBinAddr: 0x3E35C, symSize: 0x44 }
  - { offset: 0x96752, size: 0x8, addend: 0x0, symName: '__ZN4core3ptr256drop_in_place$LT$core..iter..adapters..filter..Filter$LT$core..iter..adapters..filter_map..FilterMap$LT$std..fs..ReadDir$C$_core..dataset..check_complete..$u7b$$u7b$closure$u7d$$u7d$$GT$$C$_core..dataset..check_complete..$u7b$$u7b$closure$u7d$$u7d$$GT$$GT$17h82ce493f0c8b123aE', symObjAddr: 0x3670, symBinAddr: 0x3E3A0, symSize: 0x24 }
  - { offset: 0x96781, size: 0x8, addend: 0x0, symName: '__ZN4core3ptr267drop_in_place$LT$core..iter..adapters..filter..Filter$LT$core..iter..adapters..filter_map..FilterMap$LT$walkdir..IntoIter$C$_core..dataset..stage_mission_files..$u7b$$u7b$closure$u7d$$u7d$$GT$$C$_core..dataset..stage_mission_files..$u7b$$u7b$closure$u7d$$u7d$$GT$$GT$17h35ea63cba78bcc95E', symObjAddr: 0x3694, symBinAddr: 0x3E3C4, symSize: 0x24 }
  - { offset: 0x967B0, size: 0x8, addend: 0x0, symName: '__ZN4core3ptr269drop_in_place$LT$core..iter..adapters..filter..Filter$LT$core..iter..adapters..filter_map..FilterMap$LT$walkdir..IntoIter$C$_core..dataset..commit_dataset_files..$u7b$$u7b$closure$u7d$$u7d$$GT$$C$_core..dataset..commit_dataset_files..$u7b$$u7b$closure$u7d$$u7d$$GT$$GT$17hf2b22f5efdc0d32fE', symObjAddr: 0x36B8, symBinAddr: 0x3E3E8, symSize: 0x24 }
  - { offset: 0x967DF, size: 0x8, addend: 0x0, symName: '__ZN4core3ptr270drop_in_place$LT$$LT$alloc..collections..linked_list..LinkedList$LT$T$C$A$GT$$u20$as$u20$core..ops..drop..Drop$GT$..drop..DropGuard$LT$alloc..vec..Vec$LT$$LP$alloc..string..String$C$core..option..Option$LT$alloc..string..String$GT$$RP$$GT$$C$alloc..alloc..Global$GT$$GT$17h19b2f7971ef0748eE', symObjAddr: 0x36DC, symBinAddr: 0x3E40C, symSize: 0x24 }
  - { offset: 0x9680E, size: 0x8, addend: 0x0, symName: '__ZN4core3ptr271drop_in_place$LT$alloc..vec..Vec$LT$alloc..string..String$GT$..extend_trusted$LT$core..iter..adapters..map..Map$LT$core..slice..iter..Iter$LT$std..path..PathBuf$GT$$C$_core..dataset..save_dataset_state..$u7b$$u7b$closure$u7d$$u7d$$GT$$GT$..$u7b$$u7b$closure$u7d$$u7d$$GT$17h3103e13722dce0e9E', symObjAddr: 0x3700, symBinAddr: 0x3E430, symSize: 0x24 }
  - { offset: 0x9683D, size: 0x8, addend: 0x0, symName: '__ZN4core3ptr272drop_in_place$LT$alloc..vec..Vec$LT$alloc..string..String$GT$..extend_trusted$LT$core..iter..adapters..map..Map$LT$core..slice..iter..Iter$LT$std..path..PathBuf$GT$$C$_core..dataset..stage_dataset_files..$u7b$$u7b$closure$u7d$$u7d$$GT$$GT$..$u7b$$u7b$closure$u7d$$u7d$$GT$17h3828023ea31a2090E', symObjAddr: 0x3724, symBinAddr: 0x3E454, symSize: 0x24 }
  - { offset: 0x9686C, size: 0x8, addend: 0x0, symName: '__ZN4core3ptr273drop_in_place$LT$alloc..vec..Vec$LT$alloc..string..String$GT$..extend_trusted$LT$core..iter..adapters..map..Map$LT$core..slice..iter..Iter$LT$std..path..PathBuf$GT$$C$_core..dataset..commit_dataset_files..$u7b$$u7b$closure$u7d$$u7d$$GT$$GT$..$u7b$$u7b$closure$u7d$$u7d$$GT$17hb8c583b7c338eaffE', symObjAddr: 0x3748, symBinAddr: 0x3E478, symSize: 0x24 }
  - { offset: 0x9689B, size: 0x8, addend: 0x0, symName: '__ZN4core3ptr273drop_in_place$LT$alloc..vec..Vec$LT$alloc..string..String$GT$..extend_trusted$LT$core..iter..adapters..map..Map$LT$core..slice..iter..Iter$LT$std..path..PathBuf$GT$$C$_core..dataset..commit_mission_files..$u7b$$u7b$closure$u7d$$u7d$$GT$$GT$..$u7b$$u7b$closure$u7d$$u7d$$GT$17he06e957431132a28E', symObjAddr: 0x376C, symBinAddr: 0x3E49C, symSize: 0x24 }
  - { offset: 0x968CA, size: 0x8, addend: 0x0, symName: '__ZN4core3ptr273drop_in_place$LT$alloc..vec..Vec$LT$alloc..string..String$GT$..extend_trusted$LT$core..iter..adapters..map..Map$LT$core..slice..iter..Iter$LT$std..path..PathBuf$GT$$C$_core..python..PyDataManager..status..$u7b$$u7b$closure$u7d$$u7d$$GT$$GT$..$u7b$$u7b$closure$u7d$$u7d$$GT$17h89ef0abb1cfa97a9E', symObjAddr: 0x3790, symBinAddr: 0x3E4C0, symSize: 0x24 }
  - { offset: 0x968F9, size: 0x8, addend: 0x0, symName: '__ZN4core3ptr2755drop_in_place$LT$rayon_core..job..StackJob$LT$rayon_core..latch..SpinLatch$C$rayon_core..registry..Registry..in_worker_cross$LT$rayon_core..join..join_context$LT$rayon..iter..plumbing..bridge_producer_consumer..helper$LT$rayon..slice..IterProducer$LT$std..path..PathBuf$GT$$C$rayon..iter..map..MapConsumer$LT$rayon..iter..map..MapConsumer$LT$rayon..iter..while_some..WhileSomeConsumer$LT$rayon..iter..extend..ListVecConsumer$GT$$C$rayon..result..$LT$impl$u20$rayon..iter..FromParallelIterator$LT$core..result..Result$LT$T$C$E$GT$$GT$$u20$for$u20$core..result..Result$LT$C$C$E$GT$$GT$..from_par_iter..ok$LT$$LP$alloc..string..String$C$core..option..Option$LT$alloc..string..String$GT$$RP$$C$_core..errors..E4EError$GT$..$u7b$$u7b$closure$u7d$$u7d$$GT$$C$_core..manifest..collect_validation_failures_with_progress$LT$_core..ffi..e4e_validate..$u7b$$u7b$closure$u7d$$u7d$$GT$..$u7b$$u7b$closure$u7d$$u7d$$GT$$GT$..$u7b$$u7b$closure$u7d$$u7d$$C$rayon..iter..plumbing..bridge_producer_consumer..helper$LT$rayon..slice..IterProducer$LT$std..path..PathBuf$GT$$C$rayon..iter..map..MapConsumer$LT$rayon..iter..map..MapConsumer$LT$rayon..iter..while_some..WhileSomeConsumer$LT$rayon..iter..extend..ListVecConsumer$GT$$C$rayon..result..$LT$impl$u20$rayon..iter..FromParallelIterator$LT$core..result..Result$LT$T$C$E$GT$$GT$$u20$for$u20$core..result..Result$LT$C$C$E$GT$$GT$..from_par_iter..ok$LT$$LP$alloc..string..String$C$core..option..Option$LT$alloc..string..String$GT$$RP$$C$_core..errors..E4EError$GT$..$u7b$$u7b$closure$u7d$$u7d$$GT$$C$_core..manifest..collect_validation_failures_with_progress$LT$_core..ffi..e4e_validate..$u7b$$u7b$closure$u7d$$u7d$$GT$..$u7b$$u7b$closure$u7d$$u7d$$GT$$GT$..$u7b$$u7b$closure$u7d$$u7d$$C$alloc..collections..linked_list..LinkedList$LT$alloc..vec..Vec$LT$$LP$alloc..string..String$C$core..option..Option$LT$alloc..string..String$GT$$RP$$GT$$GT$$C$alloc..collections..linked_list..LinkedList$LT$alloc..vec..Vec$LT$$LP$alloc..string..String$C$core..option..Option$LT$alloc..string..String$GT$$RP$$GT$$GT$$GT$..$u7b$$u7b$closure$u7d$$u7d$$C$$LP$alloc..collections..linked_list..LinkedList$LT$alloc..vec..Vec$LT$$LP$alloc..string..String$C$core..option..Option$LT$alloc..string..String$GT$$RP$$GT$$GT$$C$alloc..collections..linked_list..LinkedList$LT$alloc..vec..Vec$LT$$LP$alloc..string..String$C$core..option..Option$LT$alloc..string..String$GT$$RP$$GT$$GT$$RP$$GT$..$u7b$$u7b$closure$u7d$$u7d$$C$$LP$alloc..collections..linked_list..LinkedList$LT$alloc..vec..Vec$LT$$LP$alloc..string..String$C$core..option..Option$LT$alloc..string..String$GT$$RP$$GT$$GT$$C$alloc..collections..linked_list..LinkedList$LT$alloc..vec..Vec$LT$$LP$alloc..string..String$C$core..option..Option$LT$alloc..string..String$GT$$RP$$GT$$GT$$RP$$GT$$GT$17h17814b93d76e2037E', symObjAddr: 0x37B4, symBinAddr: 0x3E4E4, symSize: 0x24 }
  - { offset: 0x96928, size: 0x8, addend: 0x0, symName: '__ZN4core3ptr275drop_in_place$LT$alloc..vec..Vec$LT$alloc..string..String$GT$..extend_trusted$LT$core..iter..adapters..map..Map$LT$core..slice..iter..Iter$LT$std..path..PathBuf$GT$$C$_core..python..PyDataset..staged_files..$u7b$$u7b$closure$u7d$$u7d$$GT$$GT$..$u7b$$u7b$closure$u7d$$u7d$$GT$17h02ef8bccb9944d2fE', symObjAddr: 0x37D8, symBinAddr: 0x3E508, symSize: 0x24 }
  - { offset: 0x96957, size: 0x8, addend: 0x0, symName: '__ZN4core3ptr276drop_in_place$LT$alloc..vec..Vec$LT$_core..ffi..DatasetInfoJson$GT$..extend_trusted$LT$core..iter..adapters..map..Map$LT$core..slice..iter..Iter$LT$_core..db..DatasetInfo$GT$$C$_core..ffi..e4e_list_datasets..$u7b$$u7b$closure$u7d$$u7d$$GT$$GT$..$u7b$$u7b$closure$u7d$$u7d$$GT$17h2180732d4f1a0096E', symObjAddr: 0x37FC, symBinAddr: 0x3E52C, symSize: 0x24 }
  - { offset: 0x96986, size: 0x8, addend: 0x0, symName: '__ZN4core3ptr2783drop_in_place$LT$rayon_core..job..StackJob$LT$rayon_core..latch..SpinLatch$C$rayon_core..registry..Registry..in_worker_cross$LT$rayon_core..join..join_context$LT$rayon..iter..plumbing..bridge_producer_consumer..helper$LT$rayon..slice..IterProducer$LT$std..path..PathBuf$GT$$C$rayon..iter..map..MapConsumer$LT$rayon..iter..map..MapConsumer$LT$rayon..iter..while_some..WhileSomeConsumer$LT$rayon..iter..extend..ListVecConsumer$GT$$C$rayon..result..$LT$impl$u20$rayon..iter..FromParallelIterator$LT$core..result..Result$LT$T$C$E$GT$$GT$$u20$for$u20$core..result..Result$LT$C$C$E$GT$$GT$..from_par_iter..ok$LT$$LP$alloc..string..String$C$core..option..Option$LT$alloc..string..String$GT$$RP$$C$_core..errors..E4EError$GT$..$u7b$$u7b$closure$u7d$$u7d$$GT$$C$_core..manifest..collect_validation_failures_with_progress$LT$_core..ffi..e4e_validate_with_progress..$u7b$$u7b$closure$u7d$$u7d$$GT$..$u7b$$u7b$closure$u7d$$u7d$$GT$$GT$..$u7b$$u7b$closure$u7d$$u7d$$C$rayon..iter..plumbing..bridge_producer_consumer..helper$LT$rayon..slice..IterProducer$LT$std..path..PathBuf$GT$$C$rayon..iter..map..MapConsumer$LT$rayon..iter..map..MapConsumer$LT$rayon..iter..while_some..WhileSomeConsumer$LT$rayon..iter..extend..ListVecConsumer$GT$$C$rayon..result..$LT$impl$u20$rayon..iter..FromParallelIterator$LT$core..result..Result$LT$T$C$E$GT$$GT$$u20$for$u20$core..result..Result$LT$C$C$E$GT$$GT$..from_par_iter..ok$LT$$LP$alloc..string..String$C$core..option..Option$LT$alloc..string..String$GT$$RP$$C$_core..errors..E4EError$GT$..$u7b$$u7b$closure$u7d$$u7d$$GT$$C$_core..manifest..collect_validation_failures_with_progress$LT$_core..ffi..e4e_validate_with_progress..$u7b$$u7b$closure$u7d$$u7d$$GT$..$u7b$$u7b$closure$u7d$$u7d$$GT$$GT$..$u7b$$u7b$closure$u7d$$u7d$$C$alloc..collections..linked_list..LinkedList$LT$alloc..vec..Vec$LT$$LP$alloc..string..String$C$core..option..Option$LT$alloc..string..String$GT$$RP$$GT$$GT$$C$alloc..collections..linked_list..LinkedList$LT$alloc..vec..Vec$LT$$LP$alloc..string..String$C$core..option..Option$LT$alloc..string..String$GT$$RP$$GT$$GT$$GT$..$u7b$$u7b$closure$u7d$$u7d$$C$$LP$alloc..collections..linked_list..LinkedList$LT$alloc..vec..Vec$LT$$LP$alloc..string..String$C$core..option..Option$LT$alloc..string..String$GT$$RP$$GT$$GT$$C$alloc..collections..linked_list..LinkedList$LT$alloc..vec..Vec$LT$$LP$alloc..string..String$C$core..option..Option$LT$alloc..string..String$GT$$RP$$GT$$GT$$RP$$GT$..$u7b$$u7b$closure$u7d$$u7d$$C$$LP$alloc..collections..linked_list..LinkedList$LT$alloc..vec..Vec$LT$$LP$alloc..string..String$C$core..option..Option$LT$alloc..string..String$GT$$RP$$GT$$GT$$C$alloc..collections..linked_list..LinkedList$LT$alloc..vec..Vec$LT$$LP$alloc..string..String$C$core..option..Option$LT$alloc..string..String$GT$$RP$$GT$$GT$$RP$$GT$$GT$17h5f4a3848bed0efe5E', symObjAddr: 0x3820, symBinAddr: 0x3E550, symSize: 0x24 }
  - { offset: 0x969B5, size: 0x8, addend: 0x0, symName: '__ZN4core3ptr2789drop_in_place$LT$rayon_core..job..StackJob$LT$rayon_core..latch..SpinLatch$C$rayon_core..registry..Registry..in_worker_cross$LT$rayon_core..join..join_context$LT$rayon..iter..plumbing..bridge_producer_consumer..helper$LT$rayon..slice..IterProducer$LT$std..path..PathBuf$GT$$C$rayon..iter..map..MapConsumer$LT$rayon..iter..map..MapConsumer$LT$rayon..iter..while_some..WhileSomeConsumer$LT$rayon..iter..extend..ListVecConsumer$GT$$C$rayon..result..$LT$impl$u20$rayon..iter..FromParallelIterator$LT$core..result..Result$LT$T$C$E$GT$$GT$$u20$for$u20$core..result..Result$LT$C$C$E$GT$$GT$..from_par_iter..ok$LT$$LP$alloc..string..String$C$core..option..Option$LT$alloc..string..String$GT$$RP$$C$_core..errors..E4EError$GT$..$u7b$$u7b$closure$u7d$$u7d$$GT$$C$_core..manifest..collect_validation_failures_with_progress$LT$_core..dataset..validate_dataset_failures..$u7b$$u7b$closure$u7d$$u7d$$GT$..$u7b$$u7b$closure$u7d$$u7d$$GT$$GT$..$u7b$$u7b$closure$u7d$$u7d$$C$rayon..iter..plumbing..bridge_producer_consumer..helper$LT$rayon..slice..IterProducer$LT$std..path..PathBuf$GT$$C$rayon..iter..map..MapConsumer$LT$rayon..iter..map..MapConsumer$LT$rayon..iter..while_some..WhileSomeConsumer$LT$rayon..iter..extend..ListVecConsumer$GT$$C$rayon..result..$LT$impl$u20$rayon..iter..FromParallelIterator$LT$core..result..Result$LT$T$C$E$GT$$GT$$u20$for$u20$core..result..Result$LT$C$C$E$GT$$GT$..from_par_iter..ok$LT$$LP$alloc..string..String$C$core..option..Option$LT$alloc..string..String$GT$$RP$$C$_core..errors..E4EError$GT$..$u7b$$u7b$closure$u7d$$u7d$$GT$$C$_core..manifest..collect_validation_failures_with_progress$LT$_core..dataset..validate_dataset_failures..$u7b$$u7b$closure$u7d$$u7d$$GT$..$u7b$$u7b$closure$u7d$$u7d$$GT$$GT$..$u7b$$u7b$closure$u7d$$u7d$$C$alloc..collections..linked_list..LinkedList$LT$alloc..vec..Vec$LT$$LP$alloc..string..String$C$core..option..Option$LT$alloc..string..String$GT$$RP$$GT$$GT$$C$alloc..collections..linked_list..LinkedList$LT$alloc..vec..Vec$LT$$LP$alloc..string..String$C$core..option..Option$LT$alloc..string..String$GT$$RP$$GT$$GT$$GT$..$u7b$$u7b$closure$u7d$$u7d$$C$$LP$alloc..collections..linked_list..LinkedList$LT$alloc..vec..Vec$LT$$LP$alloc..string..String$C$core..option..Option$LT$alloc..string..String$GT$$RP$$GT$$GT$$C$alloc..collections..linked_list..LinkedList$LT$alloc..vec..Vec$LT$$LP$alloc..string..String$C$core..option..Option$LT$alloc..string..String$GT$$RP$$GT$$GT$$RP$$GT$..$u7b$$u7b$closure$u7d$$u7d$$C$$LP$alloc..collections..linked_list..LinkedList$LT$alloc..vec..Vec$LT$$LP$alloc..string..String$C$core..option..Option$LT$alloc..string..String$GT$$RP$$GT$$GT$$C$alloc..collections..linked_list..LinkedList$LT$alloc..vec..Vec$LT$$LP$alloc..string..String$C$core..option..Option$LT$alloc..string..String$GT$$RP$$GT$$GT$$RP$$GT$$GT$17hdd8f309bc4290be8E', symObjAddr: 0x3844, symBinAddr: 0x3E574, symSize: 0x24 }
  - { offset: 0x969E4, size: 0x8, addend: 0x0, symName: '__ZN4core3ptr2818drop_in_place$LT$rayon_core..job..StackJob$LT$rayon_core..latch..LatchRef$LT$rayon_core..latch..LockLatch$GT$$C$rayon_core..registry..Registry..in_worker_cold$LT$rayon_core..join..join_context$LT$rayon..iter..plumbing..bridge_producer_consumer..helper$LT$rayon..slice..IterProducer$LT$std..path..PathBuf$GT$$C$rayon..iter..map..MapConsumer$LT$rayon..iter..map..MapConsumer$LT$rayon..iter..while_some..WhileSomeConsumer$LT$rayon..iter..extend..ListVecConsumer$GT$$C$rayon..result..$LT$impl$u20$rayon..iter..FromParallelIterator$LT$core..result..Result$LT$T$C$E$GT$$GT$$u20$for$u20$core..result..Result$LT$C$C$E$GT$$GT$..from_par_iter..ok$LT$$LP$alloc..string..String$C$core..option..Option$LT$alloc..string..String$GT$$RP$$C$_core..errors..E4EError$GT$..$u7b$$u7b$closure$u7d$$u7d$$GT$$C$_core..manifest..collect_validation_failures_with_progress$LT$_core..ffi..e4e_validate..$u7b$$u7b$closure$u7d$$u7d$$GT$..$u7b$$u7b$closure$u7d$$u7d$$GT$$GT$..$u7b$$u7b$closure$u7d$$u7d$$C$rayon..iter..plumbing..bridge_producer_consumer..helper$LT$rayon..slice..IterProducer$LT$std..path..PathBuf$GT$$C$rayon..iter..map..MapConsumer$LT$rayon..iter..map..MapConsumer$LT$rayon..iter..while_some..WhileSomeConsumer$LT$rayon..iter..extend..ListVecConsumer$GT$$C$rayon..result..$LT$impl$u20$rayon..iter..FromParallelIterator$LT$core..result..Result$LT$T$C$E$GT$$GT$$u20$for$u20$core..result..Result$LT$C$C$E$GT$$GT$..from_par_iter..ok$LT$$LP$alloc..string..String$C$core..option..Option$LT$alloc..string..String$GT$$RP$$C$_core..errors..E4EError$GT$..$u7b$$u7b$closure$u7d$$u7d$$GT$$C$_core..manifest..collect_validation_failures_with_progress$LT$_core..ffi..e4e_validate..$u7b$$u7b$closure$u7d$$u7d$$GT$..$u7b$$u7b$closure$u7d$$u7d$$GT$$GT$..$u7b$$u7b$closure$u7d$$u7d$$C$alloc..collections..linked_list..LinkedList$LT$alloc..vec..Vec$LT$$LP$alloc..string..String$C$core..option..Option$LT$alloc..string..String$GT$$RP$$GT$$GT$$C$alloc..collections..linked_list..LinkedList$LT$alloc..vec..Vec$LT$$LP$alloc..string..String$C$core..option..Option$LT$alloc..string..String$GT$$RP$$GT$$GT$$GT$..$u7b$$u7b$closure$u7d$$u7d$$C$$LP$alloc..collections..linked_list..LinkedList$LT$alloc..vec..Vec$LT$$LP$alloc..string..String$C$core..option..Option$LT$alloc..string..String$GT$$RP$$GT$$GT$$C$alloc..collections..linked_list..LinkedList$LT$alloc..vec..Vec$LT$$LP$alloc..string..String$C$core..option..Option$LT$alloc..string..String$GT$$RP$$GT$$GT$$RP$$GT$..$u7b$$u7b$closure$u7d$$u7d$..$u7b$$u7b$closure$u7d$$u7d$$C$$LP$alloc..collections..linked_list..LinkedList$LT$alloc..vec..Vec$LT$$LP$alloc..string..String$C$core..option..Option$LT$alloc..string..String$GT$$RP$$GT$$GT$$C$alloc..collections..linked_list..LinkedList$LT$alloc..vec..Vec$LT$$LP$alloc..string..String$C$core..option..Option$LT$alloc..string..String$GT$$RP$$GT$$GT$$RP$$GT$$GT$17h3fe0cf363aff5bfaE', symObjAddr: 0x3868, symBinAddr: 0x3E598, symSize: 0x24 }
  - { offset: 0x96A13, size: 0x8, addend: 0x0, symName: '__ZN4core3ptr281drop_in_place$LT$core..result..Result$LT$std..sync..poison..mutex..MutexGuard$LT$core..option..Option$LT$_core..errors..E4EError$GT$$GT$$C$std..sync..poison..TryLockError$LT$std..sync..poison..mutex..MutexGuard$LT$core..option..Option$LT$_core..errors..E4EError$GT$$GT$$GT$$GT$$GT$17h4840a3ecbd262b7fE', symObjAddr: 0x388C, symBinAddr: 0x3E5BC, symSize: 0x50 }
  - { offset: 0x96A42, size: 0x8, addend: 0x0, symName: '__ZN4core3ptr2829drop_in_place$LT$rayon_core..job..StackJob$LT$rayon_core..latch..SpinLatch$C$rayon_core..registry..Registry..in_worker_cross$LT$rayon_core..join..join_context$LT$rayon..iter..plumbing..bridge_producer_consumer..helper$LT$rayon..slice..IterProducer$LT$std..path..PathBuf$GT$$C$rayon..iter..map..MapConsumer$LT$rayon..iter..map..MapConsumer$LT$rayon..iter..while_some..WhileSomeConsumer$LT$rayon..iter..collect..consumer..CollectConsumer$LT$$LP$alloc..string..String$C$core..option..Option$LT$alloc..string..String$GT$$RP$$GT$$GT$$C$rayon..result..$LT$impl$u20$rayon..iter..FromParallelIterator$LT$core..result..Result$LT$T$C$E$GT$$GT$$u20$for$u20$core..result..Result$LT$C$C$E$GT$$GT$..from_par_iter..ok$LT$$LP$alloc..string..String$C$core..option..Option$LT$alloc..string..String$GT$$RP$$C$_core..errors..E4EError$GT$..$u7b$$u7b$closure$u7d$$u7d$$GT$$C$_core..manifest..collect_validation_failures_with_progress$LT$_core..ffi..e4e_validate..$u7b$$u7b$closure$u7d$$u7d$$GT$..$u7b$$u7b$closure$u7d$$u7d$$GT$$GT$..$u7b$$u7b$closure$u7d$$u7d$$C$rayon..iter..plumbing..bridge_producer_consumer..helper$LT$rayon..slice..IterProducer$LT$std..path..PathBuf$GT$$C$rayon..iter..map..MapConsumer$LT$rayon..iter..map..MapConsumer$LT$rayon..iter..while_some..WhileSomeConsumer$LT$rayon..iter..collect..consumer..CollectConsumer$LT$$LP$alloc..string..String$C$core..option..Option$LT$alloc..string..String$GT$$RP$$GT$$GT$$C$rayon..result..$LT$impl$u20$rayon..iter..FromParallelIterator$LT$core..result..Result$LT$T$C$E$GT$$GT$$u20$for$u20$core..result..Result$LT$C$C$E$GT$$GT$..from_par_iter..ok$LT$$LP$alloc..string..String$C$core..option..Option$LT$alloc..string..String$GT$$RP$$C$_core..errors..E4EError$GT$..$u7b$$u7b$closure$u7d$$u7d$$GT$$C$_core..manifest..collect_validation_failures_with_progress$LT$_core..ffi..e4e_validate..$u7b$$u7b$closure$u7d$$u7d$$GT$..$u7b$$u7b$closure$u7d$$u7d$$GT$$GT$..$u7b$$u7b$closure$u7d$$u7d$$C$rayon..iter..collect..consumer..CollectResult$LT$$LP$alloc..string..String$C$core..option..Option$LT$alloc..string..String$GT$$RP$$GT$$C$rayon..iter..collect..consumer..CollectResult$LT$$LP$alloc..string..String$C$core..option..Option$LT$alloc..string..String$GT$$RP$$GT$$GT$..$u7b$$u7b$closure$u7d$$u7d$$C$$LP$rayon..iter..collect..consumer..CollectResult$LT$$LP$alloc..string..String$C$core..option..Option$LT$alloc..string..String$GT$$RP$$GT$$C$rayon..iter..collect..consumer..CollectResult$LT$$LP$alloc..string..String$C$core..option..Option$LT$alloc..string..String$GT$$RP$$GT$$RP$$GT$..$u7b$$u7b$closure$u7d$$u7d$$C$$LP$rayon..iter..collect..consumer..CollectResult$LT$$LP$alloc..string..String$C$core..option..Option$LT$alloc..string..String$GT$$RP$$GT$$C$rayon..iter..collect..consumer..CollectResult$LT$$LP$alloc..string..String$C$core..option..Option$LT$alloc..string..String$GT$$RP$$GT$$RP$$GT$$GT$17h0104b110df3d4d31E', symObjAddr: 0x38DC, symBinAddr: 0x3E60C, symSize: 0x24 }
  - { offset: 0x96A71, size: 0x8, addend: 0x0, symName: '__ZN4core3ptr282drop_in_place$LT$alloc..vec..Vec$LT$alloc..string..String$GT$..extend_trusted$LT$core..iter..adapters..map..Map$LT$core..slice..iter..Iter$LT$_core..db..StagedFileRecord$GT$$C$_core..python..PyDataManager..status..$u7b$$u7b$closure$u7d$$u7d$$GT$$GT$..$u7b$$u7b$closure$u7d$$u7d$$GT$17hddfbabc26c52d45fE', symObjAddr: 0x3900, symBinAddr: 0x3E630, symSize: 0x24 }
  - { offset: 0x96AA0, size: 0x8, addend: 0x0, symName: '__ZN4core3ptr2846drop_in_place$LT$rayon_core..job..StackJob$LT$rayon_core..latch..LatchRef$LT$rayon_core..latch..LockLatch$GT$$C$rayon_core..registry..Registry..in_worker_cold$LT$rayon_core..join..join_context$LT$rayon..iter..plumbing..bridge_producer_consumer..helper$LT$rayon..slice..IterProducer$LT$std..path..PathBuf$GT$$C$rayon..iter..map..MapConsumer$LT$rayon..iter..map..MapConsumer$LT$rayon..iter..while_some..WhileSomeConsumer$LT$rayon..iter..extend..ListVecConsumer$GT$$C$rayon..result..$LT$impl$u20$rayon..iter..FromParallelIterator$LT$core..result..Result$LT$T$C$E$GT$$GT$$u20$for$u20$core..result..Result$LT$C$C$E$GT$$GT$..from_par_iter..ok$LT$$LP$alloc..string..String$C$core..option..Option$LT$alloc..string..String$GT$$RP$$C$_core..errors..E4EError$GT$..$u7b$$u7b$closure$u7d$$u7d$$GT$$C$_core..manifest..collect_validation_failures_with_progress$LT$_core..ffi..e4e_validate_with_progress..$u7b$$u7b$closure$u7d$$u7d$$GT$..$u7b$$u7b$closure$u7d$$u7d$$GT$$GT$..$u7b$$u7b$closure$u7d$$u7d$$C$rayon..iter..plumbing..bridge_producer_consumer..helper$LT$rayon..slice..IterProducer$LT$std..path..PathBuf$GT$$C$rayon..iter..map..MapConsumer$LT$rayon..iter..map..MapConsumer$LT$rayon..iter..while_some..WhileSomeConsumer$LT$rayon..iter..extend..ListVecConsumer$GT$$C$rayon..result..$LT$impl$u20$rayon..iter..FromParallelIterator$LT$core..result..Result$LT$T$C$E$GT$$GT$$u20$for$u20$core..result..Result$LT$C$C$E$GT$$GT$..from_par_iter..ok$LT$$LP$alloc..string..String$C$core..option..Option$LT$alloc..string..String$GT$$RP$$C$_core..errors..E4EError$GT$..$u7b$$u7b$closure$u7d$$u7d$$GT$$C$_core..manifest..collect_validation_failures_with_progress$LT$_core..ffi..e4e_validate_with_progress..$u7b$$u7b$closure$u7d$$u7d$$GT$..$u7b$$u7b$closure$u7d$$u7d$$GT$$GT$..$u7b$$u7b$closure$u7d$$u7d$$C$alloc..collections..linked_list..LinkedList$LT$alloc..vec..Vec$LT$$LP$alloc..string..String$C$core..option..Option$LT$alloc..string..String$GT$$RP$$GT$$GT$$C$alloc..collections..linked_list..LinkedList$LT$alloc..vec..Vec$LT$$LP$alloc..string..String$C$core..option..Option$LT$alloc..string..String$GT$$RP$$GT$$GT$$GT$..$u7b$$u7b$closure$u7d$$u7d$$C$$LP$alloc..collections..linked_list..LinkedList$LT$alloc..vec..Vec$LT$$LP$alloc..string..String$C$core..option..Option$LT$alloc..string..String$GT$$RP$$GT$$GT$$C$alloc..collections..linked_list..LinkedList$LT$alloc..vec..Vec$LT$$LP$alloc..string..String$C$core..option..Option$LT$alloc..string..String$GT$$RP$$GT$$GT$$RP$$GT$..$u7b$$u7b$closure$u7d$$u7d$..$u7b$$u7b$closure$u7d$$u7d$$C$$LP$alloc..collections..linked_list..LinkedList$LT$alloc..vec..Vec$LT$$LP$alloc..string..String$C$core..option..Option$LT$alloc..string..String$GT$$RP$$GT$$GT$$C$alloc..collections..linked_list..LinkedList$LT$alloc..vec..Vec$LT$$LP$alloc..string..String$C$core..option..Option$LT$alloc..string..String$GT$$RP$$GT$$GT$$RP$$GT$$GT$17h895bceed544773e0E', symObjAddr: 0x3924, symBinAddr: 0x3E654, symSize: 0x24 }
  - { offset: 0x96ACF, size: 0x8, addend: 0x0, symName: '__ZN4core3ptr284drop_in_place$LT$alloc..vec..Vec$LT$_core..python..PyMission$GT$..extend_trusted$LT$core..iter..adapters..map..Map$LT$core..slice..iter..Iter$LT$_core..dataset..MissionState$GT$$C$_core..python..PyDataset..missions..$u7b$$u7b$closure$u7d$$u7d$$GT$$GT$..$u7b$$u7b$closure$u7d$$u7d$$GT$17h25a89ab6f7d9c9baE', symObjAddr: 0x3948, symBinAddr: 0x3E678, symSize: 0x24 }
  - { offset: 0x96AFE, size: 0x8, addend: 0x0, symName: '__ZN4core3ptr284drop_in_place$LT$alloc..vec..Vec$LT$alloc..string..String$GT$..extend_trusted$LT$core..iter..adapters..map..Map$LT$core..slice..iter..Iter$LT$_core..db..DatasetInfo$GT$$C$_core..python..PyDataManager..list_datasets..$u7b$$u7b$closure$u7d$$u7d$$GT$$GT$..$u7b$$u7b$closure$u7d$$u7d$$GT$17h078b2a2484b9de97E', symObjAddr: 0x396C, symBinAddr: 0x3E69C, symSize: 0x24 }
  - { offset: 0x96B2D, size: 0x8, addend: 0x0, symName: '__ZN4core3ptr2852drop_in_place$LT$rayon_core..job..StackJob$LT$rayon_core..latch..LatchRef$LT$rayon_core..latch..LockLatch$GT$$C$rayon_core..registry..Registry..in_worker_cold$LT$rayon_core..join..join_context$LT$rayon..iter..plumbing..bridge_producer_consumer..helper$LT$rayon..slice..IterProducer$LT$std..path..PathBuf$GT$$C$rayon..iter..map..MapConsumer$LT$rayon..iter..map..MapConsumer$LT$rayon..iter..while_some..WhileSomeConsumer$LT$rayon..iter..extend..ListVecConsumer$GT$$C$rayon..result..$LT$impl$u20$rayon..iter..FromParallelIterator$LT$core..result..Result$LT$T$C$E$GT$$GT$$u20$for$u20$core..result..Result$LT$C$C$E$GT$$GT$..from_par_iter..ok$LT$$LP$alloc..string..String$C$core..option..Option$LT$alloc..string..String$GT$$RP$$C$_core..errors..E4EError$GT$..$u7b$$u7b$closure$u7d$$u7d$$GT$$C$_core..manifest..collect_validation_failures_with_progress$LT$_core..dataset..validate_dataset_failures..$u7b$$u7b$closure$u7d$$u7d$$GT$..$u7b$$u7b$closure$u7d$$u7d$$GT$$GT$..$u7b$$u7b$closure$u7d$$u7d$$C$rayon..iter..plumbing..bridge_producer_consumer..helper$LT$rayon..slice..IterProducer$LT$std..path..PathBuf$GT$$C$rayon..iter..map..MapConsumer$LT$rayon..iter..map..MapConsumer$LT$rayon..iter..while_some..WhileSomeConsumer$LT$rayon..iter..extend..ListVecConsumer$GT$$C$rayon..result..$LT$impl$u20$rayon..iter..FromParallelIterator$LT$core..result..Result$LT$T$C$E$GT$$GT$$u20$for$u20$core..result..Result$LT$C$C$E$GT$$GT$..from_par_iter..ok$LT$$LP$alloc..string..String$C$core..option..Option$LT$alloc..string..String$GT$$RP$$C$_core..errors..E4EError$GT$..$u7b$$u7b$closure$u7d$$u7d$$GT$$C$_core..manifest..collect_validation_failures_with_progress$LT$_core..dataset..validate_dataset_failures..$u7b$$u7b$closure$u7d$$u7d$$GT$..$u7b$$u7b$closure$u7d$$u7d$$GT$$GT$..$u7b$$u7b$closure$u7d$$u7d$$C$alloc..collections..linked_list..LinkedList$LT$alloc..vec..Vec$LT$$LP$alloc..string..String$C$core..option..Option$LT$alloc..string..String$GT$$RP$$GT$$GT$$C$alloc..collections..linked_list..LinkedList$LT$alloc..vec..Vec$LT$$LP$alloc..string..String$C$core..option..Option$LT$alloc..string..String$GT$$RP$$GT$$GT$$GT$..$u7b$$u7b$closure$u7d$$u7d$$C$$LP$alloc..collections..linked_list..LinkedList$LT$alloc..vec..Vec$LT$$LP$alloc..string..String$C$core..option..Option$LT$alloc..string..String$GT$$RP$$GT$$GT$$C$alloc..collections..linked_list..LinkedList$LT$alloc..vec..Vec$LT$$LP$alloc..string..String$C$core..option..Option$LT$alloc..string..String$GT$$RP$$GT$$GT$$RP$$GT$..$u7b$$u7b$closure$u7d$$u7d$..$u7b$$u7b$closure$u7d$$u7d$$C$$LP$alloc..collections..linked_list..LinkedList$LT$alloc..vec..Vec$LT$$LP$alloc..string..String$C$core..option..Option$LT$alloc..string..String$GT$$RP$$GT$$GT$$C$alloc..collections..linked_list..LinkedList$LT$alloc..vec..Vec$LT$$LP$alloc..string..String$C$core..option..Option$LT$alloc..string..String$GT$$RP$$GT$$GT$$RP$$GT$$GT$17h612346cecd928361E', symObjAddr: 0x3990, symBinAddr: 0x3E6C0, symSize: 0x24 }
  - { offset: 0x96B5C, size: 0x8, addend: 0x0, symName: '__ZN4core3ptr2857drop_in_place$LT$rayon_core..job..StackJob$LT$rayon_core..latch..SpinLatch$C$rayon_core..registry..Registry..in_worker_cross$LT$rayon_core..join..join_context$LT$rayon..iter..plumbing..bridge_producer_consumer..helper$LT$rayon..slice..IterProducer$LT$std..path..PathBuf$GT$$C$rayon..iter..map..MapConsumer$LT$rayon..iter..map..MapConsumer$LT$rayon..iter..while_some..WhileSomeConsumer$LT$rayon..iter..collect..consumer..CollectConsumer$LT$$LP$alloc..string..String$C$core..option..Option$LT$alloc..string..String$GT$$RP$$GT$$GT$$C$rayon..result..$LT$impl$u20$rayon..iter..FromParallelIterator$LT$core..result..Result$LT$T$C$E$GT$$GT$$u20$for$u20$core..result..Result$LT$C$C$E$GT$$GT$..from_par_iter..ok$LT$$LP$alloc..string..String$C$core..option..Option$LT$alloc..string..String$GT$$RP$$C$_core..errors..E4EError$GT$..$u7b$$u7b$closure$u7d$$u7d$$GT$$C$_core..manifest..collect_validation_failures_with_progress$LT$_core..ffi..e4e_validate_with_progress..$u7b$$u7b$closure$u7d$$u7d$$GT$..$u7b$$u7b$closure$u7d$$u7d$$GT$$GT$..$u7b$$u7b$closure$u7d$$u7d$$C$rayon..iter..plumbing..bridge_producer_consumer..helper$LT$rayon..slice..IterProducer$LT$std..path..PathBuf$GT$$C$rayon..iter..map..MapConsumer$LT$rayon..iter..map..MapConsumer$LT$rayon..iter..while_some..WhileSomeConsumer$LT$rayon..iter..collect..consumer..CollectConsumer$LT$$LP$alloc..string..String$C$core..option..Option$LT$alloc..string..String$GT$$RP$$GT$$GT$$C$rayon..result..$LT$impl$u20$rayon..iter..FromParallelIterator$LT$core..result..Result$LT$T$C$E$GT$$GT$$u20$for$u20$core..result..Result$LT$C$C$E$GT$$GT$..from_par_iter..ok$LT$$LP$alloc..string..String$C$core..option..Option$LT$alloc..string..String$GT$$RP$$C$_core..errors..E4EError$GT$..$u7b$$u7b$closure$u7d$$u7d$$GT$$C$_core..manifest..collect_validation_failures_with_progress$LT$_core..ffi..e4e_validate_with_progress..$u7b$$u7b$closure$u7d$$u7d$$GT$..$u7b$$u7b$closure$u7d$$u7d$$GT$$GT$..$u7b$$u7b$closure$u7d$$u7d$$C$rayon..iter..collect..consumer..CollectResult$LT$$LP$alloc..string..String$C$core..option..Option$LT$alloc..string..String$GT$$RP$$GT$$C$rayon..iter..collect..consumer..CollectResult$LT$$LP$alloc..string..String$C$core..option..Option$LT$alloc..string..String$GT$$RP$$GT$$GT$..$u7b$$u7b$closure$u7d$$u7d$$C$$LP$rayon..iter..collect..consumer..CollectResult$LT$$LP$alloc..string..String$C$core..option..Option$LT$alloc..string..String$GT$$RP$$GT$$C$rayon..iter..collect..consumer..CollectResult$LT$$LP$alloc..string..String$C$core..option..Option$LT$alloc..string..String$GT$$RP$$GT$$RP$$GT$..$u7b$$u7b$closure$u7d$$u7d$$C$$LP$rayon..iter..collect..consumer..CollectResult$LT$$LP$alloc..string..String$C$core..option..Option$LT$alloc..string..String$GT$$RP$$GT$$C$rayon..iter..collect..consumer..CollectResult$LT$$LP$alloc..string..String$C$core..option..Option$LT$alloc..string..String$GT$$RP$$GT$$RP$$GT$$GT$17h555a9062bfd0e569E', symObjAddr: 0x39B4, symBinAddr: 0x3E6E4, symSize: 0x24 }
  - { offset: 0x96B8B, size: 0x8, addend: 0x0, symName: '__ZN4core3ptr2863drop_in_place$LT$rayon_core..job..StackJob$LT$rayon_core..latch..SpinLatch$C$rayon_core..registry..Registry..in_worker_cross$LT$rayon_core..join..join_context$LT$rayon..iter..plumbing..bridge_producer_consumer..helper$LT$rayon..slice..IterProducer$LT$std..path..PathBuf$GT$$C$rayon..iter..map..MapConsumer$LT$rayon..iter..map..MapConsumer$LT$rayon..iter..while_some..WhileSomeConsumer$LT$rayon..iter..collect..consumer..CollectConsumer$LT$$LP$alloc..string..String$C$core..option..Option$LT$alloc..string..String$GT$$RP$$GT$$GT$$C$rayon..result..$LT$impl$u20$rayon..iter..FromParallelIterator$LT$core..result..Result$LT$T$C$E$GT$$GT$$u20$for$u20$core..result..Result$LT$C$C$E$GT$$GT$..from_par_iter..ok$LT$$LP$alloc..string..String$C$core..option..Option$LT$alloc..string..String$GT$$RP$$C$_core..errors..E4EError$GT$..$u7b$$u7b$closure$u7d$$u7d$$GT$$C$_core..manifest..collect_validation_failures_with_progress$LT$_core..dataset..validate_dataset_failures..$u7b$$u7b$closure$u7d$$u7d$$GT$..$u7b$$u7b$closure$u7d$$u7d$$GT$$GT$..$u7b$$u7b$closure$u7d$$u7d$$C$rayon..iter..plumbing..bridge_producer_consumer..helper$LT$rayon..slice..IterProducer$LT$std..path..PathBuf$GT$$C$rayon..iter..map..MapConsumer$LT$rayon..iter..map..MapConsumer$LT$rayon..iter..while_some..WhileSomeConsumer$LT$rayon..iter..collect..consumer..CollectConsumer$LT$$LP$alloc..string..String$C$core..option..Option$LT$alloc..string..String$GT$$RP$$GT$$GT$$C$rayon..result..$LT$impl$u20$rayon..iter..FromParallelIterator$LT$core..result..Result$LT$T$C$E$GT$$GT$$u20$for$u20$core..result..Result$LT$C$C$E$GT$$GT$..from_par_iter..ok$LT$$LP$alloc..string..String$C$core..option..Option$LT$alloc..string..String$GT$$RP$$C$_core..errors..E4EError$GT$..$u7b$$u7b$closure$u7d$$u7d$$GT$$C$_core..manifest..collect_validation_failures_with_progress$LT$_core..dataset..validate_dataset_failures..$u7b$$u7b$closure$u7d$$u7d$$GT$..$u7b$$u7b$closure$u7d$$u7d$$GT$$GT$..$u7b$$u7b$closure$u7d$$u7d$$C$rayon..iter..collect..consumer..CollectResult$LT$$LP$alloc..string..String$C$core..option..Option$LT$alloc..string..String$GT$$RP$$GT$$C$rayon..iter..collect..consumer..CollectResult$LT$$LP$alloc..string..String$C$core..option..Option$LT$alloc..string..String$GT$$RP$$GT$$GT$..$u7b$$u7b$closure$u7d$$u7d$$C$$LP$rayon..iter..collect..consumer..CollectResult$LT$$LP$alloc..string..String$C$core..option..Option$LT$alloc..string..String$GT$$RP$$GT$$C$rayon..iter..collect..consumer..CollectResult$LT$$LP$alloc..string..String$C$core..option..Option$LT$alloc..string..String$GT$$RP$$GT$$RP$$GT$..$u7b$$u7b$closure$u7d$$u7d$$C$$LP$rayon..iter..collect..consumer..CollectResult$LT$$LP$alloc..string..String$C$core..option..Option$LT$alloc..string..String$GT$$RP$$GT$$C$rayon..iter..collect..consumer..CollectResult$LT$$LP$alloc..string..String$C$core..option..Option$LT$alloc..string..String$GT$$RP$$GT$$RP$$GT$$GT$17h00cf88f6b042b2dcE', symObjAddr: 0x39D8, symBinAddr: 0x3E708, symSize: 0x24 }
  - { offset: 0x96BBA, size: 0x8, addend: 0x0, symName: '__ZN4core3ptr2887drop_in_place$LT$rayon_core..job..StackJob$LT$rayon_core..latch..SpinLatch$C$rayon_core..registry..Registry..in_worker_cross$LT$rayon_core..join..join_context$LT$rayon..iter..plumbing..bridge_producer_consumer..helper$LT$rayon..slice..IterProducer$LT$std..path..PathBuf$GT$$C$rayon..iter..map..MapConsumer$LT$rayon..iter..map..MapConsumer$LT$rayon..iter..while_some..WhileSomeConsumer$LT$rayon..iter..extend..ListVecConsumer$GT$$C$rayon..result..$LT$impl$u20$rayon..iter..FromParallelIterator$LT$core..result..Result$LT$T$C$E$GT$$GT$$u20$for$u20$core..result..Result$LT$C$C$E$GT$$GT$..from_par_iter..ok$LT$$LP$alloc..string..String$C$core..option..Option$LT$alloc..string..String$GT$$RP$$C$_core..errors..E4EError$GT$..$u7b$$u7b$closure$u7d$$u7d$$GT$$C$_core..manifest..collect_validation_failures_with_progress$LT$_core..python..PyDataManager..validate_failures_with_progress..$u7b$$u7b$closure$u7d$$u7d$..$u7b$$u7b$closure$u7d$$u7d$$GT$..$u7b$$u7b$closure$u7d$$u7d$$GT$$GT$..$u7b$$u7b$closure$u7d$$u7d$$C$rayon..iter..plumbing..bridge_producer_consumer..helper$LT$rayon..slice..IterProducer$LT$std..path..PathBuf$GT$$C$rayon..iter..map..MapConsumer$LT$rayon..iter..map..MapConsumer$LT$rayon..iter..while_some..WhileSomeConsumer$LT$rayon..iter..extend..ListVecConsumer$GT$$C$rayon..result..$LT$impl$u20$rayon..iter..FromParallelIterator$LT$core..result..Result$LT$T$C$E$GT$$GT$$u20$for$u20$core..result..Result$LT$C$C$E$GT$$GT$..from_par_iter..ok$LT$$LP$alloc..string..String$C$core..option..Option$LT$alloc..string..String$GT$$RP$$C$_core..errors..E4EError$GT$..$u7b$$u7b$closure$u7d$$u7d$$GT$$C$_core..manifest..collect_validation_failures_with_progress$LT$_core..python..PyDataManager..validate_failures_with_progress..$u7b$$u7b$closure$u7d$$u7d$..$u7b$$u7b$closure$u7d$$u7d$$GT$..$u7b$$u7b$closure$u7d$$u7d$$GT$$GT$..$u7b$$u7b$closure$u7d$$u7d$$C$alloc..collections..linked_list..LinkedList$LT$alloc..vec..Vec$LT$$LP$alloc..string..String$C$core..option..Option$LT$alloc..string..String$GT$$RP$$GT$$GT$$C$alloc..collections..linked_list..LinkedList$LT$alloc..vec..Vec$LT$$LP$alloc..string..String$C$core..option..Option$LT$alloc..string..String$GT$$RP$$GT$$GT$$GT$..$u7b$$u7b$closure$u7d$$u7d$$C$$LP$alloc..collections..linked_list..LinkedList$LT$alloc..vec..Vec$LT$$LP$alloc..string..String$C$core..option..Option$LT$alloc..string..String$GT$$RP$$GT$$GT$$C$alloc..collections..linked_list..LinkedList$LT$alloc..vec..Vec$LT$$LP$alloc..string..String$C$core..option..Option$LT$alloc..string..String$GT$$RP$$GT$$GT$$RP$$GT$..$u7b$$u7b$closure$u7d$$u7d$$C$$LP$alloc..collections..linked_list..LinkedList$LT$alloc..vec..Vec$LT$$LP$alloc..string..String$C$core..option..Option$LT$alloc..string..String$GT$$RP$$GT$$GT$$C$alloc..collections..linked_list..LinkedList$LT$alloc..vec..Vec$LT$$LP$alloc..string..String$C$core..option..Option$LT$alloc..string..String$GT$$RP$$GT$$GT$$RP$$GT$$GT$17h42f067393d9313c9E', symObjAddr: 0x39FC, symBinAddr: 0x3E72C, symSize: 0x24 }
  - { offset: 0x96BE9, size: 0x8, addend: 0x0, symName: '__ZN4core3ptr2892drop_in_place$LT$rayon_core..job..StackJob$LT$rayon_core..latch..LatchRef$LT$rayon_core..latch..LockLatch$GT$$C$rayon_core..registry..Registry..in_worker_cold$LT$rayon_core..join..join_context$LT$rayon..iter..plumbing..bridge_producer_consumer..helper$LT$rayon..slice..IterProducer$LT$std..path..PathBuf$GT$$C$rayon..iter..map..MapConsumer$LT$rayon..iter..map..MapConsumer$LT$rayon..iter..while_some..WhileSomeConsumer$LT$rayon..iter..collect..consumer..CollectConsumer$LT$$LP$alloc..string..String$C$core..option..Option$LT$alloc..string..String$GT$$RP$$GT$$GT$$C$rayon..result..$LT$impl$u20$rayon..iter..FromParallelIterator$LT$core..result..Result$LT$T$C$E$GT$$GT$$u20$for$u20$core..result..Result$LT$C$C$E$GT$$GT$..from_par_iter..ok$LT$$LP$alloc..string..String$C$core..option..Option$LT$alloc..string..String$GT$$RP$$C$_core..errors..E4EError$GT$..$u7b$$u7b$closure$u7d$$u7d$$GT$$C$_core..manifest..collect_validation_failures_with_progress$LT$_core..ffi..e4e_validate..$u7b$$u7b$closure$u7d$$u7d$$GT$..$u7b$$u7b$closure$u7d$$u7d$$GT$$GT$..$u7b$$u7b$closure$u7d$$u7d$$C$rayon..iter..plumbing..bridge_producer_consumer..helper$LT$rayon..slice..IterProducer$LT$std..path..PathBuf$GT$$C$rayon..iter..map..MapConsumer$LT$rayon..iter..map..MapConsumer$LT$rayon..iter..while_some..WhileSomeConsumer$LT$rayon..iter..collect..consumer..CollectConsumer$LT$$LP$alloc..string..String$C$core..option..Option$LT$alloc..string..String$GT$$RP$$GT$$GT$$C$rayon..result..$LT$impl$u20$rayon..iter..FromParallelIterator$LT$core..result..Result$LT$T$C$E$GT$$GT$$u20$for$u20$core..result..Result$LT$C$C$E$GT$$GT$..from_par_iter..ok$LT$$LP$alloc..string..String$C$core..option..Option$LT$alloc..string..String$GT$$RP$$C$_core..errors..E4EError$GT$..$u7b$$u7b$closure$u7d$$u7d$$GT$$C$_core..manifest..collect_validation_failures_with_progress$LT$_core..ffi..e4e_validate..$u7b$$u7b$closure$u7d$$u7d$$GT$..$u7b$$u7b$closure$u7d$$u7d$$GT$$GT$..$u7b$$u7b$closure$u7d$$u7d$$C$rayon..iter..collect..consumer..CollectResult$LT$$LP$alloc..string..String$C$core..option..Option$LT$alloc..string..String$GT$$RP$$GT$$C$rayon..iter..collect..consumer..CollectResult$LT$$LP$alloc..string..String$C$core..option..Option$LT$alloc..string..String$GT$$RP$$GT$$GT$..$u7b$$u7b$closure$u7d$$u7d$$C$$LP$rayon..iter..collect..consumer..CollectResult$LT$$LP$alloc..string..String$C$core..option..Option$LT$alloc..string..String$GT$$RP$$GT$$C$rayon..iter..collect..consumer..CollectResult$LT$$LP$alloc..string..String$C$core..option..Option$LT$alloc..string..String$GT$$RP$$GT$$RP$$GT$..$u7b$$u7b$closure$u7d$$u7d$..$u7b$$u7b$closure$u7d$$u7d$$C$$LP$rayon..iter..collect..consumer..CollectResult$LT$$LP$alloc..string..String$C$core..option..Option$LT$alloc..string..String$GT$$RP$$GT$$C$rayon..iter..collect..consumer..CollectResult$LT$$LP$alloc..string..String$C$core..option..Option$LT$alloc..string..String$GT$$RP$$GT$$RP$$GT$$GT$17hb177cf80dd46d479E', symObjAddr: 0x3A20, symBinAddr: 0x3E750, symSize: 0x24 }
  - { offset: 0x96C18, size: 0x8, addend: 0x0, symName: '__ZN4core3ptr2920drop_in_place$LT$rayon_core..job..StackJob$LT$rayon_core..latch..LatchRef$LT$rayon_core..latch..LockLatch$GT$$C$rayon_core..registry..Registry..in_worker_cold$LT$rayon_core..join..join_context$LT$rayon..iter..plumbing..bridge_producer_consumer..helper$LT$rayon..slice..IterProducer$LT$std..path..PathBuf$GT$$C$rayon..iter..map..MapConsumer$LT$rayon..iter..map..MapConsumer$LT$rayon..iter..while_some..WhileSomeConsumer$LT$rayon..iter..collect..consumer..CollectConsumer$LT$$LP$alloc..string..String$C$core..option..Option$LT$alloc..string..String$GT$$RP$$GT$$GT$$C$rayon..result..$LT$impl$u20$rayon..iter..FromParallelIterator$LT$core..result..Result$LT$T$C$E$GT$$GT$$u20$for$u20$core..result..Result$LT$C$C$E$GT$$GT$..from_par_iter..ok$LT$$LP$alloc..string..String$C$core..option..Option$LT$alloc..string..String$GT$$RP$$C$_core..errors..E4EError$GT$..$u7b$$u7b$closure$u7d$$u7d$$GT$$C$_core..manifest..collect_validation_failures_with_progress$LT$_core..ffi..e4e_validate_with_progress..$u7b$$u7b$closure$u7d$$u7d$$GT$..$u7b$$u7b$closure$u7d$$u7d$$GT$$GT$..$u7b$$u7b$closure$u7d$$u7d$$C$rayon..iter..plumbing..bridge_producer_consumer..helper$LT$rayon..slice..IterProducer$LT$std..path..PathBuf$GT$$C$rayon..iter..map..MapConsumer$LT$rayon..iter..map..MapConsumer$LT$rayon..iter..while_some..WhileSomeConsumer$LT$rayon..iter..collect..consumer..CollectConsumer$LT$$LP$alloc..string..String$C$core..option..Option$LT$alloc..string..String$GT$$RP$$GT$$GT$$C$rayon..result..$LT$impl$u20$rayon..iter..FromParallelIterator$LT$core..result..Result$LT$T$C$E$GT$$GT$$u20$for$u20$core..result..Result$LT$C$C$E$GT$$GT$..from_par_iter..ok$LT$$LP$alloc..string..String$C$core..option..Option$LT$alloc..string..String$GT$$RP$$C$_core..errors..E4EError$GT$..$u7b$$u7b$closure$u7d$$u7d$$GT$$C$_core..manifest..collect_validation_failures_with_progress$LT$_core..ffi..e4e_validate_with_progress..$u7b$$u7b$closure$u7d$$u7d$$GT$..$u7b$$u7b$closure$u7d$$u7d$$GT$$GT$..$u7b$$u7b$closure$u7d$$u7d$$C$rayon..iter..collect..consumer..CollectResult$LT$$LP$alloc..string..String$C$core..option..Option$LT$alloc..string..String$GT$$RP$$GT$$C$rayon..iter..collect..consumer..CollectResult$LT$$LP$alloc..string..String$C$core..option..Option$LT$alloc..string..String$GT$$RP$$GT$$GT$..$u7b$$u7b$closure$u7d$$u7d$$C$$LP$rayon..iter..collect..consumer..CollectResult$LT$$LP$alloc..string..String$C$core..option..Option$LT$alloc..string..String$GT$$RP$$GT$$C$rayon..iter..collect..consumer..CollectResult$LT$$LP$alloc..string..String$C$core..option..Option$LT$alloc..string..String$GT$$RP$$GT$$RP$$GT$..$u7b$$u7b$closure$u7d$$u7d$..$u7b$$u7b$closure$u7d$$u7d$$C$$LP$rayon..iter..collect..consumer..CollectResult$LT$$LP$alloc..string..String$C$core..option..Option$LT$alloc..string..String$GT$$RP$$GT$$C$rayon..iter..collect..consumer..CollectResult$LT$$LP$alloc..string..String$C$core..option..Option$LT$alloc..string..String$GT$$RP$$GT$$RP$$GT$$GT$17h58f4025522e5e98bE', symObjAddr: 0x3A44, symBinAddr: 0x3E774, symSize: 0x24 }
  - { offset: 0x96C47, size: 0x8, addend: 0x0, symName: '__ZN4core3ptr2926drop_in_place$LT$rayon_core..job..StackJob$LT$rayon_core..latch..LatchRef$LT$rayon_core..latch..LockLatch$GT$$C$rayon_core..registry..Registry..in_worker_cold$LT$rayon_core..join..join_context$LT$rayon..iter..plumbing..bridge_producer_consumer..helper$LT$rayon..slice..IterProducer$LT$std..path..PathBuf$GT$$C$rayon..iter..map..MapConsumer$LT$rayon..iter..map..MapConsumer$LT$rayon..iter..while_some..WhileSomeConsumer$LT$rayon..iter..collect..consumer..CollectConsumer$LT$$LP$alloc..string..String$C$core..option..Option$LT$alloc..string..String$GT$$RP$$GT$$GT$$C$rayon..result..$LT$impl$u20$rayon..iter..FromParallelIterator$LT$core..result..Result$LT$T$C$E$GT$$GT$$u20$for$u20$core..result..Result$LT$C$C$E$GT$$GT$..from_par_iter..ok$LT$$LP$alloc..string..String$C$core..option..Option$LT$alloc..string..String$GT$$RP$$C$_core..errors..E4EError$GT$..$u7b$$u7b$closure$u7d$$u7d$$GT$$C$_core..manifest..collect_validation_failures_with_progress$LT$_core..dataset..validate_dataset_failures..$u7b$$u7b$closure$u7d$$u7d$$GT$..$u7b$$u7b$closure$u7d$$u7d$$GT$$GT$..$u7b$$u7b$closure$u7d$$u7d$$C$rayon..iter..plumbing..bridge_producer_consumer..helper$LT$rayon..slice..IterProducer$LT$std..path..PathBuf$GT$$C$rayon..iter..map..MapConsumer$LT$rayon..iter..map..MapConsumer$LT$rayon..iter..while_some..WhileSomeConsumer$LT$rayon..iter..collect..consumer..CollectConsumer$LT$$LP$alloc..string..String$C$core..option..Option$LT$alloc..string..String$GT$$RP$$GT$$GT$$C$rayon..result..$LT$impl$u20$rayon..iter..FromParallelIterator$LT$core..result..Result$LT$T$C$E$GT$$GT$$u20$for$u20$core..result..Result$LT$C$C$E$GT$$GT$..from_par_iter..ok$LT$$LP$alloc..string..String$C$core..option..Option$LT$alloc..string..String$GT$$RP$$C$_core..errors..E4EError$GT$..$u7b$$u7b$closure$u7d$$u7d$$GT$$C$_core..manifest..collect_validation_failures_with_progress$LT$_core..dataset..validate_dataset_failures..$u7b$$u7b$closure$u7d$$u7d$$GT$..$u7b$$u7b$closure$u7d$$u7d$$GT$$GT$..$u7b$$u7b$closure$u7d$$u7d$$C$rayon..iter..collect..consumer..CollectResult$LT$$LP$alloc..string..String$C$core..option..Option$LT$alloc..string..String$GT$$RP$$GT$$C$rayon..iter..collect..consumer..CollectResult$LT$$LP$alloc..string..String$C$core..option..Option$LT$alloc..string..String$GT$$RP$$GT$$GT$..$u7b$$u7b$closure$u7d$$u7d$$C$$LP$rayon..iter..collect..consumer..CollectResult$LT$$LP$alloc..string..String$C$core..option..Option$LT$alloc..string..String$GT$$RP$$GT$$C$rayon..iter..collect..consumer..CollectResult$LT$$LP$alloc..string..String$C$core..option..Option$LT$alloc..string..String$GT$$RP$$GT$$RP$$GT$..$u7b$$u7b$closure$u7d$$u7d$..$u7b$$u7b$closure$u7d$$u7d$$C$$LP$rayon..iter..collect..consumer..CollectResult$LT$$LP$alloc..string..String$C$core..option..Option$LT$alloc..string..String$GT$$RP$$GT$$C$rayon..iter..collect..consumer..CollectResult$LT$$LP$alloc..string..String$C$core..option..Option$LT$alloc..string..String$GT$$RP$$GT$$RP$$GT$$GT$17h05c5a1d8d8acc478E', symObjAddr: 0x3A68, symBinAddr: 0x3E798, symSize: 0x24 }
  - { offset: 0x96C76, size: 0x8, addend: 0x0, symName: '__ZN4core3ptr2950drop_in_place$LT$rayon_core..job..StackJob$LT$rayon_core..latch..LatchRef$LT$rayon_core..latch..LockLatch$GT$$C$rayon_core..registry..Registry..in_worker_cold$LT$rayon_core..join..join_context$LT$rayon..iter..plumbing..bridge_producer_consumer..helper$LT$rayon..slice..IterProducer$LT$std..path..PathBuf$GT$$C$rayon..iter..map..MapConsumer$LT$rayon..iter..map..MapConsumer$LT$rayon..iter..while_some..WhileSomeConsumer$LT$rayon..iter..extend..ListVecConsumer$GT$$C$rayon..result..$LT$impl$u20$rayon..iter..FromParallelIterator$LT$core..result..Result$LT$T$C$E$GT$$GT$$u20$for$u20$core..result..Result$LT$C$C$E$GT$$GT$..from_par_iter..ok$LT$$LP$alloc..string..String$C$core..option..Option$LT$alloc..string..String$GT$$RP$$C$_core..errors..E4EError$GT$..$u7b$$u7b$closure$u7d$$u7d$$GT$$C$_core..manifest..collect_validation_failures_with_progress$LT$_core..python..PyDataManager..validate_failures_with_progress..$u7b$$u7b$closure$u7d$$u7d$..$u7b$$u7b$closure$u7d$$u7d$$GT$..$u7b$$u7b$closure$u7d$$u7d$$GT$$GT$..$u7b$$u7b$closure$u7d$$u7d$$C$rayon..iter..plumbing..bridge_producer_consumer..helper$LT$rayon..slice..IterProducer$LT$std..path..PathBuf$GT$$C$rayon..iter..map..MapConsumer$LT$rayon..iter..map..MapConsumer$LT$rayon..iter..while_some..WhileSomeConsumer$LT$rayon..iter..extend..ListVecConsumer$GT$$C$rayon..result..$LT$impl$u20$rayon..iter..FromParallelIterator$LT$core..result..Result$LT$T$C$E$GT$$GT$$u20$for$u20$core..result..Result$LT$C$C$E$GT$$GT$..from_par_iter..ok$LT$$LP$alloc..string..String$C$core..option..Option$LT$alloc..string..String$GT$$RP$$C$_core..errors..E4EError$GT$..$u7b$$u7b$closure$u7d$$u7d$$GT$$C$_core..manifest..collect_validation_failures_with_progress$LT$_core..python..PyDataManager..validate_failures_with_progress..$u7b$$u7b$closure$u7d$$u7d$..$u7b$$u7b$closure$u7d$$u7d$$GT$..$u7b$$u7b$closure$u7d$$u7d$$GT$$GT$..$u7b$$u7b$closure$u7d$$u7d$$C$alloc..collections..linked_list..LinkedList$LT$alloc..vec..Vec$LT$$LP$alloc..string..String$C$core..option..Option$LT$alloc..string..String$GT$$RP$$GT$$GT$$C$alloc..collections..linked_list..LinkedList$LT$alloc..vec..Vec$LT$$LP$alloc..string..String$C$core..option..Option$LT$alloc..string..String$GT$$RP$$GT$$GT$$GT$..$u7b$$u7b$closure$u7d$$u7d$$C$$LP$alloc..collections..linked_list..LinkedList$LT$alloc..vec..Vec$LT$$LP$alloc..string..String$C$core..option..Option$LT$alloc..string..String$GT$$RP$$GT$$GT$$C$alloc..collections..linked_list..LinkedList$LT$alloc..vec..Vec$LT$$LP$alloc..string..String$C$core..option..Option$LT$alloc..string..String$GT$$RP$$GT$$GT$$RP$$GT$..$u7b$$u7b$closure$u7d$$u7d$..$u7b$$u7b$closure$u7d$$u7d$$C$$LP$alloc..collections..linked_list..LinkedList$LT$alloc..vec..Vec$LT$$LP$alloc..string..String$C$core..option..Option$LT$alloc..string..String$GT$$RP$$GT$$GT$$C$alloc..collections..linked_list..LinkedList$LT$alloc..vec..Vec$LT$$LP$alloc..string..String$C$core..option..Option$LT$alloc..string..String$GT$$RP$$GT$$GT$$RP$$GT$$GT$17h61ac6f08da14ae99E', symObjAddr: 0x3A8C, symBinAddr: 0x3E7BC, symSize: 0x24 }
  - { offset: 0x96CA5, size: 0x8, addend: 0x0, symName: '__ZN4core3ptr2961drop_in_place$LT$rayon_core..job..StackJob$LT$rayon_core..latch..SpinLatch$C$rayon_core..registry..Registry..in_worker_cross$LT$rayon_core..join..join_context$LT$rayon..iter..plumbing..bridge_producer_consumer..helper$LT$rayon..slice..IterProducer$LT$std..path..PathBuf$GT$$C$rayon..iter..map..MapConsumer$LT$rayon..iter..map..MapConsumer$LT$rayon..iter..while_some..WhileSomeConsumer$LT$rayon..iter..collect..consumer..CollectConsumer$LT$$LP$alloc..string..String$C$core..option..Option$LT$alloc..string..String$GT$$RP$$GT$$GT$$C$rayon..result..$LT$impl$u20$rayon..iter..FromParallelIterator$LT$core..result..Result$LT$T$C$E$GT$$GT$$u20$for$u20$core..result..Result$LT$C$C$E$GT$$GT$..from_par_iter..ok$LT$$LP$alloc..string..String$C$core..option..Option$LT$alloc..string..String$GT$$RP$$C$_core..errors..E4EError$GT$..$u7b$$u7b$closure$u7d$$u7d$$GT$$C$_core..manifest..collect_validation_failures_with_progress$LT$_core..python..PyDataManager..validate_failures_with_progress..$u7b$$u7b$closure$u7d$$u7d$..$u7b$$u7b$closure$u7d$$u7d$$GT$..$u7b$$u7b$closure$u7d$$u7d$$GT$$GT$..$u7b$$u7b$closure$u7d$$u7d$$C$rayon..iter..plumbing..bridge_producer_consumer..helper$LT$rayon..slice..IterProducer$LT$std..path..PathBuf$GT$$C$rayon..iter..map..MapConsumer$LT$rayon..iter..map..MapConsumer$LT$rayon..iter..while_some..WhileSomeConsumer$LT$rayon..iter..collect..consumer..CollectConsumer$LT$$LP$alloc..string..String$C$core..option..Option$LT$alloc..string..String$GT$$RP$$GT$$GT$$C$rayon..result..$LT$impl$u20$rayon..iter..FromParallelIterator$LT$core..result..Result$LT$T$C$E$GT$$GT$$u20$for$u20$core..result..Result$LT$C$C$E$GT$$GT$..from_par_iter..ok$LT$$LP$alloc..string..String$C$core..option..Option$LT$alloc..string..String$GT$$RP$$C$_core..errors..E4EError$GT$..$u7b$$u7b$closure$u7d$$u7d$$GT$$C$_core..manifest..collect_validation_failures_with_progress$LT$_core..python..PyDataManager..validate_failures_with_progress..$u7b$$u7b$closure$u7d$$u7d$..$u7b$$u7b$closure$u7d$$u7d$$GT$..$u7b$$u7b$closure$u7d$$u7d$$GT$$GT$..$u7b$$u7b$closure$u7d$$u7d$$C$rayon..iter..collect..consumer..CollectResult$LT$$LP$alloc..string..String$C$core..option..Option$LT$alloc..string..String$GT$$RP$$GT$$C$rayon..iter..collect..consumer..CollectResult$LT$$LP$alloc..string..String$C$core..option..Option$LT$alloc..string..String$GT$$RP$$GT$$GT$..$u7b$$u7b$closure$u7d$$u7d$$C$$LP$rayon..iter..collect..consumer..CollectResult$LT$$LP$alloc..string..String$C$core..option..Option$LT$alloc..string..String$GT$$RP$$GT$$C$rayon..iter..collect..consumer..CollectResult$LT$$LP$alloc..string..String$C$core..option..Option$LT$alloc..string..String$GT$$RP$$GT$$RP$$GT$..$u7b$$u7b$closure$u7d$$u7d$$C$$LP$rayon..iter..collect..consumer..CollectResult$LT$$LP$alloc..string..String$C$core..option..Option$LT$alloc..string..String$GT$$RP$$GT$$C$rayon..iter..collect..consumer..CollectResult$LT$$LP$alloc..string..String$C$core..option..Option$LT$alloc..string..String$GT$$RP$$GT$$RP$$GT$$GT$17hd6fec04e8c4574d5E', symObjAddr: 0x3AB0, symBinAddr: 0x3E7E0, symSize: 0x24 }
  - { offset: 0x96CD4, size: 0x8, addend: 0x0, symName: '__ZN4core3ptr300drop_in_place$LT$$LP$rayon..iter..collect..consumer..CollectResult$LT$$LP$alloc..string..String$C$core..option..Option$LT$alloc..string..String$GT$$RP$$GT$$C$rayon..iter..collect..consumer..CollectResult$LT$$LP$alloc..string..String$C$core..option..Option$LT$alloc..string..String$GT$$RP$$GT$$RP$$GT$17h816572a4e052d46fE', symObjAddr: 0x3AD4, symBinAddr: 0x3E804, symSize: 0x60 }
  - { offset: 0x96D03, size: 0x8, addend: 0x0, symName: '__ZN4core3ptr301drop_in_place$LT$alloc..vec..Vec$LT$_core..ffi..MissionInfoJson$GT$..extend_trusted$LT$core..iter..adapters..map..Map$LT$core..slice..iter..Iter$LT$_core..dataset..MissionState$GT$$C$_core..ffi..FfiDataManager..dataset_info_to_json..$u7b$$u7b$closure$u7d$$u7d$$GT$$GT$..$u7b$$u7b$closure$u7d$$u7d$$GT$17h3b4bfc0ca5ec128cE', symObjAddr: 0x3B34, symBinAddr: 0x3E864, symSize: 0x24 }
  - { offset: 0x96D32, size: 0x8, addend: 0x0, symName: '__ZN4core3ptr3024drop_in_place$LT$rayon_core..job..StackJob$LT$rayon_core..latch..LatchRef$LT$rayon_core..latch..LockLatch$GT$$C$rayon_core..registry..Registry..in_worker_cold$LT$rayon_core..join..join_context$LT$rayon..iter..plumbing..bridge_producer_consumer..helper$LT$rayon..slice..IterProducer$LT$std..path..PathBuf$GT$$C$rayon..iter..map..MapConsumer$LT$rayon..iter..map..MapConsumer$LT$rayon..iter..while_some..WhileSomeConsumer$LT$rayon..iter..collect..consumer..CollectConsumer$LT$$LP$alloc..string..String$C$core..option..Option$LT$alloc..string..String$GT$$RP$$GT$$GT$$C$rayon..result..$LT$impl$u20$rayon..iter..FromParallelIterator$LT$core..result..Result$LT$T$C$E$GT$$GT$$u20$for$u20$core..result..Result$LT$C$C$E$GT$$GT$..from_par_iter..ok$LT$$LP$alloc..string..String$C$core..option..Option$LT$alloc..string..String$GT$$RP$$C$_core..errors..E4EError$GT$..$u7b$$u7b$closure$u7d$$u7d$$GT$$C$_core..manifest..collect_validation_failures_with_progress$LT$_core..python..PyDataManager..validate_failures_with_progress..$u7b$$u7b$closure$u7d$$u7d$..$u7b$$u7b$closure$u7d$$u7d$$GT$..$u7b$$u7b$closure$u7d$$u7d$$GT$$GT$..$u7b$$u7b$closure$u7d$$u7d$$C$rayon..iter..plumbing..bridge_producer_consumer..helper$LT$rayon..slice..IterProducer$LT$std..path..PathBuf$GT$$C$rayon..iter..map..MapConsumer$LT$rayon..iter..map..MapConsumer$LT$rayon..iter..while_some..WhileSomeConsumer$LT$rayon..iter..collect..consumer..CollectConsumer$LT$$LP$alloc..string..String$C$core..option..Option$LT$alloc..string..String$GT$$RP$$GT$$GT$$C$rayon..result..$LT$impl$u20$rayon..iter..FromParallelIterator$LT$core..result..Result$LT$T$C$E$GT$$GT$$u20$for$u20$core..result..Result$LT$C$C$E$GT$$GT$..from_par_iter..ok$LT$$LP$alloc..string..String$C$core..option..Option$LT$alloc..string..String$GT$$RP$$C$_core..errors..E4EError$GT$..$u7b$$u7b$closure$u7d$$u7d$$GT$$C$_core..manifest..collect_validation_failures_with_progress$LT$_core..python..PyDataManager..validate_failures_with_progress..$u7b$$u7b$closure$u7d$$u7d$..$u7b$$u7b$closure$u7d$$u7d$$GT$..$u7b$$u7b$closure$u7d$$u7d$$GT$$GT$..$u7b$$u7b$closure$u7d$$u7d$$C$rayon..iter..collect..consumer..CollectResult$LT$$LP$alloc..string..String$C$core..option..Option$LT$alloc..string..String$GT$$RP$$GT$$C$rayon..iter..collect..consumer..CollectResult$LT$$LP$alloc..string..String$C$core..option..Option$LT$alloc..string..String$GT$$RP$$GT$$GT$..$u7b$$u7b$closure$u7d$$u7d$$C$$LP$rayon..iter..collect..consumer..CollectResult$LT$$LP$alloc..string..String$C$core..option..Option$LT$alloc..string..String$GT$$RP$$GT$$C$rayon..iter..collect..consumer..CollectResult$LT$$LP$alloc..string..String$C$core..option..Option$LT$alloc..string..String$GT$$RP$$GT$$RP$$GT$..$u7b$$u7b$closure$u7d$$u7d$..$u7b$$u7b$closure$u7d$$u7d$$C$$LP$rayon..iter..collect..consumer..CollectResult$LT$$LP$alloc..string..String$C$core..option..Option$LT$alloc..string..String$GT$$RP$$GT$$C$rayon..iter..collect..consumer..CollectResult$LT$$LP$alloc..string..String$C$core..option..Option$LT$alloc..string..String$GT$$RP$$GT$$RP$$GT$$GT$17he3c3c9258195d81cE', symObjAddr: 0x3B58, symBinAddr: 0x3E888, symSize: 0x24 }
  - { offset: 0x96D61, size: 0x8, addend: 0x0, symName: '__ZN4core3ptr304drop_in_place$LT$alloc..vec..Vec$LT$std..path..PathBuf$GT$..extend_trusted$LT$core..iter..adapters..map..Map$LT$core..slice..iter..Iter$LT$alloc..string..String$GT$$C$$LT$std..path..PathBuf$u20$as$u20$core..convert..From$LT$$RF$alloc..string..String$GT$$GT$..from$GT$$GT$..$u7b$$u7b$closure$u7d$$u7d$$GT$17hbf4a6c4b57275833E', symObjAddr: 0x3B7C, symBinAddr: 0x3E8AC, symSize: 0x24 }
  - { offset: 0x96D90, size: 0x8, addend: 0x0, symName: '__ZN4core3ptr334drop_in_place$LT$alloc..vec..Vec$LT$_core..python..PyStagedFile$GT$..extend_trusted$LT$core..iter..adapters..map..Map$LT$core..slice..iter..Iter$LT$_core..db..StagedFileRecord$GT$$C$$LT$_core..python..PyStagedFile$u20$as$u20$core..convert..From$LT$$RF$_core..db..StagedFileRecord$GT$$GT$..from$GT$$GT$..$u7b$$u7b$closure$u7d$$u7d$$GT$17h4ae4fa5f0a0ed3aeE', symObjAddr: 0x3BA0, symBinAddr: 0x3E8D0, symSize: 0x24 }
  - { offset: 0x96DBF, size: 0x8, addend: 0x0, symName: '__ZN4core3ptr334drop_in_place$LT$rayon_core..job..JobResult$LT$$LP$rayon..iter..collect..consumer..CollectResult$LT$$LP$alloc..string..String$C$core..option..Option$LT$alloc..string..String$GT$$RP$$GT$$C$rayon..iter..collect..consumer..CollectResult$LT$$LP$alloc..string..String$C$core..option..Option$LT$alloc..string..String$GT$$RP$$GT$$RP$$GT$$GT$17hafbe7220ba3636f6E', symObjAddr: 0x3BC4, symBinAddr: 0x3E8F4, symSize: 0x64 }
  - { offset: 0x96DEE, size: 0x8, addend: 0x0, symName: '__ZN4core3ptr342drop_in_place$LT$$LP$alloc..collections..linked_list..LinkedList$LT$alloc..vec..Vec$LT$$LP$alloc..string..String$C$core..option..Option$LT$alloc..string..String$GT$$RP$$GT$$GT$$C$alloc..collections..linked_list..LinkedList$LT$alloc..vec..Vec$LT$$LP$alloc..string..String$C$core..option..Option$LT$alloc..string..String$GT$$RP$$GT$$GT$$RP$$GT$17h7d9f8ce7be686c44E', symObjAddr: 0x3C28, symBinAddr: 0x3E958, symSize: 0x60 }
  - { offset: 0x96E1D, size: 0x8, addend: 0x0, symName: '__ZN4core3ptr344drop_in_place$LT$core..iter..adapters..map..Map$LT$alloc..vec..into_iter..IntoIter$LT$alloc..string..String$GT$$C$pyo3..conversions..std..vec..$LT$impl$u20$pyo3..conversion..IntoPy$LT$pyo3..instance..Py$LT$pyo3..types..any..PyAny$GT$$GT$$u20$for$u20$alloc..vec..Vec$LT$alloc..string..String$GT$$GT$..into_py..$u7b$$u7b$closure$u7d$$u7d$$GT$$GT$17h86eff2d99fa49a13E', symObjAddr: 0x3C88, symBinAddr: 0x3E9B8, symSize: 0x24 }
  - { offset: 0x96E4C, size: 0x8, addend: 0x0, symName: '__ZN4core3ptr350drop_in_place$LT$core..iter..adapters..map..Map$LT$alloc..vec..into_iter..IntoIter$LT$_core..python..PyMission$GT$$C$pyo3..conversions..std..vec..$LT$impl$u20$pyo3..conversion..IntoPy$LT$pyo3..instance..Py$LT$pyo3..types..any..PyAny$GT$$GT$$u20$for$u20$alloc..vec..Vec$LT$_core..python..PyMission$GT$$GT$..into_py..$u7b$$u7b$closure$u7d$$u7d$$GT$$GT$17h8e497dc60a4cb516E', symObjAddr: 0x3CAC, symBinAddr: 0x3E9DC, symSize: 0x24 }
  - { offset: 0x96E7B, size: 0x8, addend: 0x0, symName: '__ZN4core3ptr356drop_in_place$LT$core..iter..adapters..map..Map$LT$alloc..vec..into_iter..IntoIter$LT$_core..python..PyStagedFile$GT$$C$pyo3..conversions..std..vec..$LT$impl$u20$pyo3..conversion..IntoPy$LT$pyo3..instance..Py$LT$pyo3..types..any..PyAny$GT$$GT$$u20$for$u20$alloc..vec..Vec$LT$_core..python..PyStagedFile$GT$$GT$..into_py..$u7b$$u7b$closure$u7d$$u7d$$GT$$GT$17h18f9e15651446f1bE', symObjAddr: 0x3CD0, symBinAddr: 0x3EA00, symSize: 0x24 }
  - { offset: 0x96EAA, size: 0x8, addend: 0x0, symName: '__ZN4core3ptr357drop_in_place$LT$generic_array..ArrayBuilder$LT$u8$C$typenum..uint..UInt$LT$typenum..uint..UInt$LT$typenum..uint..UInt$LT$typenum..uint..UInt$LT$typenum..uint..UInt$LT$typenum..uint..UInt$LT$typenum..uint..UTerm$C$typenum..bit..B1$GT$$C$typenum..bit..B0$GT$$C$typenum..bit..B0$GT$$C$typenum..bit..B0$GT$$C$typenum..bit..B0$GT$$C$typenum..bit..B0$GT$$GT$$GT$17h3a0f71d67d193b26E', symObjAddr: 0x3CF4, symBinAddr: 0x3EA24, symSize: 0x24 }
  - { offset: 0x96ED9, size: 0x8, addend: 0x0, symName: '__ZN4core3ptr364drop_in_place$LT$core..cell..UnsafeCell$LT$rayon_core..job..JobResult$LT$$LP$rayon..iter..collect..consumer..CollectResult$LT$$LP$alloc..string..String$C$core..option..Option$LT$alloc..string..String$GT$$RP$$GT$$C$rayon..iter..collect..consumer..CollectResult$LT$$LP$alloc..string..String$C$core..option..Option$LT$alloc..string..String$GT$$RP$$GT$$RP$$GT$$GT$$GT$17h0cc626f5bfa66d1fE', symObjAddr: 0x3D18, symBinAddr: 0x3EA48, symSize: 0x24 }
  - { offset: 0x96F08, size: 0x8, addend: 0x0, symName: '__ZN4core3ptr376drop_in_place$LT$rayon_core..job..JobResult$LT$$LP$alloc..collections..linked_list..LinkedList$LT$alloc..vec..Vec$LT$$LP$alloc..string..String$C$core..option..Option$LT$alloc..string..String$GT$$RP$$GT$$GT$$C$alloc..collections..linked_list..LinkedList$LT$alloc..vec..Vec$LT$$LP$alloc..string..String$C$core..option..Option$LT$alloc..string..String$GT$$RP$$GT$$GT$$RP$$GT$$GT$17hc64f57134891008aE', symObjAddr: 0x3D3C, symBinAddr: 0x3EA6C, symSize: 0x64 }
  - { offset: 0x96F37, size: 0x8, addend: 0x0, symName: '__ZN4core3ptr386drop_in_place$LT$core..iter..traits..iterator..Iterator..for_each..call$LT$alloc..string..String$C$alloc..vec..Vec$LT$alloc..string..String$GT$..extend_trusted$LT$core..iter..adapters..map..Map$LT$core..slice..iter..Iter$LT$std..path..PathBuf$GT$$C$_core..dataset..save_dataset_state..$u7b$$u7b$closure$u7d$$u7d$$GT$$GT$..$u7b$$u7b$closure$u7d$$u7d$$GT$..$u7b$$u7b$closure$u7d$$u7d$$GT$17h97651d4be6253b3aE', symObjAddr: 0x3DA0, symBinAddr: 0x3EAD0, symSize: 0x24 }
  - { offset: 0x96F66, size: 0x8, addend: 0x0, symName: '__ZN4core3ptr387drop_in_place$LT$core..iter..traits..iterator..Iterator..for_each..call$LT$alloc..string..String$C$alloc..vec..Vec$LT$alloc..string..String$GT$..extend_trusted$LT$core..iter..adapters..map..Map$LT$core..slice..iter..Iter$LT$std..path..PathBuf$GT$$C$_core..dataset..stage_dataset_files..$u7b$$u7b$closure$u7d$$u7d$$GT$$GT$..$u7b$$u7b$closure$u7d$$u7d$$GT$..$u7b$$u7b$closure$u7d$$u7d$$GT$17h238b10da59c4c81dE', symObjAddr: 0x3DC4, symBinAddr: 0x3EAF4, symSize: 0x24 }
  - { offset: 0x96F95, size: 0x8, addend: 0x0, symName: '__ZN4core3ptr388drop_in_place$LT$core..iter..traits..iterator..Iterator..for_each..call$LT$alloc..string..String$C$alloc..vec..Vec$LT$alloc..string..String$GT$..extend_trusted$LT$core..iter..adapters..map..Map$LT$core..slice..iter..Iter$LT$std..path..PathBuf$GT$$C$_core..dataset..commit_dataset_files..$u7b$$u7b$closure$u7d$$u7d$$GT$$GT$..$u7b$$u7b$closure$u7d$$u7d$$GT$..$u7b$$u7b$closure$u7d$$u7d$$GT$17h30eed7486047883bE', symObjAddr: 0x3DE8, symBinAddr: 0x3EB18, symSize: 0x24 }
  - { offset: 0x96FC4, size: 0x8, addend: 0x0, symName: '__ZN4core3ptr388drop_in_place$LT$core..iter..traits..iterator..Iterator..for_each..call$LT$alloc..string..String$C$alloc..vec..Vec$LT$alloc..string..String$GT$..extend_trusted$LT$core..iter..adapters..map..Map$LT$core..slice..iter..Iter$LT$std..path..PathBuf$GT$$C$_core..dataset..commit_mission_files..$u7b$$u7b$closure$u7d$$u7d$$GT$$GT$..$u7b$$u7b$closure$u7d$$u7d$$GT$..$u7b$$u7b$closure$u7d$$u7d$$GT$17he78139da07ee0f70E', symObjAddr: 0x3E0C, symBinAddr: 0x3EB3C, symSize: 0x24 }
  - { offset: 0x96FF3, size: 0x8, addend: 0x0, symName: '__ZN4core3ptr388drop_in_place$LT$core..iter..traits..iterator..Iterator..for_each..call$LT$alloc..string..String$C$alloc..vec..Vec$LT$alloc..string..String$GT$..extend_trusted$LT$core..iter..adapters..map..Map$LT$core..slice..iter..Iter$LT$std..path..PathBuf$GT$$C$_core..python..PyDataManager..status..$u7b$$u7b$closure$u7d$$u7d$$GT$$GT$..$u7b$$u7b$closure$u7d$$u7d$$GT$..$u7b$$u7b$closure$u7d$$u7d$$GT$17ha2c9fa54a47ff379E', symObjAddr: 0x3E30, symBinAddr: 0x3EB60, symSize: 0x24 }
  - { offset: 0x97022, size: 0x8, addend: 0x0, symName: '__ZN4core3ptr38drop_in_place$LT$walkdir..IntoIter$GT$17h6d402a8dd23e21e8E', symObjAddr: 0x3E54, symBinAddr: 0x3EB84, symSize: 0xF4 }
  - { offset: 0x97051, size: 0x8, addend: 0x0, symName: '__ZN4core3ptr390drop_in_place$LT$core..iter..traits..iterator..Iterator..for_each..call$LT$alloc..string..String$C$alloc..vec..Vec$LT$alloc..string..String$GT$..extend_trusted$LT$core..iter..adapters..map..Map$LT$core..slice..iter..Iter$LT$std..path..PathBuf$GT$$C$_core..python..PyDataset..staged_files..$u7b$$u7b$closure$u7d$$u7d$$GT$$GT$..$u7b$$u7b$closure$u7d$$u7d$$GT$..$u7b$$u7b$closure$u7d$$u7d$$GT$17h5175368e842341f6E', symObjAddr: 0x3F48, symBinAddr: 0x3EC78, symSize: 0x24 }
  - { offset: 0x97080, size: 0x8, addend: 0x0, symName: '__ZN4core3ptr397drop_in_place$LT$core..iter..traits..iterator..Iterator..for_each..call$LT$_core..ffi..DatasetInfoJson$C$alloc..vec..Vec$LT$_core..ffi..DatasetInfoJson$GT$..extend_trusted$LT$core..iter..adapters..map..Map$LT$core..slice..iter..Iter$LT$_core..db..DatasetInfo$GT$$C$_core..ffi..e4e_list_datasets..$u7b$$u7b$closure$u7d$$u7d$$GT$$GT$..$u7b$$u7b$closure$u7d$$u7d$$GT$..$u7b$$u7b$closure$u7d$$u7d$$GT$17h302fe4f4ab24e4afE', symObjAddr: 0x3F6C, symBinAddr: 0x3EC9C, symSize: 0x24 }
  - { offset: 0x970AF, size: 0x8, addend: 0x0, symName: '__ZN4core3ptr397drop_in_place$LT$core..iter..traits..iterator..Iterator..for_each..call$LT$alloc..string..String$C$alloc..vec..Vec$LT$alloc..string..String$GT$..extend_trusted$LT$core..iter..adapters..map..Map$LT$core..slice..iter..Iter$LT$_core..db..StagedFileRecord$GT$$C$_core..python..PyDataManager..status..$u7b$$u7b$closure$u7d$$u7d$$GT$$GT$..$u7b$$u7b$closure$u7d$$u7d$$GT$..$u7b$$u7b$closure$u7d$$u7d$$GT$17h0b5dcd0ef63ccb80E', symObjAddr: 0x3F90, symBinAddr: 0x3ECC0, symSize: 0x24 }
  - { offset: 0x970DE, size: 0x8, addend: 0x0, symName: '__ZN4core3ptr399drop_in_place$LT$core..iter..traits..iterator..Iterator..for_each..call$LT$alloc..string..String$C$alloc..vec..Vec$LT$alloc..string..String$GT$..extend_trusted$LT$core..iter..adapters..map..Map$LT$core..slice..iter..Iter$LT$_core..db..DatasetInfo$GT$$C$_core..python..PyDataManager..list_datasets..$u7b$$u7b$closure$u7d$$u7d$$GT$$GT$..$u7b$$u7b$closure$u7d$$u7d$$GT$..$u7b$$u7b$closure$u7d$$u7d$$GT$17h05533ba903061c30E', symObjAddr: 0x3FB4, symBinAddr: 0x3ECE4, symSize: 0x24 }
  - { offset: 0x9710D, size: 0x8, addend: 0x0, symName: '__ZN4core3ptr402drop_in_place$LT$core..iter..traits..iterator..Iterator..for_each..call$LT$_core..python..PyMission$C$alloc..vec..Vec$LT$_core..python..PyMission$GT$..extend_trusted$LT$core..iter..adapters..map..Map$LT$core..slice..iter..Iter$LT$_core..dataset..MissionState$GT$$C$_core..python..PyDataset..missions..$u7b$$u7b$closure$u7d$$u7d$$GT$$GT$..$u7b$$u7b$closure$u7d$$u7d$$GT$..$u7b$$u7b$closure$u7d$$u7d$$GT$17h48fa9aff3937e221E', symObjAddr: 0x3FD8, symBinAddr: 0x3ED08, symSize: 0x24 }
  - { offset: 0x9713C, size: 0x8, addend: 0x0, symName: '__ZN4core3ptr403drop_in_place$LT$generic_array..ArrayBuilder$LT$u8$C$typenum..uint..UInt$LT$typenum..uint..UInt$LT$typenum..uint..UInt$LT$typenum..uint..UInt$LT$typenum..uint..UInt$LT$typenum..uint..UInt$LT$typenum..uint..UInt$LT$typenum..uint..UTerm$C$typenum..bit..B1$GT$$C$typenum..bit..B0$GT$$C$typenum..bit..B0$GT$$C$typenum..bit..B0$GT$$C$typenum..bit..B0$GT$$C$typenum..bit..B0$GT$$C$typenum..bit..B0$GT$$GT$$GT$17h44562d0e13470f33E', symObjAddr: 0x3FFC, symBinAddr: 0x3ED2C, symSize: 0x24 }
  - { offset: 0x9716B, size: 0x8, addend: 0x0, symName: '__ZN4core3ptr406drop_in_place$LT$core..cell..UnsafeCell$LT$rayon_core..job..JobResult$LT$$LP$alloc..collections..linked_list..LinkedList$LT$alloc..vec..Vec$LT$$LP$alloc..string..String$C$core..option..Option$LT$alloc..string..String$GT$$RP$$GT$$GT$$C$alloc..collections..linked_list..LinkedList$LT$alloc..vec..Vec$LT$$LP$alloc..string..String$C$core..option..Option$LT$alloc..string..String$GT$$RP$$GT$$GT$$RP$$GT$$GT$$GT$17h5f19ad22ddd1206cE', symObjAddr: 0x4020, symBinAddr: 0x3ED50, symSize: 0x24 }
  - { offset: 0x9719A, size: 0x8, addend: 0x0, symName: '__ZN4core3ptr40drop_in_place$LT$rusqlite..row..Rows$GT$17h00838d535f9cc2ffE', symObjAddr: 0x4044, symBinAddr: 0x3ED74, symSize: 0x24 }
  - { offset: 0x971C9, size: 0x8, addend: 0x0, symName: '__ZN4core3ptr416drop_in_place$LT$core..iter..traits..iterator..Iterator..for_each..call$LT$std..path..PathBuf$C$alloc..vec..Vec$LT$std..path..PathBuf$GT$..extend_trusted$LT$core..iter..adapters..map..Map$LT$core..slice..iter..Iter$LT$alloc..string..String$GT$$C$$LT$std..path..PathBuf$u20$as$u20$core..convert..From$LT$$RF$alloc..string..String$GT$$GT$..from$GT$$GT$..$u7b$$u7b$closure$u7d$$u7d$$GT$..$u7b$$u7b$closure$u7d$$u7d$$GT$17hb3ebc109a9f6a7bcE', symObjAddr: 0x4068, symBinAddr: 0x3ED98, symSize: 0x24 }
  - { offset: 0x971F8, size: 0x8, addend: 0x0, symName: '__ZN4core3ptr41drop_in_place$LT$_core..db..DatasetDb$GT$17h1f4c72406ff9449bE', symObjAddr: 0x408C, symBinAddr: 0x3EDBC, symSize: 0x24 }
  - { offset: 0x97227, size: 0x8, addend: 0x0, symName: '__ZN4core3ptr41drop_in_place$LT$_core..db..ManagerDb$GT$17h344ebcd20d6308caE', symObjAddr: 0x40B0, symBinAddr: 0x3EDE0, symSize: 0x24 }
  - { offset: 0x97256, size: 0x8, addend: 0x0, symName: '__ZN4core3ptr422drop_in_place$LT$core..iter..traits..iterator..Iterator..for_each..call$LT$_core..ffi..MissionInfoJson$C$alloc..vec..Vec$LT$_core..ffi..MissionInfoJson$GT$..extend_trusted$LT$core..iter..adapters..map..Map$LT$core..slice..iter..Iter$LT$_core..dataset..MissionState$GT$$C$_core..ffi..FfiDataManager..dataset_info_to_json..$u7b$$u7b$closure$u7d$$u7d$$GT$$GT$..$u7b$$u7b$closure$u7d$$u7d$$GT$..$u7b$$u7b$closure$u7d$$u7d$$GT$17hb7455ee2fc929f01E', symObjAddr: 0x40D4, symBinAddr: 0x3EE04, symSize: 0x24 }
  - { offset: 0x97285, size: 0x8, addend: 0x0, symName: '__ZN4core3ptr42drop_in_place$LT$flate2..mem..Compress$GT$17h82367be65d4c93ecE', symObjAddr: 0x40F8, symBinAddr: 0x3EE28, symSize: 0x24 }
  - { offset: 0x972B4, size: 0x8, addend: 0x0, symName: '__ZN4core3ptr42drop_in_place$LT$pyo3..gil..SuspendGIL$GT$17h93f986a18592fee5E', symObjAddr: 0x411C, symBinAddr: 0x3EE4C, symSize: 0x24 }
  - { offset: 0x972E3, size: 0x8, addend: 0x0, symName: '__ZN4core3ptr43drop_in_place$LT$_core..db..DatasetInfo$GT$17h01fe4ebfb1a3eeaeE', symObjAddr: 0x4140, symBinAddr: 0x3EE70, symSize: 0x120 }
  - { offset: 0x97312, size: 0x8, addend: 0x0, symName: '__ZN4core3ptr43drop_in_place$LT$_core..db..DatasetMeta$GT$17hd6f62f1af76f4f61E', symObjAddr: 0x4260, symBinAddr: 0x3EF90, symSize: 0xC0 }
  - { offset: 0x97341, size: 0x8, addend: 0x0, symName: '__ZN4core3ptr44drop_in_place$LT$_core..errors..E4EError$GT$17hff25aae00244350aE', symObjAddr: 0x4320, symBinAddr: 0x3F050, symSize: 0xF8 }
  - { offset: 0x97370, size: 0x8, addend: 0x0, symName: '__ZN4core3ptr455drop_in_place$LT$core..iter..traits..iterator..Iterator..for_each..call$LT$_core..python..PyStagedFile$C$alloc..vec..Vec$LT$_core..python..PyStagedFile$GT$..extend_trusted$LT$core..iter..adapters..map..Map$LT$core..slice..iter..Iter$LT$_core..db..StagedFileRecord$GT$$C$$LT$_core..python..PyStagedFile$u20$as$u20$core..convert..From$LT$$RF$_core..db..StagedFileRecord$GT$$GT$..from$GT$$GT$..$u7b$$u7b$closure$u7d$$u7d$$GT$..$u7b$$u7b$closure$u7d$$u7d$$GT$17h0951c7cfc8338d82E', symObjAddr: 0x4418, symBinAddr: 0x3F148, symSize: 0x24 }
  - { offset: 0x9739F, size: 0x8, addend: 0x0, symName: '__ZN4core3ptr45drop_in_place$LT$_core..db..MissionRecord$GT$17hbfea9fa3cf4373fbE', symObjAddr: 0x443C, symBinAddr: 0x3F16C, symSize: 0x90 }
  - { offset: 0x973CE, size: 0x8, addend: 0x0, symName: '__ZN4core3ptr45drop_in_place$LT$_core..python..PyDataset$GT$17h0a24a1495d4f8912E', symObjAddr: 0x44CC, symBinAddr: 0x3F1FC, symSize: 0x24 }
  - { offset: 0x973FD, size: 0x8, addend: 0x0, symName: '__ZN4core3ptr45drop_in_place$LT$_core..python..PyMission$GT$17hc2ede60d297df961E', symObjAddr: 0x44F0, symBinAddr: 0x3F220, symSize: 0x24 }
  - { offset: 0x9742C, size: 0x8, addend: 0x0, symName: '__ZN4core3ptr45drop_in_place$LT$directories..ProjectDirs$GT$17h6517d21c454dde9cE', symObjAddr: 0x4514, symBinAddr: 0x3F244, symSize: 0x1B0 }
  - { offset: 0x9745B, size: 0x8, addend: 0x0, symName: '__ZN4core3ptr47drop_in_place$LT$_core..ffi..FfiDataManager$GT$17hf7b9cc27dc92ae0dE', symObjAddr: 0x46C4, symBinAddr: 0x3F3F4, symSize: 0x90 }
  - { offset: 0x9748A, size: 0x8, addend: 0x0, symName: '__ZN4core3ptr47drop_in_place$LT$alloc..vec..Vec$LT$f32$GT$$GT$17h3179a4e13cc48cfdE', symObjAddr: 0x4754, symBinAddr: 0x3F484, symSize: 0x5C }
  - { offset: 0x974B9, size: 0x8, addend: 0x0, symName: '__ZN4core3ptr48drop_in_place$LT$$u5b$std..fs..DirEntry$u5d$$GT$17h9b94136618c4f89dE', symObjAddr: 0x47B0, symBinAddr: 0x3F4E0, symSize: 0xC4 }
  - { offset: 0x974E8, size: 0x8, addend: 0x0, symName: '__ZN4core3ptr48drop_in_place$LT$_core..db..StagedFileRecord$GT$17hb19ced955d0b4a33E', symObjAddr: 0x4874, symBinAddr: 0x3F5A4, symSize: 0x90 }
  - { offset: 0x97517, size: 0x8, addend: 0x0, symName: '__ZN4core3ptr48drop_in_place$LT$_core..ffi..DatasetInfoJson$GT$17h46298a1a09c8428fE', symObjAddr: 0x4904, symBinAddr: 0x3F634, symSize: 0x150 }
  - { offset: 0x97546, size: 0x8, addend: 0x0, symName: '__ZN4core3ptr48drop_in_place$LT$_core..ffi..MissionInfoJson$GT$17h1c3e1e599ccce199E', symObjAddr: 0x4A54, symBinAddr: 0x3F784, symSize: 0x150 }
  - { offset: 0x97575, size: 0x8, addend: 0x0, symName: '__ZN4core3ptr48drop_in_place$LT$_core..manager..DataManager$GT$17hb3f27e2542ea7120E', symObjAddr: 0x4BA4, symBinAddr: 0x3F8D4, symSize: 0x90 }
  - { offset: 0x975A4, size: 0x8, addend: 0x0, symName: '__ZN4core3ptr48drop_in_place$LT$_core..python..PyStagedFile$GT$17h1c416e4c20336511E', symObjAddr: 0x4C34, symBinAddr: 0x3F964, symSize: 0x90 }
  - { offset: 0x975D3, size: 0x8, addend: 0x0, symName: '__ZN4core3ptr49drop_in_place$LT$$u5b$std..path..PathBuf$u5d$$GT$17hef7a03b889895c73E', symObjAddr: 0x4CC4, symBinAddr: 0x3F9F4, symSize: 0xC4 }
  - { offset: 0x97602, size: 0x8, addend: 0x0, symName: '__ZN4core3ptr49drop_in_place$LT$_core..dataset..DatasetState$GT$17h5de6b3c9d2e0e8f4E', symObjAddr: 0x4D88, symBinAddr: 0x3FAB8, symSize: 0x180 }
  - { offset: 0x97631, size: 0x8, addend: 0x0, symName: '__ZN4core3ptr49drop_in_place$LT$_core..dataset..MissionState$GT$17hf829c03ef5d17cc0E', symObjAddr: 0x4F08, symBinAddr: 0x3FC38, symSize: 0x90 }
  - { offset: 0x97660, size: 0x8, addend: 0x0, symName: '__ZN4core3ptr49drop_in_place$LT$_core..python..PyDataManager$GT$17h1969760bd8ccf78fE', symObjAddr: 0x4F98, symBinAddr: 0x3FCC8, symSize: 0x24 }
  - { offset: 0x9768F, size: 0x8, addend: 0x0, symName: '__ZN4core3ptr50drop_in_place$LT$_core..metadata..MetadataJson$GT$17h81f6e195abf7391cE', symObjAddr: 0x4FBC, symBinAddr: 0x3FCEC, symSize: 0x180 }
  - { offset: 0x976BE, size: 0x8, addend: 0x0, symName: '__ZN4core3ptr51drop_in_place$LT$_core..manifest..ManifestEntry$GT$17h04c6fa9124d7832cE', symObjAddr: 0x513C, symBinAddr: 0x3FE6C, symSize: 0x24 }
  - { offset: 0x976ED, size: 0x8, addend: 0x0, symName: '__ZN4core3ptr52drop_in_place$LT$_core..metadata..MetadataRecord$GT$17hcc100a820fcb2975E', symObjAddr: 0x5160, symBinAddr: 0x3FE90, symSize: 0x180 }
  - { offset: 0x9771C, size: 0x8, addend: 0x0, symName: '__ZN4core3ptr53drop_in_place$LT$$u5b$_core..db..DatasetInfo$u5d$$GT$17hab7a9e0826d64db5E', symObjAddr: 0x52E0, symBinAddr: 0x40010, symSize: 0xC4 }
  - { offset: 0x9774B, size: 0x8, addend: 0x0, symName: '__ZN4core3ptr53drop_in_place$LT$_core..manager..DataManagerState$GT$17hcb51cd216ed4e8e9E', symObjAddr: 0x53A4, symBinAddr: 0x400D4, symSize: 0xF0 }
  - { offset: 0x9777A, size: 0x8, addend: 0x0, symName: '__ZN4core3ptr545drop_in_place$LT$rayon..iter..map..MapFolder$LT$rayon..iter..while_some..WhileSomeFolder$LT$rayon..iter..extend..ListVecFolder$LT$$LP$alloc..string..String$C$core..option..Option$LT$alloc..string..String$GT$$RP$$GT$$GT$$C$rayon..result..$LT$impl$u20$rayon..iter..FromParallelIterator$LT$core..result..Result$LT$T$C$E$GT$$GT$$u20$for$u20$core..result..Result$LT$C$C$E$GT$$GT$..from_par_iter..ok$LT$$LP$alloc..string..String$C$core..option..Option$LT$alloc..string..String$GT$$RP$$C$_core..errors..E4EError$GT$..$u7b$$u7b$closure$u7d$$u7d$$GT$$GT$17hb10b53333176090bE', symObjAddr: 0x54B8, symBinAddr: 0x401C4, symSize: 0x24 }
  - { offset: 0x977A9, size: 0x8, addend: 0x0, symName: '__ZN4core3ptr54drop_in_place$LT$$u5b$walkdir..dent..DirEntry$u5d$$GT$17he14feb0ca4068a0aE', symObjAddr: 0x54DC, symBinAddr: 0x401E8, symSize: 0xC4 }
  - { offset: 0x977D8, size: 0x8, addend: 0x0, symName: '__ZN4core3ptr54drop_in_place$LT$alloc..raw_vec..RawVec$LT$f32$GT$$GT$17h75798fd1983de0ffE', symObjAddr: 0x55A0, symBinAddr: 0x402AC, symSize: 0x24 }
  - { offset: 0x97807, size: 0x8, addend: 0x0, symName: '__ZN4core3ptr54drop_in_place$LT$flate2..ffi..miniz_oxide..Deflate$GT$17h28161ae5d88fb9f9E', symObjAddr: 0x55C4, symBinAddr: 0x402D0, symSize: 0x24 }
  - { offset: 0x97836, size: 0x8, addend: 0x0, symName: '__ZN4core3ptr556drop_in_place$LT$rayon..iter..map..MapFolder$LT$rayon..iter..while_some..WhileSomeFolder$LT$rayon..iter..collect..consumer..CollectResult$LT$$LP$alloc..string..String$C$core..option..Option$LT$alloc..string..String$GT$$RP$$GT$$GT$$C$rayon..result..$LT$impl$u20$rayon..iter..FromParallelIterator$LT$core..result..Result$LT$T$C$E$GT$$GT$$u20$for$u20$core..result..Result$LT$C$C$E$GT$$GT$..from_par_iter..ok$LT$$LP$alloc..string..String$C$core..option..Option$LT$alloc..string..String$GT$$RP$$C$_core..errors..E4EError$GT$..$u7b$$u7b$closure$u7d$$u7d$$GT$$GT$17he9b11df638ede2adE', symObjAddr: 0x55E8, symBinAddr: 0x402F4, symSize: 0x24 }
  - { offset: 0x97865, size: 0x8, addend: 0x0, symName: '__ZN4core3ptr55drop_in_place$LT$$u5b$_core..db..MissionRecord$u5d$$GT$17h03da5a47e416248bE', symObjAddr: 0x560C, symBinAddr: 0x40318, symSize: 0xC4 }
  - { offset: 0x97894, size: 0x8, addend: 0x0, symName: '__ZN4core3ptr55drop_in_place$LT$$u5b$_core..python..PyMission$u5d$$GT$17h99ecb7145a31812cE', symObjAddr: 0x56D0, symBinAddr: 0x403DC, symSize: 0xC4 }
  - { offset: 0x978C3, size: 0x8, addend: 0x0, symName: '__ZN4core3ptr55drop_in_place$LT$alloc..vec..drain..Drain$LT$u8$GT$$GT$17h30dfb3de4f894a21E', symObjAddr: 0x5794, symBinAddr: 0x404A0, symSize: 0x24 }
  - { offset: 0x978F2, size: 0x8, addend: 0x0, symName: '__ZN4core3ptr55drop_in_place$LT$rusqlite..transaction..Transaction$GT$17ha632165446e8044dE', symObjAddr: 0x57B8, symBinAddr: 0x404C4, symSize: 0x24 }
  - { offset: 0x97921, size: 0x8, addend: 0x0, symName: '__ZN4core3ptr560drop_in_place$LT$rayon_core..job..StackJob$LT$rayon_core..latch..SpinLatch$C$rayon_core..join..join_context..call_b$LT$$LP$$RP$$C$rayon..iter..plumbing..bridge_producer_consumer..helper$LT$rayon..slice..IterProducer$LT$$LP$$RF$alloc..string..String$C$$RF$_core..manifest..ManifestEntry$RP$$GT$$C$rayon..iter..for_each..ForEachConsumer$LT$_core..dataset..duplicate_dataset_with_progress$LT$_core..ffi..e4e_push..$u7b$$u7b$closure$u7d$$u7d$$GT$..$u7b$$u7b$closure$u7d$$u7d$$GT$$GT$..$u7b$$u7b$closure$u7d$$u7d$$GT$..$u7b$$u7b$closure$u7d$$u7d$$C$$LP$$RP$$GT$$GT$17h6b84d52a69e04681E', symObjAddr: 0x57DC, symBinAddr: 0x404E8, symSize: 0x24 }
  - { offset: 0x97950, size: 0x8, addend: 0x0, symName: '__ZN4core3ptr573drop_in_place$LT$rayon_core..job..StackJob$LT$rayon_core..latch..SpinLatch$C$rayon_core..join..join_context..call_b$LT$$LP$$RP$$C$rayon..iter..plumbing..bridge_producer_consumer..helper$LT$rayon..slice..IterProducer$LT$$LP$$RF$alloc..string..String$C$$RF$_core..manifest..ManifestEntry$RP$$GT$$C$rayon..iter..for_each..ForEachConsumer$LT$_core..dataset..duplicate_dataset_with_progress$LT$_core..dataset..duplicate_dataset..$u7b$$u7b$closure$u7d$$u7d$$GT$..$u7b$$u7b$closure$u7d$$u7d$$GT$$GT$..$u7b$$u7b$closure$u7d$$u7d$$GT$..$u7b$$u7b$closure$u7d$$u7d$$C$$LP$$RP$$GT$$GT$17haab372bd20c9f5e5E', symObjAddr: 0x5800, symBinAddr: 0x4050C, symSize: 0x24 }
  - { offset: 0x9797F, size: 0x8, addend: 0x0, symName: '__ZN4core3ptr574drop_in_place$LT$rayon_core..job..StackJob$LT$rayon_core..latch..SpinLatch$C$rayon_core..join..join_context..call_b$LT$$LP$$RP$$C$rayon..iter..plumbing..bridge_producer_consumer..helper$LT$rayon..slice..IterProducer$LT$$LP$$RF$alloc..string..String$C$$RF$_core..manifest..ManifestEntry$RP$$GT$$C$rayon..iter..for_each..ForEachConsumer$LT$_core..dataset..duplicate_dataset_with_progress$LT$_core..ffi..e4e_push_with_progress..$u7b$$u7b$closure$u7d$$u7d$$GT$..$u7b$$u7b$closure$u7d$$u7d$$GT$$GT$..$u7b$$u7b$closure$u7d$$u7d$$GT$..$u7b$$u7b$closure$u7d$$u7d$$C$$LP$$RP$$GT$$GT$17ha6bbc5f6cf29f1cfE', symObjAddr: 0x5824, symBinAddr: 0x40530, symSize: 0x24 }
  - { offset: 0x979AE, size: 0x8, addend: 0x0, symName: '__ZN4core3ptr584drop_in_place$LT$core..iter..adapters..map..map_fold$LT$$RF$std..path..PathBuf$C$alloc..string..String$C$$LP$$RP$$C$_core..dataset..save_dataset_state..$u7b$$u7b$closure$u7d$$u7d$$C$core..iter..traits..iterator..Iterator..for_each..call$LT$alloc..string..String$C$alloc..vec..Vec$LT$alloc..string..String$GT$..extend_trusted$LT$core..iter..adapters..map..Map$LT$core..slice..iter..Iter$LT$std..path..PathBuf$GT$$C$_core..dataset..save_dataset_state..$u7b$$u7b$closure$u7d$$u7d$$GT$$GT$..$u7b$$u7b$closure$u7d$$u7d$$GT$..$u7b$$u7b$closure$u7d$$u7d$$GT$..$u7b$$u7b$closure$u7d$$u7d$$GT$17h4e58ede51c7ec5cbE', symObjAddr: 0x5848, symBinAddr: 0x40554, symSize: 0x24 }
  - { offset: 0x979DD, size: 0x8, addend: 0x0, symName: '__ZN4core3ptr586drop_in_place$LT$core..iter..adapters..map..map_fold$LT$$RF$std..path..PathBuf$C$alloc..string..String$C$$LP$$RP$$C$_core..dataset..stage_dataset_files..$u7b$$u7b$closure$u7d$$u7d$$C$core..iter..traits..iterator..Iterator..for_each..call$LT$alloc..string..String$C$alloc..vec..Vec$LT$alloc..string..String$GT$..extend_trusted$LT$core..iter..adapters..map..Map$LT$core..slice..iter..Iter$LT$std..path..PathBuf$GT$$C$_core..dataset..stage_dataset_files..$u7b$$u7b$closure$u7d$$u7d$$GT$$GT$..$u7b$$u7b$closure$u7d$$u7d$$GT$..$u7b$$u7b$closure$u7d$$u7d$$GT$..$u7b$$u7b$closure$u7d$$u7d$$GT$17hcd3005e6be1bbf8cE', symObjAddr: 0x586C, symBinAddr: 0x40578, symSize: 0x24 }
  - { offset: 0x97A0C, size: 0x8, addend: 0x0, symName: '__ZN4core3ptr588drop_in_place$LT$core..iter..adapters..map..map_fold$LT$$RF$std..path..PathBuf$C$alloc..string..String$C$$LP$$RP$$C$_core..dataset..commit_dataset_files..$u7b$$u7b$closure$u7d$$u7d$$C$core..iter..traits..iterator..Iterator..for_each..call$LT$alloc..string..String$C$alloc..vec..Vec$LT$alloc..string..String$GT$..extend_trusted$LT$core..iter..adapters..map..Map$LT$core..slice..iter..Iter$LT$std..path..PathBuf$GT$$C$_core..dataset..commit_dataset_files..$u7b$$u7b$closure$u7d$$u7d$$GT$$GT$..$u7b$$u7b$closure$u7d$$u7d$$GT$..$u7b$$u7b$closure$u7d$$u7d$$GT$..$u7b$$u7b$closure$u7d$$u7d$$GT$17hd50d314503f07f92E', symObjAddr: 0x5890, symBinAddr: 0x4059C, symSize: 0x24 }
  - { offset: 0x97A3B, size: 0x8, addend: 0x0, symName: '__ZN4core3ptr588drop_in_place$LT$core..iter..adapters..map..map_fold$LT$$RF$std..path..PathBuf$C$alloc..string..String$C$$LP$$RP$$C$_core..dataset..commit_mission_files..$u7b$$u7b$closure$u7d$$u7d$$C$core..iter..traits..iterator..Iterator..for_each..call$LT$alloc..string..String$C$alloc..vec..Vec$LT$alloc..string..String$GT$..extend_trusted$LT$core..iter..adapters..map..Map$LT$core..slice..iter..Iter$LT$std..path..PathBuf$GT$$C$_core..dataset..commit_mission_files..$u7b$$u7b$closure$u7d$$u7d$$GT$$GT$..$u7b$$u7b$closure$u7d$$u7d$$GT$..$u7b$$u7b$closure$u7d$$u7d$$GT$..$u7b$$u7b$closure$u7d$$u7d$$GT$17hc3f6765188f62c92E', symObjAddr: 0x58B4, symBinAddr: 0x405C0, symSize: 0x24 }
  - { offset: 0x97A6A, size: 0x8, addend: 0x0, symName: '__ZN4core3ptr588drop_in_place$LT$core..iter..adapters..map..map_fold$LT$$RF$std..path..PathBuf$C$alloc..string..String$C$$LP$$RP$$C$_core..python..PyDataManager..status..$u7b$$u7b$closure$u7d$$u7d$$C$core..iter..traits..iterator..Iterator..for_each..call$LT$alloc..string..String$C$alloc..vec..Vec$LT$alloc..string..String$GT$..extend_trusted$LT$core..iter..adapters..map..Map$LT$core..slice..iter..Iter$LT$std..path..PathBuf$GT$$C$_core..python..PyDataManager..status..$u7b$$u7b$closure$u7d$$u7d$$GT$$GT$..$u7b$$u7b$closure$u7d$$u7d$$GT$..$u7b$$u7b$closure$u7d$$u7d$$GT$..$u7b$$u7b$closure$u7d$$u7d$$GT$17h6b65e126378c79f9E', symObjAddr: 0x58D8, symBinAddr: 0x405E4, symSize: 0x24 }
  - { offset: 0x97A99, size: 0x8, addend: 0x0, symName: '__ZN4core3ptr58drop_in_place$LT$$u5b$_core..db..StagedFileRecord$u5d$$GT$17h927f36315e1af97dE', symObjAddr: 0x58FC, symBinAddr: 0x40608, symSize: 0xC4 }
  - { offset: 0x97AC8, size: 0x8, addend: 0x0, symName: '__ZN4core3ptr58drop_in_place$LT$$u5b$_core..ffi..DatasetInfoJson$u5d$$GT$17hf2aaa50dfa18bf05E', symObjAddr: 0x59C0, symBinAddr: 0x406CC, symSize: 0xC4 }
  - { offset: 0x97AF7, size: 0x8, addend: 0x0, symName: '__ZN4core3ptr58drop_in_place$LT$$u5b$_core..ffi..MissionInfoJson$u5d$$GT$17hb1847b5013f003a9E', symObjAddr: 0x5A84, symBinAddr: 0x40790, symSize: 0xC4 }
  - { offset: 0x97B26, size: 0x8, addend: 0x0, symName: '__ZN4core3ptr58drop_in_place$LT$$u5b$_core..python..PyStagedFile$u5d$$GT$17hb196392e4b381d3bE', symObjAddr: 0x5B48, symBinAddr: 0x40854, symSize: 0xC4 }
  - { offset: 0x97B55, size: 0x8, addend: 0x0, symName: '__ZN4core3ptr592drop_in_place$LT$core..iter..adapters..map..map_fold$LT$$RF$std..path..PathBuf$C$alloc..string..String$C$$LP$$RP$$C$_core..python..PyDataset..staged_files..$u7b$$u7b$closure$u7d$$u7d$$C$core..iter..traits..iterator..Iterator..for_each..call$LT$alloc..string..String$C$alloc..vec..Vec$LT$alloc..string..String$GT$..extend_trusted$LT$core..iter..adapters..map..Map$LT$core..slice..iter..Iter$LT$std..path..PathBuf$GT$$C$_core..python..PyDataset..staged_files..$u7b$$u7b$closure$u7d$$u7d$$GT$$GT$..$u7b$$u7b$closure$u7d$$u7d$$GT$..$u7b$$u7b$closure$u7d$$u7d$$GT$..$u7b$$u7b$closure$u7d$$u7d$$GT$17h9504c86b960f2223E', symObjAddr: 0x5C0C, symBinAddr: 0x40918, symSize: 0x24 }
  - { offset: 0x97B84, size: 0x8, addend: 0x0, symName: '__ZN4core3ptr59drop_in_place$LT$$u5b$_core..dataset..MissionState$u5d$$GT$17hf0440b1c1d1233b7E', symObjAddr: 0x5C30, symBinAddr: 0x4093C, symSize: 0xC4 }
  - { offset: 0x97BB3, size: 0x8, addend: 0x0, symName: '__ZN4core3ptr59drop_in_place$LT$zopfli..cache..ZopfliLongestMatchCache$GT$17h4ed5a0dd75243cf9E', symObjAddr: 0x5CF4, symBinAddr: 0x40A00, symSize: 0x90 }
  - { offset: 0x97BE2, size: 0x8, addend: 0x0, symName: '__ZN4core3ptr600drop_in_place$LT$core..iter..adapters..map..map_fold$LT$$RF$_core..db..DatasetInfo$C$_core..ffi..DatasetInfoJson$C$$LP$$RP$$C$_core..ffi..e4e_list_datasets..$u7b$$u7b$closure$u7d$$u7d$$C$core..iter..traits..iterator..Iterator..for_each..call$LT$_core..ffi..DatasetInfoJson$C$alloc..vec..Vec$LT$_core..ffi..DatasetInfoJson$GT$..extend_trusted$LT$core..iter..adapters..map..Map$LT$core..slice..iter..Iter$LT$_core..db..DatasetInfo$GT$$C$_core..ffi..e4e_list_datasets..$u7b$$u7b$closure$u7d$$u7d$$GT$$GT$..$u7b$$u7b$closure$u7d$$u7d$$GT$..$u7b$$u7b$closure$u7d$$u7d$$GT$..$u7b$$u7b$closure$u7d$$u7d$$GT$17hb528144de0855b33E', symObjAddr: 0x5D84, symBinAddr: 0x40A90, symSize: 0x24 }
  - { offset: 0x97C11, size: 0x8, addend: 0x0, symName: '__ZN4core3ptr606drop_in_place$LT$core..iter..adapters..map..map_fold$LT$$RF$_core..db..StagedFileRecord$C$alloc..string..String$C$$LP$$RP$$C$_core..python..PyDataManager..status..$u7b$$u7b$closure$u7d$$u7d$$C$core..iter..traits..iterator..Iterator..for_each..call$LT$alloc..string..String$C$alloc..vec..Vec$LT$alloc..string..String$GT$..extend_trusted$LT$core..iter..adapters..map..Map$LT$core..slice..iter..Iter$LT$_core..db..StagedFileRecord$GT$$C$_core..python..PyDataManager..status..$u7b$$u7b$closure$u7d$$u7d$$GT$$GT$..$u7b$$u7b$closure$u7d$$u7d$$GT$..$u7b$$u7b$closure$u7d$$u7d$$GT$..$u7b$$u7b$closure$u7d$$u7d$$GT$17h9fea51075569d439E', symObjAddr: 0x5DA8, symBinAddr: 0x40AB4, symSize: 0x24 }
  - { offset: 0x97C40, size: 0x8, addend: 0x0, symName: '__ZN4core3ptr60drop_in_place$LT$$u5b$std..path..PathBuf$u3b$$u20$1$u5d$$GT$17h75a720e68874a37cE', symObjAddr: 0x5DCC, symBinAddr: 0x40AD8, symSize: 0xB4 }
  - { offset: 0x97C6F, size: 0x8, addend: 0x0, symName: '__ZN4core3ptr60drop_in_place$LT$$u5b$std..path..PathBuf$u3b$$u20$2$u5d$$GT$17h8a67137f26b417a6E', symObjAddr: 0x5E80, symBinAddr: 0x40B8C, symSize: 0xB4 }
  - { offset: 0x97C9E, size: 0x8, addend: 0x0, symName: '__ZN4core3ptr610drop_in_place$LT$core..iter..adapters..map..map_fold$LT$$RF$_core..db..DatasetInfo$C$alloc..string..String$C$$LP$$RP$$C$_core..python..PyDataManager..list_datasets..$u7b$$u7b$closure$u7d$$u7d$$C$core..iter..traits..iterator..Iterator..for_each..call$LT$alloc..string..String$C$alloc..vec..Vec$LT$alloc..string..String$GT$..extend_trusted$LT$core..iter..adapters..map..Map$LT$core..slice..iter..Iter$LT$_core..db..DatasetInfo$GT$$C$_core..python..PyDataManager..list_datasets..$u7b$$u7b$closure$u7d$$u7d$$GT$$GT$..$u7b$$u7b$closure$u7d$$u7d$$GT$..$u7b$$u7b$closure$u7d$$u7d$$GT$..$u7b$$u7b$closure$u7d$$u7d$$GT$17h643e3375b26c5c2cE', symObjAddr: 0x5F34, symBinAddr: 0x40C40, symSize: 0x24 }
  - { offset: 0x97CCD, size: 0x8, addend: 0x0, symName: '__ZN4core3ptr613drop_in_place$LT$core..iter..adapters..map..map_fold$LT$$RF$_core..dataset..MissionState$C$_core..python..PyMission$C$$LP$$RP$$C$_core..python..PyDataset..missions..$u7b$$u7b$closure$u7d$$u7d$$C$core..iter..traits..iterator..Iterator..for_each..call$LT$_core..python..PyMission$C$alloc..vec..Vec$LT$_core..python..PyMission$GT$..extend_trusted$LT$core..iter..adapters..map..Map$LT$core..slice..iter..Iter$LT$_core..dataset..MissionState$GT$$C$_core..python..PyDataset..missions..$u7b$$u7b$closure$u7d$$u7d$$GT$$GT$..$u7b$$u7b$closure$u7d$$u7d$$GT$..$u7b$$u7b$closure$u7d$$u7d$$GT$..$u7b$$u7b$closure$u7d$$u7d$$GT$17h134bd34a6b0f9602E', symObjAddr: 0x5F58, symBinAddr: 0x40C64, symSize: 0x24 }
  - { offset: 0x97CFC, size: 0x8, addend: 0x0, symName: '__ZN4core3ptr617drop_in_place$LT$rayon_core..job..StackJob$LT$rayon_core..latch..SpinLatch$C$rayon_core..join..join_context..call_b$LT$$LP$$RP$$C$rayon..iter..plumbing..bridge_producer_consumer..helper$LT$rayon..slice..IterProducer$LT$$LP$$RF$alloc..string..String$C$$RF$_core..manifest..ManifestEntry$RP$$GT$$C$rayon..iter..for_each..ForEachConsumer$LT$_core..dataset..duplicate_dataset_with_progress$LT$_core..python..PyDataManager..push_with_progress..$u7b$$u7b$closure$u7d$$u7d$..$u7b$$u7b$closure$u7d$$u7d$$GT$..$u7b$$u7b$closure$u7d$$u7d$$GT$$GT$..$u7b$$u7b$closure$u7d$$u7d$$GT$..$u7b$$u7b$closure$u7d$$u7d$$C$$LP$$RP$$GT$$GT$17h109235a42691398aE', symObjAddr: 0x5F7C, symBinAddr: 0x40C88, symSize: 0x24 }
  - { offset: 0x97D2B, size: 0x8, addend: 0x0, symName: '__ZN4core3ptr61drop_in_place$LT$alloc..vec..Vec$LT$std..fs..DirEntry$GT$$GT$17h370a7501810feaa9E', symObjAddr: 0x5FA0, symBinAddr: 0x40CAC, symSize: 0x5C }
  - { offset: 0x97D5A, size: 0x8, addend: 0x0, symName: '__ZN4core3ptr62drop_in_place$LT$alloc..vec..Vec$LT$std..path..PathBuf$GT$$GT$17h89e0a91c5644adeaE', symObjAddr: 0x5FFC, symBinAddr: 0x40D08, symSize: 0x5C }
  - { offset: 0x97D89, size: 0x8, addend: 0x0, symName: '__ZN4core3ptr63drop_in_place$LT$alloc..vec..into_iter..IntoIter$LT$u16$GT$$GT$17hb21ca3b6cd5849bfE', symObjAddr: 0x6058, symBinAddr: 0x40D64, symSize: 0x24 }
  - { offset: 0x97DB8, size: 0x8, addend: 0x0, symName: '__ZN4core3ptr63drop_in_place$LT$rayon_core..job..JobResult$LT$$LP$$RP$$GT$$GT$17hda9eedabc3565611E', symObjAddr: 0x607C, symBinAddr: 0x40D88, symSize: 0x48 }
  - { offset: 0x97DE7, size: 0x8, addend: 0x0, symName: '__ZN4core3ptr647drop_in_place$LT$core..iter..adapters..map..map_fold$LT$$RF$alloc..string..String$C$std..path..PathBuf$C$$LP$$RP$$C$$LT$std..path..PathBuf$u20$as$u20$core..convert..From$LT$$RF$alloc..string..String$GT$$GT$..from$C$core..iter..traits..iterator..Iterator..for_each..call$LT$std..path..PathBuf$C$alloc..vec..Vec$LT$std..path..PathBuf$GT$..extend_trusted$LT$core..iter..adapters..map..Map$LT$core..slice..iter..Iter$LT$alloc..string..String$GT$$C$$LT$std..path..PathBuf$u20$as$u20$core..convert..From$LT$$RF$alloc..string..String$GT$$GT$..from$GT$$GT$..$u7b$$u7b$closure$u7d$$u7d$$GT$..$u7b$$u7b$closure$u7d$$u7d$$GT$..$u7b$$u7b$closure$u7d$$u7d$$GT$17h63dc771330c4aa54E', symObjAddr: 0x60C4, symBinAddr: 0x40DD0, symSize: 0x24 }
  - { offset: 0x97E16, size: 0x8, addend: 0x0, symName: '__ZN4core3ptr650drop_in_place$LT$core..iter..adapters..map..map_fold$LT$$RF$_core..dataset..MissionState$C$_core..ffi..MissionInfoJson$C$$LP$$RP$$C$_core..ffi..FfiDataManager..dataset_info_to_json..$u7b$$u7b$closure$u7d$$u7d$$C$core..iter..traits..iterator..Iterator..for_each..call$LT$_core..ffi..MissionInfoJson$C$alloc..vec..Vec$LT$_core..ffi..MissionInfoJson$GT$..extend_trusted$LT$core..iter..adapters..map..Map$LT$core..slice..iter..Iter$LT$_core..dataset..MissionState$GT$$C$_core..ffi..FfiDataManager..dataset_info_to_json..$u7b$$u7b$closure$u7d$$u7d$$GT$$GT$..$u7b$$u7b$closure$u7d$$u7d$$GT$..$u7b$$u7b$closure$u7d$$u7d$$GT$..$u7b$$u7b$closure$u7d$$u7d$$GT$17h3a51dd22015c6196E', symObjAddr: 0x60E8, symBinAddr: 0x40DF4, symSize: 0x24 }
  - { offset: 0x97E45, size: 0x8, addend: 0x0, symName: '__ZN4core3ptr65drop_in_place$LT$std..io..buffered..bufwriter..WriterPanicked$GT$17h291601acbf55c68aE', symObjAddr: 0x610C, symBinAddr: 0x40E18, symSize: 0x24 }
  - { offset: 0x97E74, size: 0x8, addend: 0x0, symName: '__ZN4core3ptr66drop_in_place$LT$alloc..vec..Vec$LT$_core..db..DatasetInfo$GT$$GT$17hbd7b74b63bd7725dE', symObjAddr: 0x6130, symBinAddr: 0x40E3C, symSize: 0x5C }
  - { offset: 0x97EA3, size: 0x8, addend: 0x0, symName: '__ZN4core3ptr67drop_in_place$LT$alloc..vec..Vec$LT$walkdir..dent..DirEntry$GT$$GT$17h00523344895a9db8E', symObjAddr: 0x618C, symBinAddr: 0x40E98, symSize: 0x5C }
  - { offset: 0x97ED2, size: 0x8, addend: 0x0, symName: '__ZN4core3ptr68drop_in_place$LT$alloc..raw_vec..RawVec$LT$std..fs..DirEntry$GT$$GT$17he191674bb9523e57E', symObjAddr: 0x61E8, symBinAddr: 0x40EF4, symSize: 0x24 }
  - { offset: 0x97F01, size: 0x8, addend: 0x0, symName: '__ZN4core3ptr68drop_in_place$LT$alloc..vec..Vec$LT$_core..db..MissionRecord$GT$$GT$17hc6ea87788fd869f0E', symObjAddr: 0x620C, symBinAddr: 0x40F18, symSize: 0x5C }
  - { offset: 0x97F30, size: 0x8, addend: 0x0, symName: '__ZN4core3ptr68drop_in_place$LT$alloc..vec..Vec$LT$_core..python..PyMission$GT$$GT$17h5098b0380de45683E', symObjAddr: 0x6268, symBinAddr: 0x40F74, symSize: 0x5C }
  - { offset: 0x97F5F, size: 0x8, addend: 0x0, symName: '__ZN4core3ptr68drop_in_place$LT$zip..write..MaybeEncrypted$LT$std..fs..File$GT$$GT$17he1acfcedd952d0beE', symObjAddr: 0x62C4, symBinAddr: 0x40FD0, symSize: 0x58 }
  - { offset: 0x97F8E, size: 0x8, addend: 0x0, symName: '__ZN4core3ptr69drop_in_place$LT$alloc..borrow..Cow$LT$core..ffi..c_str..CStr$GT$$GT$17h0c5557022ea7f16aE', symObjAddr: 0x631C, symBinAddr: 0x41028, symSize: 0x40 }
  - { offset: 0x97FBD, size: 0x8, addend: 0x0, symName: '__ZN4core3ptr69drop_in_place$LT$alloc..raw_vec..RawVec$LT$std..path..PathBuf$GT$$GT$17h664566473fbdeacaE', symObjAddr: 0x635C, symBinAddr: 0x41068, symSize: 0x24 }
  - { offset: 0x97FEC, size: 0x8, addend: 0x0, symName: '__ZN4core3ptr70drop_in_place$LT$core..array..iter..IntoIter$LT$u16$C$30_usize$GT$$GT$17h513b9faf6d9a46b0E', symObjAddr: 0x6380, symBinAddr: 0x4108C, symSize: 0x24 }
  - { offset: 0x9801B, size: 0x8, addend: 0x0, symName: '__ZN4core3ptr70drop_in_place$LT$core..cell..Ref$LT$alloc..ffi..c_str..CString$GT$$GT$17h71cb1cb4d5f45401E', symObjAddr: 0x63A4, symBinAddr: 0x410B0, symSize: 0x24 }
  - { offset: 0x9804A, size: 0x8, addend: 0x0, symName: '__ZN4core3ptr70drop_in_place$LT$zip..write..GenericZipWriter$LT$std..fs..File$GT$$GT$17hdfc8989f75dfddcaE', symObjAddr: 0x63C8, symBinAddr: 0x410D4, symSize: 0xB8 }
  - { offset: 0x98079, size: 0x8, addend: 0x0, symName: '__ZN4core3ptr716drop_in_place$LT$core..iter..adapters..map..map_fold$LT$$RF$_core..db..StagedFileRecord$C$_core..python..PyStagedFile$C$$LP$$RP$$C$$LT$_core..python..PyStagedFile$u20$as$u20$core..convert..From$LT$$RF$_core..db..StagedFileRecord$GT$$GT$..from$C$core..iter..traits..iterator..Iterator..for_each..call$LT$_core..python..PyStagedFile$C$alloc..vec..Vec$LT$_core..python..PyStagedFile$GT$..extend_trusted$LT$core..iter..adapters..map..Map$LT$core..slice..iter..Iter$LT$_core..db..StagedFileRecord$GT$$C$$LT$_core..python..PyStagedFile$u20$as$u20$core..convert..From$LT$$RF$_core..db..StagedFileRecord$GT$$GT$..from$GT$$GT$..$u7b$$u7b$closure$u7d$$u7d$$GT$..$u7b$$u7b$closure$u7d$$u7d$$GT$..$u7b$$u7b$closure$u7d$$u7d$$GT$17h3a5b807d02036179E', symObjAddr: 0x6480, symBinAddr: 0x4118C, symSize: 0x24 }
  - { offset: 0x980A8, size: 0x8, addend: 0x0, symName: '__ZN4core3ptr71drop_in_place$LT$$LP$std..path..PathBuf$C$alloc..string..String$RP$$GT$17h57f6b508eb6e9d3eE', symObjAddr: 0x64A4, symBinAddr: 0x411B0, symSize: 0x60 }
  - { offset: 0x980D7, size: 0x8, addend: 0x0, symName: '__ZN4core3ptr71drop_in_place$LT$alloc..vec..Vec$LT$_core..db..StagedFileRecord$GT$$GT$17h5e683ee55c33f599E', symObjAddr: 0x6504, symBinAddr: 0x41210, symSize: 0x5C }
  - { offset: 0x98106, size: 0x8, addend: 0x0, symName: '__ZN4core3ptr71drop_in_place$LT$alloc..vec..Vec$LT$_core..ffi..DatasetInfoJson$GT$$GT$17h2ee45e8ae50e36b9E', symObjAddr: 0x6560, symBinAddr: 0x4126C, symSize: 0x5C }
  - { offset: 0x98135, size: 0x8, addend: 0x0, symName: '__ZN4core3ptr71drop_in_place$LT$alloc..vec..Vec$LT$_core..ffi..MissionInfoJson$GT$$GT$17hddbb368915731bc3E', symObjAddr: 0x65BC, symBinAddr: 0x412C8, symSize: 0x5C }
  - { offset: 0x98164, size: 0x8, addend: 0x0, symName: '__ZN4core3ptr71drop_in_place$LT$alloc..vec..Vec$LT$_core..python..PyStagedFile$GT$$GT$17h3fbec9eea17d68bfE', symObjAddr: 0x6618, symBinAddr: 0x41324, symSize: 0x5C }
  - { offset: 0x98193, size: 0x8, addend: 0x0, symName: '__ZN4core3ptr71drop_in_place$LT$pyo3..instance..Py$LT$_core..python..PyDataset$GT$$GT$17h580accc978235dbcE', symObjAddr: 0x6674, symBinAddr: 0x41380, symSize: 0x2C }
  - { offset: 0x981C2, size: 0x8, addend: 0x0, symName: '__ZN4core3ptr71drop_in_place$LT$pyo3..instance..Py$LT$_core..python..PyMission$GT$$GT$17hefdd9068cd56d076E', symObjAddr: 0x66A0, symBinAddr: 0x413AC, symSize: 0x2C }
  - { offset: 0x981F1, size: 0x8, addend: 0x0, symName: '__ZN4core3ptr72drop_in_place$LT$alloc..boxed..Box$LT$_core..ffi..FfiDataManager$GT$$GT$17h7b20620be331c4e6E', symObjAddr: 0x66CC, symBinAddr: 0x413D8, symSize: 0x60 }
  - { offset: 0x98220, size: 0x8, addend: 0x0, symName: '__ZN4core3ptr72drop_in_place$LT$alloc..vec..Vec$LT$_core..dataset..MissionState$GT$$GT$17hbead2d437b4cf31dE', symObjAddr: 0x672C, symBinAddr: 0x41438, symSize: 0x5C }
  - { offset: 0x9824F, size: 0x8, addend: 0x0, symName: '__ZN4core3ptr72drop_in_place$LT$core..option..Option$LT$_core..errors..E4EError$GT$$GT$17h79a507a609580f5eE', symObjAddr: 0x6788, symBinAddr: 0x41494, symSize: 0x4C }
  - { offset: 0x9827E, size: 0x8, addend: 0x0, symName: '__ZN4core3ptr72drop_in_place$LT$core..result..Result$LT$bool$C$pyo3..err..PyErr$GT$$GT$17h621042a54f9ed72cE', symObjAddr: 0x67D4, symBinAddr: 0x414E0, symSize: 0x40 }
  - { offset: 0x982AD, size: 0x8, addend: 0x0, symName: '__ZN4core3ptr72drop_in_place$LT$pyo3..pycell..PyRef$LT$_core..python..PyDataset$GT$$GT$17h740a75f2a87bf544E', symObjAddr: 0x6814, symBinAddr: 0x41520, symSize: 0x5C }
  - { offset: 0x982DC, size: 0x8, addend: 0x0, symName: '__ZN4core3ptr72drop_in_place$LT$pyo3..pycell..PyRef$LT$_core..python..PyMission$GT$$GT$17h03c0d8257a338a01E', symObjAddr: 0x6870, symBinAddr: 0x4157C, symSize: 0x5C }
  - { offset: 0x9830B, size: 0x8, addend: 0x0, symName: '__ZN4core3ptr72drop_in_place$LT$std..collections..hash..set..HashSet$LT$$RF$str$GT$$GT$17hda52359b177177f9E', symObjAddr: 0x68CC, symBinAddr: 0x415D8, symSize: 0x24 }
  - { offset: 0x9833A, size: 0x8, addend: 0x0, symName: '__ZN4core3ptr731drop_in_place$LT$rayon..iter..map..MapFolder$LT$rayon..iter..map..MapFolder$LT$rayon..iter..while_some..WhileSomeFolder$LT$rayon..iter..extend..ListVecFolder$LT$$LP$alloc..string..String$C$core..option..Option$LT$alloc..string..String$GT$$RP$$GT$$GT$$C$rayon..result..$LT$impl$u20$rayon..iter..FromParallelIterator$LT$core..result..Result$LT$T$C$E$GT$$GT$$u20$for$u20$core..result..Result$LT$C$C$E$GT$$GT$..from_par_iter..ok$LT$$LP$alloc..string..String$C$core..option..Option$LT$alloc..string..String$GT$$RP$$C$_core..errors..E4EError$GT$..$u7b$$u7b$closure$u7d$$u7d$$GT$$C$_core..manifest..collect_validation_failures_with_progress$LT$_core..ffi..e4e_validate..$u7b$$u7b$closure$u7d$$u7d$$GT$..$u7b$$u7b$closure$u7d$$u7d$$GT$$GT$17h9644872e4883bb73E', symObjAddr: 0x68F0, symBinAddr: 0x415FC, symSize: 0x24 }
  - { offset: 0x98369, size: 0x8, addend: 0x0, symName: '__ZN4core3ptr73drop_in_place$LT$alloc..raw_vec..RawVec$LT$_core..db..DatasetInfo$GT$$GT$17h3d6ca538b75d68d1E', symObjAddr: 0x6914, symBinAddr: 0x41620, symSize: 0x24 }
  - { offset: 0x98398, size: 0x8, addend: 0x0, symName: '__ZN4core3ptr73drop_in_place$LT$core..cell..RefMut$LT$alloc..ffi..c_str..CString$GT$$GT$17h5f0079dcf719245dE', symObjAddr: 0x6938, symBinAddr: 0x41644, symSize: 0x24 }
  - { offset: 0x983C7, size: 0x8, addend: 0x0, symName: '__ZN4core3ptr73drop_in_place$LT$core..result..Result$LT$usize$C$pyo3..err..PyErr$GT$$GT$17h64d0c51f71ab6c8eE', symObjAddr: 0x695C, symBinAddr: 0x41668, symSize: 0x40 }
  - { offset: 0x983F6, size: 0x8, addend: 0x0, symName: '__ZN4core3ptr73drop_in_place$LT$zip..zipcrypto..ZipCryptoWriter$LT$std..fs..File$GT$$GT$17he54c12ca2184f290E', symObjAddr: 0x699C, symBinAddr: 0x416A8, symSize: 0x5C }
  - { offset: 0x98425, size: 0x8, addend: 0x0, symName: '__ZN4core3ptr742drop_in_place$LT$rayon..iter..map..MapFolder$LT$rayon..iter..map..MapFolder$LT$rayon..iter..while_some..WhileSomeFolder$LT$rayon..iter..collect..consumer..CollectResult$LT$$LP$alloc..string..String$C$core..option..Option$LT$alloc..string..String$GT$$RP$$GT$$GT$$C$rayon..result..$LT$impl$u20$rayon..iter..FromParallelIterator$LT$core..result..Result$LT$T$C$E$GT$$GT$$u20$for$u20$core..result..Result$LT$C$C$E$GT$$GT$..from_par_iter..ok$LT$$LP$alloc..string..String$C$core..option..Option$LT$alloc..string..String$GT$$RP$$C$_core..errors..E4EError$GT$..$u7b$$u7b$closure$u7d$$u7d$$GT$$C$_core..manifest..collect_validation_failures_with_progress$LT$_core..ffi..e4e_validate..$u7b$$u7b$closure$u7d$$u7d$$GT$..$u7b$$u7b$closure$u7d$$u7d$$GT$$GT$17heacd365d3229d248E', symObjAddr: 0x69F8, symBinAddr: 0x41704, symSize: 0x24 }
  - { offset: 0x98454, size: 0x8, addend: 0x0, symName: '__ZN4core3ptr745drop_in_place$LT$rayon..iter..map..MapFolder$LT$rayon..iter..map..MapFolder$LT$rayon..iter..while_some..WhileSomeFolder$LT$rayon..iter..extend..ListVecFolder$LT$$LP$alloc..string..String$C$core..option..Option$LT$alloc..string..String$GT$$RP$$GT$$GT$$C$rayon..result..$LT$impl$u20$rayon..iter..FromParallelIterator$LT$core..result..Result$LT$T$C$E$GT$$GT$$u20$for$u20$core..result..Result$LT$C$C$E$GT$$GT$..from_par_iter..ok$LT$$LP$alloc..string..String$C$core..option..Option$LT$alloc..string..String$GT$$RP$$C$_core..errors..E4EError$GT$..$u7b$$u7b$closure$u7d$$u7d$$GT$$C$_core..manifest..collect_validation_failures_with_progress$LT$_core..ffi..e4e_validate_with_progress..$u7b$$u7b$closure$u7d$$u7d$$GT$..$u7b$$u7b$closure$u7d$$u7d$$GT$$GT$17hfb57ec59d199585bE', symObjAddr: 0x6A1C, symBinAddr: 0x41728, symSize: 0x24 }
  - { offset: 0x98483, size: 0x8, addend: 0x0, symName: '__ZN4core3ptr748drop_in_place$LT$rayon..iter..map..MapFolder$LT$rayon..iter..map..MapFolder$LT$rayon..iter..while_some..WhileSomeFolder$LT$rayon..iter..extend..ListVecFolder$LT$$LP$alloc..string..String$C$core..option..Option$LT$alloc..string..String$GT$$RP$$GT$$GT$$C$rayon..result..$LT$impl$u20$rayon..iter..FromParallelIterator$LT$core..result..Result$LT$T$C$E$GT$$GT$$u20$for$u20$core..result..Result$LT$C$C$E$GT$$GT$..from_par_iter..ok$LT$$LP$alloc..string..String$C$core..option..Option$LT$alloc..string..String$GT$$RP$$C$_core..errors..E4EError$GT$..$u7b$$u7b$closure$u7d$$u7d$$GT$$C$_core..manifest..collect_validation_failures_with_progress$LT$_core..dataset..validate_dataset_failures..$u7b$$u7b$closure$u7d$$u7d$$GT$..$u7b$$u7b$closure$u7d$$u7d$$GT$$GT$17h5615e782893b3a95E', symObjAddr: 0x6A40, symBinAddr: 0x4174C, symSize: 0x24 }
  - { offset: 0x984B2, size: 0x8, addend: 0x0, symName: '__ZN4core3ptr74drop_in_place$LT$alloc..raw_vec..RawVec$LT$walkdir..dent..DirEntry$GT$$GT$17hda1115d9b2749193E', symObjAddr: 0x6A64, symBinAddr: 0x41770, symSize: 0x24 }
  - { offset: 0x984E1, size: 0x8, addend: 0x0, symName: '__ZN4core3ptr74drop_in_place$LT$core..cell..RefCell$LT$alloc..ffi..c_str..CString$GT$$GT$17haefaaf31637bc5abE', symObjAddr: 0x6A88, symBinAddr: 0x41794, symSize: 0x24 }
  - { offset: 0x98510, size: 0x8, addend: 0x0, symName: '__ZN4core3ptr74drop_in_place$LT$pyo3..instance..Bound$LT$_core..python..PyDataset$GT$$GT$17h9678b68fe4febd69E', symObjAddr: 0x6AAC, symBinAddr: 0x417B8, symSize: 0x24 }
  - { offset: 0x9853F, size: 0x8, addend: 0x0, symName: '__ZN4core3ptr74drop_in_place$LT$pyo3..instance..Bound$LT$_core..python..PyMission$GT$$GT$17h27032a910d0fd330E', symObjAddr: 0x6AD0, symBinAddr: 0x417DC, symSize: 0x24 }
  - { offset: 0x9856E, size: 0x8, addend: 0x0, symName: '__ZN4core3ptr74drop_in_place$LT$pyo3..instance..Py$LT$_core..python..PyStagedFile$GT$$GT$17hd5d49c0a1fbb2d6fE', symObjAddr: 0x6AF4, symBinAddr: 0x41800, symSize: 0x2C }
  - { offset: 0x9859D, size: 0x8, addend: 0x0, symName: '__ZN4core3ptr756drop_in_place$LT$rayon..iter..map..MapFolder$LT$rayon..iter..map..MapFolder$LT$rayon..iter..while_some..WhileSomeFolder$LT$rayon..iter..collect..consumer..CollectResult$LT$$LP$alloc..string..String$C$core..option..Option$LT$alloc..string..String$GT$$RP$$GT$$GT$$C$rayon..result..$LT$impl$u20$rayon..iter..FromParallelIterator$LT$core..result..Result$LT$T$C$E$GT$$GT$$u20$for$u20$core..result..Result$LT$C$C$E$GT$$GT$..from_par_iter..ok$LT$$LP$alloc..string..String$C$core..option..Option$LT$alloc..string..String$GT$$RP$$C$_core..errors..E4EError$GT$..$u7b$$u7b$closure$u7d$$u7d$$GT$$C$_core..manifest..collect_validation_failures_with_progress$LT$_core..ffi..e4e_validate_with_progress..$u7b$$u7b$closure$u7d$$u7d$$GT$..$u7b$$u7b$closure$u7d$$u7d$$GT$$GT$17h5aa6d1219a74cb20E', symObjAddr: 0x6B20, symBinAddr: 0x4182C, symSize: 0x24 }
  - { offset: 0x985CC, size: 0x8, addend: 0x0, symName: '__ZN4core3ptr759drop_in_place$LT$rayon..iter..map..MapFolder$LT$rayon..iter..map..MapFolder$LT$rayon..iter..while_some..WhileSomeFolder$LT$rayon..iter..collect..consumer..CollectResult$LT$$LP$alloc..string..String$C$core..option..Option$LT$alloc..string..String$GT$$RP$$GT$$GT$$C$rayon..result..$LT$impl$u20$rayon..iter..FromParallelIterator$LT$core..result..Result$LT$T$C$E$GT$$GT$$u20$for$u20$core..result..Result$LT$C$C$E$GT$$GT$..from_par_iter..ok$LT$$LP$alloc..string..String$C$core..option..Option$LT$alloc..string..String$GT$$RP$$C$_core..errors..E4EError$GT$..$u7b$$u7b$closure$u7d$$u7d$$GT$$C$_core..manifest..collect_validation_failures_with_progress$LT$_core..dataset..validate_dataset_failures..$u7b$$u7b$closure$u7d$$u7d$$GT$..$u7b$$u7b$closure$u7d$$u7d$$GT$$GT$17ha09b640f166a205eE', symObjAddr: 0x6B44, symBinAddr: 0x41850, symSize: 0x24 }
  - { offset: 0x985FB, size: 0x8, addend: 0x0, symName: '__ZN4core3ptr75drop_in_place$LT$alloc..raw_vec..RawVec$LT$_core..db..MissionRecord$GT$$GT$17h4ff473ca5e6e01d1E', symObjAddr: 0x6B68, symBinAddr: 0x41874, symSize: 0x24 }
  - { offset: 0x9862A, size: 0x8, addend: 0x0, symName: '__ZN4core3ptr75drop_in_place$LT$alloc..raw_vec..RawVec$LT$_core..python..PyMission$GT$$GT$17hcc4753ab8df2c2cdE', symObjAddr: 0x6B8C, symBinAddr: 0x41898, symSize: 0x24 }
  - { offset: 0x98659, size: 0x8, addend: 0x0, symName: '__ZN4core3ptr75drop_in_place$LT$core..cell..UnsafeCell$LT$_core..python..PyDataset$GT$$GT$17hb666f5e9c32ef7d4E', symObjAddr: 0x6BB0, symBinAddr: 0x418BC, symSize: 0x24 }
  - { offset: 0x98688, size: 0x8, addend: 0x0, symName: '__ZN4core3ptr75drop_in_place$LT$core..cell..UnsafeCell$LT$_core..python..PyMission$GT$$GT$17hf7605ccf78aec989E', symObjAddr: 0x6BD4, symBinAddr: 0x418E0, symSize: 0x24 }
  - { offset: 0x986B7, size: 0x8, addend: 0x0, symName: '__ZN4core3ptr75drop_in_place$LT$pyo3..instance..Py$LT$_core..python..PyDataManager$GT$$GT$17hc857e39e53586ac1E', symObjAddr: 0x6BF8, symBinAddr: 0x41904, symSize: 0x2C }
  - { offset: 0x986E6, size: 0x8, addend: 0x0, symName: '__ZN4core3ptr75drop_in_place$LT$pyo3..pycell..PyRef$LT$_core..python..PyStagedFile$GT$$GT$17h3d46c5dbcc4b3263E', symObjAddr: 0x6C24, symBinAddr: 0x41930, symSize: 0x5C }
  - { offset: 0x98715, size: 0x8, addend: 0x0, symName: '__ZN4core3ptr75drop_in_place$LT$zip..write..zip_writer..ZipWriter$LT$std..fs..File$GT$$GT$17h5060f47c9ad3654bE', symObjAddr: 0x6C80, symBinAddr: 0x4198C, symSize: 0xE8 }
  - { offset: 0x98744, size: 0x8, addend: 0x0, symName: '__ZN4core3ptr76drop_in_place$LT$_core..ffi..set_last_error..$u7b$$u7b$closure$u7d$$u7d$$GT$17h469a829e0ca149c5E', symObjAddr: 0x6D68, symBinAddr: 0x41A74, symSize: 0x24 }
  - { offset: 0x98773, size: 0x8, addend: 0x0, symName: '__ZN4core3ptr76drop_in_place$LT$pyo3..pycell..PyRef$LT$_core..python..PyDataManager$GT$$GT$17hf9dc587eafa1bedeE', symObjAddr: 0x6D8C, symBinAddr: 0x41A98, symSize: 0x5C }
  - { offset: 0x987A2, size: 0x8, addend: 0x0, symName: '__ZN4core3ptr77drop_in_place$LT$core..cell..UnsafeCell$LT$alloc..ffi..c_str..CString$GT$$GT$17hb2c60dea62fd9d89E', symObjAddr: 0x6DE8, symBinAddr: 0x41AF4, symSize: 0x24 }
  - { offset: 0x987D1, size: 0x8, addend: 0x0, symName: '__ZN4core3ptr77drop_in_place$LT$core..option..Option$LT$_core..dataset..DatasetState$GT$$GT$17h9633ca697315511aE', symObjAddr: 0x6E0C, symBinAddr: 0x41B18, symSize: 0x48 }
  - { offset: 0x98800, size: 0x8, addend: 0x0, symName: '__ZN4core3ptr77drop_in_place$LT$pyo3..instance..Bound$LT$_core..python..PyStagedFile$GT$$GT$17h8c7f8d0f55bb126bE', symObjAddr: 0x6E54, symBinAddr: 0x41B60, symSize: 0x24 }
  - { offset: 0x9882F, size: 0x8, addend: 0x0, symName: '__ZN4core3ptr78drop_in_place$LT$alloc..raw_vec..RawVec$LT$_core..db..StagedFileRecord$GT$$GT$17hb13acc712b7ac95eE', symObjAddr: 0x6E78, symBinAddr: 0x41B84, symSize: 0x24 }
  - { offset: 0x9885E, size: 0x8, addend: 0x0, symName: '__ZN4core3ptr78drop_in_place$LT$alloc..raw_vec..RawVec$LT$_core..ffi..DatasetInfoJson$GT$$GT$17h552d34de0905400fE', symObjAddr: 0x6E9C, symBinAddr: 0x41BA8, symSize: 0x24 }
  - { offset: 0x9888D, size: 0x8, addend: 0x0, symName: '__ZN4core3ptr78drop_in_place$LT$alloc..raw_vec..RawVec$LT$_core..ffi..MissionInfoJson$GT$$GT$17hd8a3809798eb5b41E', symObjAddr: 0x6EC0, symBinAddr: 0x41BCC, symSize: 0x24 }
  - { offset: 0x988BC, size: 0x8, addend: 0x0, symName: '__ZN4core3ptr78drop_in_place$LT$alloc..raw_vec..RawVec$LT$_core..python..PyStagedFile$GT$$GT$17h4e2328b402b3d6f1E', symObjAddr: 0x6EE4, symBinAddr: 0x41BF0, symSize: 0x24 }
  - { offset: 0x988EB, size: 0x8, addend: 0x0, symName: '__ZN4core3ptr78drop_in_place$LT$core..cell..UnsafeCell$LT$_core..python..PyStagedFile$GT$$GT$17hf94ae5cb349d18cfE', symObjAddr: 0x6F08, symBinAddr: 0x41C14, symSize: 0x24 }
  - { offset: 0x9891A, size: 0x8, addend: 0x0, symName: '__ZN4core3ptr78drop_in_place$LT$core..result..Result$LT$i64$C$_core..errors..E4EError$GT$$GT$17hf881ed3db0d1dc75E', symObjAddr: 0x6F2C, symBinAddr: 0x41C38, symSize: 0x4C }
  - { offset: 0x98949, size: 0x8, addend: 0x0, symName: '__ZN4core3ptr78drop_in_place$LT$pyo3..instance..Bound$LT$_core..python..PyDataManager$GT$$GT$17h203006ab2eca48a9E', symObjAddr: 0x6F78, symBinAddr: 0x41C84, symSize: 0x24 }
  - { offset: 0x98978, size: 0x8, addend: 0x0, symName: '__ZN4core3ptr797drop_in_place$LT$rayon..iter..map..MapFolder$LT$rayon..iter..map..MapFolder$LT$rayon..iter..while_some..WhileSomeFolder$LT$rayon..iter..extend..ListVecFolder$LT$$LP$alloc..string..String$C$core..option..Option$LT$alloc..string..String$GT$$RP$$GT$$GT$$C$rayon..result..$LT$impl$u20$rayon..iter..FromParallelIterator$LT$core..result..Result$LT$T$C$E$GT$$GT$$u20$for$u20$core..result..Result$LT$C$C$E$GT$$GT$..from_par_iter..ok$LT$$LP$alloc..string..String$C$core..option..Option$LT$alloc..string..String$GT$$RP$$C$_core..errors..E4EError$GT$..$u7b$$u7b$closure$u7d$$u7d$$GT$$C$_core..manifest..collect_validation_failures_with_progress$LT$_core..python..PyDataManager..validate_failures_with_progress..$u7b$$u7b$closure$u7d$$u7d$..$u7b$$u7b$closure$u7d$$u7d$$GT$..$u7b$$u7b$closure$u7d$$u7d$$GT$$GT$17hdfaf2863012f19aeE', symObjAddr: 0x6F9C, symBinAddr: 0x41CA8, symSize: 0x24 }
  - { offset: 0x989A7, size: 0x8, addend: 0x0, symName: '__ZN4core3ptr79drop_in_place$LT$alloc..raw_vec..RawVec$LT$_core..dataset..MissionState$GT$$GT$17he3daf9a1f9f7aae8E', symObjAddr: 0x6FC0, symBinAddr: 0x41CCC, symSize: 0x24 }
  - { offset: 0x989D6, size: 0x8, addend: 0x0, symName: '__ZN4core3ptr79drop_in_place$LT$core..cell..UnsafeCell$LT$_core..python..PyDataManager$GT$$GT$17hab109118fa554badE', symObjAddr: 0x6FE4, symBinAddr: 0x41CF0, symSize: 0x24 }
  - { offset: 0x98A05, size: 0x8, addend: 0x0, symName: '__ZN4core3ptr79drop_in_place$LT$core..option..Option$LT$_core..manifest..ManifestEntry$GT$$GT$17hf26aeb4e0ea706f0E', symObjAddr: 0x7008, symBinAddr: 0x41D14, symSize: 0x48 }
  - { offset: 0x98A34, size: 0x8, addend: 0x0, symName: '__ZN4core3ptr79drop_in_place$LT$core..result..Result$LT$bool$C$_core..errors..E4EError$GT$$GT$17h90bca487f1325b57E', symObjAddr: 0x7050, symBinAddr: 0x41D5C, symSize: 0x4C }
  - { offset: 0x98A63, size: 0x8, addend: 0x0, symName: '__ZN4core3ptr79drop_in_place$LT$hashbrown..raw..RawTable$LT$$LP$$RF$str$C$$LP$$RP$$RP$$GT$$GT$17h2b08929adf313fa6E', symObjAddr: 0x709C, symBinAddr: 0x41DA8, symSize: 0x24 }
  - { offset: 0x98A92, size: 0x8, addend: 0x0, symName: '__ZN4core3ptr79drop_in_place$LT$pyo3..pycell..PyRefMut$LT$_core..python..PyDataManager$GT$$GT$17hd74b69bb9794a8a0E', symObjAddr: 0x70C0, symBinAddr: 0x41DCC, symSize: 0x5C }
  - { offset: 0x98AC1, size: 0x8, addend: 0x0, symName: '__ZN4core3ptr808drop_in_place$LT$rayon..iter..map..MapFolder$LT$rayon..iter..map..MapFolder$LT$rayon..iter..while_some..WhileSomeFolder$LT$rayon..iter..collect..consumer..CollectResult$LT$$LP$alloc..string..String$C$core..option..Option$LT$alloc..string..String$GT$$RP$$GT$$GT$$C$rayon..result..$LT$impl$u20$rayon..iter..FromParallelIterator$LT$core..result..Result$LT$T$C$E$GT$$GT$$u20$for$u20$core..result..Result$LT$C$C$E$GT$$GT$..from_par_iter..ok$LT$$LP$alloc..string..String$C$core..option..Option$LT$alloc..string..String$GT$$RP$$C$_core..errors..E4EError$GT$..$u7b$$u7b$closure$u7d$$u7d$$GT$$C$_core..manifest..collect_validation_failures_with_progress$LT$_core..python..PyDataManager..validate_failures_with_progress..$u7b$$u7b$closure$u7d$$u7d$..$u7b$$u7b$closure$u7d$$u7d$$GT$..$u7b$$u7b$closure$u7d$$u7d$$GT$$GT$17h4d414404161f73caE', symObjAddr: 0x711C, symBinAddr: 0x41E28, symSize: 0x24 }
  - { offset: 0x98AF0, size: 0x8, addend: 0x0, symName: '__ZN4core3ptr81drop_in_place$LT$$u5b$$LP$std..path..PathBuf$C$alloc..string..String$RP$$u5d$$GT$17h67c7f94443b5a401E', symObjAddr: 0x71A0, symBinAddr: 0x41E4C, symSize: 0xC4 }
  - { offset: 0x98B1F, size: 0x8, addend: 0x0, symName: '__ZN4core3ptr81drop_in_place$LT$alloc..vec..into_iter..IntoIter$LT$alloc..string..String$GT$$GT$17h61faaef9328802fdE', symObjAddr: 0x7264, symBinAddr: 0x41F10, symSize: 0x24 }
  - { offset: 0x98B4E, size: 0x8, addend: 0x0, symName: '__ZN4core3ptr81drop_in_place$LT$core..result..Result$LT$$LP$$RP$$C$zip..result..ZipError$GT$$GT$17hc2e1c91e9282844bE', symObjAddr: 0x7288, symBinAddr: 0x41F34, symSize: 0x44 }
  - { offset: 0x98B7D, size: 0x8, addend: 0x0, symName: '__ZN4core3ptr82drop_in_place$LT$core..ops..control_flow..ControlFlow$LT$std..fs..DirEntry$GT$$GT$17h6b0129d4179de342E', symObjAddr: 0x72CC, symBinAddr: 0x41F78, symSize: 0x44 }
  - { offset: 0x98BAC, size: 0x8, addend: 0x0, symName: '__ZN4core3ptr82drop_in_place$LT$rayon_core..job..JobResult$LT$$LP$$LP$$RP$$C$$LP$$RP$$RP$$GT$$GT$17h0e6e7e10f7a9d505E', symObjAddr: 0x7310, symBinAddr: 0x41FBC, symSize: 0x48 }
  - { offset: 0x98BDB, size: 0x8, addend: 0x0, symName: '__ZN4core3ptr83drop_in_place$LT$$LP$alloc..string..String$C$_core..manifest..ManifestEntry$RP$$GT$17h5f0911784a3b4876E', symObjAddr: 0x7358, symBinAddr: 0x42004, symSize: 0x60 }
  - { offset: 0x98C0A, size: 0x8, addend: 0x0, symName: '__ZN4core3ptr83drop_in_place$LT$core..result..Result$LT$$LP$$RP$$C$_core..errors..E4EError$GT$$GT$17h431d28b544277f5eE', symObjAddr: 0x73B8, symBinAddr: 0x42064, symSize: 0x4C }
  - { offset: 0x98C39, size: 0x8, addend: 0x0, symName: '__ZN4core3ptr84drop_in_place$LT$alloc..vec..into_iter..IntoIter$LT$_core..db..MissionRecord$GT$$GT$17h730e1177d54c4584E', symObjAddr: 0x7404, symBinAddr: 0x420B0, symSize: 0x24 }
  - { offset: 0x98C68, size: 0x8, addend: 0x0, symName: '__ZN4core3ptr84drop_in_place$LT$alloc..vec..into_iter..IntoIter$LT$_core..python..PyMission$GT$$GT$17h9bcccd1900c0df53E', symObjAddr: 0x7428, symBinAddr: 0x420D4, symSize: 0x24 }
  - { offset: 0x98C97, size: 0x8, addend: 0x0, symName: '__ZN4core3ptr85drop_in_place$LT$alloc..vec..in_place_drop..InPlaceDrop$LT$std..path..PathBuf$GT$$GT$17hd5a49850996feb4bE', symObjAddr: 0x744C, symBinAddr: 0x420F8, symSize: 0x24 }
  - { offset: 0x98CC6, size: 0x8, addend: 0x0, symName: '__ZN4core3ptr87drop_in_place$LT$alloc..vec..into_iter..IntoIter$LT$_core..python..PyStagedFile$GT$$GT$17hbb1b969d4663bd92E', symObjAddr: 0x7470, symBinAddr: 0x4211C, symSize: 0x24 }
  - { offset: 0x98CF5, size: 0x8, addend: 0x0, symName: '__ZN4core3ptr88drop_in_place$LT$core..ops..control_flow..ControlFlow$LT$walkdir..dent..DirEntry$GT$$GT$17he9e64a34250c370bE', symObjAddr: 0x7494, symBinAddr: 0x42140, symSize: 0x48 }
  - { offset: 0x98D24, size: 0x8, addend: 0x0, symName: '__ZN4core3ptr89drop_in_place$LT$core..result..Result$LT$alloc..string..String$C$pyo3..err..PyErr$GT$$GT$17h6c0845ad93ed4286E', symObjAddr: 0x74DC, symBinAddr: 0x42188, symSize: 0x50 }
  - { offset: 0x98D53, size: 0x8, addend: 0x0, symName: '__ZN4core3ptr89drop_in_place$LT$core..result..Result$LT$std..fs..ReadDir$C$std..io..error..Error$GT$$GT$17h72b9b3d7fb7809b2E', symObjAddr: 0x752C, symBinAddr: 0x421D8, symSize: 0x54 }
  - { offset: 0x98D82, size: 0x8, addend: 0x0, symName: '__ZN4core3ptr90drop_in_place$LT$core..result..Result$LT$std..fs..DirEntry$C$std..io..error..Error$GT$$GT$17h4f01abf7a6946e9dE', symObjAddr: 0x7580, symBinAddr: 0x4222C, symSize: 0x58 }
  - { offset: 0x98DB1, size: 0x8, addend: 0x0, symName: '__ZN4core3ptr90drop_in_place$LT$core..result..Result$LT$std..fs..Metadata$C$std..io..error..Error$GT$$GT$17hab1568f442a225b7E', symObjAddr: 0x75D8, symBinAddr: 0x42284, symSize: 0x40 }
  - { offset: 0x98DE0, size: 0x8, addend: 0x0, symName: '__ZN4core3ptr90drop_in_place$LT$std..io..buffered..bufwriter..BufWriter$LT$W$GT$..flush_buf..BufGuard$GT$17hfaaf4c8ddea5db9eE', symObjAddr: 0x7618, symBinAddr: 0x422C4, symSize: 0x24 }
  - { offset: 0x98E0F, size: 0x8, addend: 0x0, symName: '__ZN4core3ptr91drop_in_place$LT$pyo3..pyclass_init..PyClassInitializer$LT$_core..python..PyDataset$GT$$GT$17h84570104f073351dE', symObjAddr: 0x763C, symBinAddr: 0x422E8, symSize: 0x24 }
  - { offset: 0x98E3E, size: 0x8, addend: 0x0, symName: '__ZN4core3ptr91drop_in_place$LT$pyo3..pyclass_init..PyClassInitializer$LT$_core..python..PyMission$GT$$GT$17hc45f15b455ec74ceE', symObjAddr: 0x7660, symBinAddr: 0x4230C, symSize: 0x24 }
  - { offset: 0x98E6D, size: 0x8, addend: 0x0, symName: '__ZN4core3ptr92drop_in_place$LT$core..result..Result$LT$_core..python..PyDataset$C$pyo3..err..PyErr$GT$$GT$17hddad075bed369e31E', symObjAddr: 0x7684, symBinAddr: 0x42330, symSize: 0x5C }
  - { offset: 0x98E9C, size: 0x8, addend: 0x0, symName: '__ZN4core3ptr92drop_in_place$LT$hashbrown..set..HashSet$LT$$RF$str$C$std..hash..random..RandomState$GT$$GT$17h2d5c9a72169bc498E', symObjAddr: 0x76E0, symBinAddr: 0x4238C, symSize: 0x24 }
  - { offset: 0x98ECB, size: 0x8, addend: 0x0, symName: '__ZN4core3ptr93drop_in_place$LT$core..cell..UnsafeCell$LT$rayon_core..job..JobResult$LT$$LP$$RP$$GT$$GT$$GT$17hecea51aadec750a4E', symObjAddr: 0x7704, symBinAddr: 0x423B0, symSize: 0x24 }
  - { offset: 0x98EFA, size: 0x8, addend: 0x0, symName: '__ZN4core3ptr94drop_in_place$LT$alloc..vec..Vec$LT$$LP$std..path..PathBuf$C$alloc..string..String$RP$$GT$$GT$17h28b37489f53e8ca9E', symObjAddr: 0x7728, symBinAddr: 0x423D4, symSize: 0x5C }
  - { offset: 0x98F29, size: 0x8, addend: 0x0, symName: '__ZN4core3ptr94drop_in_place$LT$pyo3..pyclass_init..PyClassInitializer$LT$_core..python..PyStagedFile$GT$$GT$17hd156205469bdae7fE', symObjAddr: 0x7784, symBinAddr: 0x42430, symSize: 0x24 }
  - { offset: 0x98F58, size: 0x8, addend: 0x0, symName: '__ZN4core3ptr95drop_in_place$LT$pyo3..pyclass_init..PyClassInitializer$LT$_core..python..PyDataManager$GT$$GT$17ha57cafe60adcd757E', symObjAddr: 0x77A8, symBinAddr: 0x42454, symSize: 0x24 }
  - { offset: 0x98F87, size: 0x8, addend: 0x0, symName: '__ZN4core3ptr95drop_in_place$LT$pyo3..pyclass_init..PyClassInitializerImpl$LT$_core..python..PyDataset$GT$$GT$17h42f33e4fe1a9b22eE', symObjAddr: 0x77CC, symBinAddr: 0x42478, symSize: 0x58 }
  - { offset: 0x98FB6, size: 0x8, addend: 0x0, symName: '__ZN4core3ptr95drop_in_place$LT$pyo3..pyclass_init..PyClassInitializerImpl$LT$_core..python..PyMission$GT$$GT$17h573cd41a13a57ef8E', symObjAddr: 0x7824, symBinAddr: 0x424D0, symSize: 0x58 }
  - { offset: 0x98FE5, size: 0x8, addend: 0x0, symName: '__ZN4core3ptr96drop_in_place$LT$core..option..Option$LT$zip..write..MaybeEncrypted$LT$std..fs..File$GT$$GT$$GT$17haea05b69b9533583E', symObjAddr: 0x78A0, symBinAddr: 0x42528, symSize: 0x48 }
  - { offset: 0x99014, size: 0x8, addend: 0x0, symName: '__ZN4core3ptr96drop_in_place$LT$core..result..Result$LT$_core..python..PyDataManager$C$pyo3..err..PyErr$GT$$GT$17h504f4cad6eec9667E', symObjAddr: 0x78E8, symBinAddr: 0x42570, symSize: 0x5C }
  - { offset: 0x99043, size: 0x8, addend: 0x0, symName: '__ZN4core3ptr97drop_in_place$LT$core..option..Option$LT$alloc..borrow..Cow$LT$core..ffi..c_str..CStr$GT$$GT$$GT$17h9ebb439b3f2a0b2cE', symObjAddr: 0x7944, symBinAddr: 0x425CC, symSize: 0x44 }
  - { offset: 0x99072, size: 0x8, addend: 0x0, symName: '__ZN4core3ptr98drop_in_place$LT$_core..python..PyDataManager..push_with_progress..$u7b$$u7b$closure$u7d$$u7d$$GT$17h9b181dba19d21282E', symObjAddr: 0x7988, symBinAddr: 0x42610, symSize: 0x90 }
  - { offset: 0x990A1, size: 0x8, addend: 0x0, symName: '__ZN4core3ptr98drop_in_place$LT$pyo3..pyclass_init..PyClassInitializerImpl$LT$_core..python..PyStagedFile$GT$$GT$17hdac7adf771d6993eE', symObjAddr: 0x7A18, symBinAddr: 0x426A0, symSize: 0x58 }
  - { offset: 0x990D0, size: 0x8, addend: 0x0, symName: '__ZN4core3ptr99drop_in_place$LT$pyo3..pyclass_init..PyClassInitializerImpl$LT$_core..python..PyDataManager$GT$$GT$17he137c56992033aaeE', symObjAddr: 0x7A94, symBinAddr: 0x426F8, symSize: 0x58 }
  - { offset: 0x99463, size: 0x8, addend: 0x0, symName: __ZN4core6marker5FnPtr4addr17h08a3bf86e9e6ecf1E, symObjAddr: 0x7AEC, symBinAddr: 0x42750, symSize: 0x14 }
  - { offset: 0x9C551, size: 0x8, addend: 0x0, symName: __ZN4core3ops8function2Fn4call17ha277247c22b99f42E, symObjAddr: 0x918, symBinAddr: 0x3B864, symSize: 0x30 }
  - { offset: 0x9C59B, size: 0x8, addend: 0x0, symName: __ZN4core3ops8function5FnMut8call_mut17h0a1d18e886802b45E, symObjAddr: 0x948, symBinAddr: 0x3B894, symSize: 0x28 }
  - { offset: 0x9C5DF, size: 0x8, addend: 0x0, symName: __ZN4core3ops8function5FnMut8call_mut17h56ed229e232d0309E, symObjAddr: 0x970, symBinAddr: 0x3B8BC, symSize: 0x38 }
  - { offset: 0x9C623, size: 0x8, addend: 0x0, symName: __ZN4core3ops8function5FnMut8call_mut17h8aa04307cbe4feeaE, symObjAddr: 0x9A8, symBinAddr: 0x3B8F4, symSize: 0x28 }
  - { offset: 0x9C667, size: 0x8, addend: 0x0, symName: __ZN4core3ops8function5FnMut8call_mut17hc2787acf0235f8f9E, symObjAddr: 0x9D0, symBinAddr: 0x3B91C, symSize: 0x28 }
  - { offset: 0x9C6AB, size: 0x8, addend: 0x0, symName: __ZN4core3ops8function5FnMut8call_mut17hc299b482a7a31e08E, symObjAddr: 0x9F8, symBinAddr: 0x3B944, symSize: 0x70 }
  - { offset: 0x9C712, size: 0x8, addend: 0x0, symName: '__ZN4core3ops8function6FnOnce40call_once$u7b$$u7b$vtable.shim$u7d$$u7d$17h0122776ee45b17b7E', symObjAddr: 0xA68, symBinAddr: 0x3B9B4, symSize: 0x30 }
  - { offset: 0x9C756, size: 0x8, addend: 0x0, symName: '__ZN4core3ops8function6FnOnce40call_once$u7b$$u7b$vtable.shim$u7d$$u7d$17h01c48bb1678e5206E', symObjAddr: 0xA98, symBinAddr: 0x3B9E4, symSize: 0x4C }
  - { offset: 0x9C79A, size: 0x8, addend: 0x0, symName: '__ZN4core3ops8function6FnOnce40call_once$u7b$$u7b$vtable.shim$u7d$$u7d$17h1fea7dec98096625E', symObjAddr: 0xAE4, symBinAddr: 0x3BA30, symSize: 0x38 }
  - { offset: 0x9C7DE, size: 0x8, addend: 0x0, symName: '__ZN4core3ops8function6FnOnce40call_once$u7b$$u7b$vtable.shim$u7d$$u7d$17h2a0805f8272d8040E', symObjAddr: 0xB1C, symBinAddr: 0x3BA68, symSize: 0x24 }
  - { offset: 0x9C822, size: 0x8, addend: 0x0, symName: '__ZN4core3ops8function6FnOnce40call_once$u7b$$u7b$vtable.shim$u7d$$u7d$17h3826d4074d11e0d4E', symObjAddr: 0xB40, symBinAddr: 0x3BA8C, symSize: 0x38 }
  - { offset: 0x9C862, size: 0x8, addend: 0x0, symName: '__ZN4core3ops8function6FnOnce40call_once$u7b$$u7b$vtable.shim$u7d$$u7d$17h45ef37684c0e8f63E', symObjAddr: 0xB78, symBinAddr: 0x3BAC4, symSize: 0x38 }
  - { offset: 0x9C8A6, size: 0x8, addend: 0x0, symName: '__ZN4core3ops8function6FnOnce40call_once$u7b$$u7b$vtable.shim$u7d$$u7d$17h4ceaf53656b7e167E', symObjAddr: 0xBB0, symBinAddr: 0x3BAFC, symSize: 0x48 }
  - { offset: 0x9C8EA, size: 0x8, addend: 0x0, symName: '__ZN4core3ops8function6FnOnce40call_once$u7b$$u7b$vtable.shim$u7d$$u7d$17h591f054ad7be2824E', symObjAddr: 0xBF8, symBinAddr: 0x3BB44, symSize: 0x38 }
  - { offset: 0x9C92E, size: 0x8, addend: 0x0, symName: '__ZN4core3ops8function6FnOnce40call_once$u7b$$u7b$vtable.shim$u7d$$u7d$17h788ae475b9e52b28E', symObjAddr: 0xC30, symBinAddr: 0x3BB7C, symSize: 0x24 }
  - { offset: 0x9C972, size: 0x8, addend: 0x0, symName: '__ZN4core3ops8function6FnOnce40call_once$u7b$$u7b$vtable.shim$u7d$$u7d$17h84dcb71d96f8cf9bE', symObjAddr: 0xC54, symBinAddr: 0x3BBA0, symSize: 0x38 }
  - { offset: 0x9C9B6, size: 0x8, addend: 0x0, symName: '__ZN4core3ops8function6FnOnce40call_once$u7b$$u7b$vtable.shim$u7d$$u7d$17h87bd9291acc30033E', symObjAddr: 0xC8C, symBinAddr: 0x3BBD8, symSize: 0x38 }
  - { offset: 0x9C9FA, size: 0x8, addend: 0x0, symName: '__ZN4core3ops8function6FnOnce40call_once$u7b$$u7b$vtable.shim$u7d$$u7d$17h87e73cf64c265f27E', symObjAddr: 0xCC4, symBinAddr: 0x3BC10, symSize: 0x38 }
  - { offset: 0x9CA3E, size: 0x8, addend: 0x0, symName: '__ZN4core3ops8function6FnOnce40call_once$u7b$$u7b$vtable.shim$u7d$$u7d$17h8f2e686403ea08e6E', symObjAddr: 0xCFC, symBinAddr: 0x3BC48, symSize: 0x24 }
  - { offset: 0x9CA82, size: 0x8, addend: 0x0, symName: '__ZN4core3ops8function6FnOnce40call_once$u7b$$u7b$vtable.shim$u7d$$u7d$17h971ffaae648b3adbE', symObjAddr: 0xD20, symBinAddr: 0x3BC6C, symSize: 0x38 }
  - { offset: 0x9CAC6, size: 0x8, addend: 0x0, symName: '__ZN4core3ops8function6FnOnce40call_once$u7b$$u7b$vtable.shim$u7d$$u7d$17ha26baec83e454fc3E', symObjAddr: 0xD58, symBinAddr: 0x3BCA4, symSize: 0x30 }
  - { offset: 0x9CB0A, size: 0x8, addend: 0x0, symName: '__ZN4core3ops8function6FnOnce40call_once$u7b$$u7b$vtable.shim$u7d$$u7d$17haffbcb3c4a8c1c6dE', symObjAddr: 0xD88, symBinAddr: 0x3BCD4, symSize: 0x38 }
  - { offset: 0x9CB4E, size: 0x8, addend: 0x0, symName: '__ZN4core3ops8function6FnOnce40call_once$u7b$$u7b$vtable.shim$u7d$$u7d$17hb6a592352f572c1bE', symObjAddr: 0xDC0, symBinAddr: 0x3BD0C, symSize: 0x50 }
  - { offset: 0x9CB92, size: 0x8, addend: 0x0, symName: '__ZN4core3ops8function6FnOnce40call_once$u7b$$u7b$vtable.shim$u7d$$u7d$17hb70982b6cad60a8dE', symObjAddr: 0xE10, symBinAddr: 0x3BD5C, symSize: 0x38 }
  - { offset: 0x9CBD6, size: 0x8, addend: 0x0, symName: '__ZN4core3ops8function6FnOnce40call_once$u7b$$u7b$vtable.shim$u7d$$u7d$17hcbaf4ec28e9a40a1E', symObjAddr: 0xE48, symBinAddr: 0x3BD94, symSize: 0x30 }
  - { offset: 0x9CC16, size: 0x8, addend: 0x0, symName: '__ZN4core3ops8function6FnOnce40call_once$u7b$$u7b$vtable.shim$u7d$$u7d$17hf162716717e5b219E', symObjAddr: 0xE78, symBinAddr: 0x3BDC4, symSize: 0x38 }
  - { offset: 0x9CC5A, size: 0x8, addend: 0x0, symName: '__ZN4core3ops8function6FnOnce40call_once$u7b$$u7b$vtable.shim$u7d$$u7d$17hff374a11bcb0873cE', symObjAddr: 0xEB0, symBinAddr: 0x3BDFC, symSize: 0x24 }
  - { offset: 0x9CC9E, size: 0x8, addend: 0x0, symName: __ZN4core3ops8function6FnOnce9call_once17h03bab8ddfe10db1bE, symObjAddr: 0xED4, symBinAddr: 0x3BE20, symSize: 0x24 }
  - { offset: 0x9CCE2, size: 0x8, addend: 0x0, symName: __ZN4core3ops8function6FnOnce9call_once17h0ca1bf4cdea8b998E, symObjAddr: 0xEF8, symBinAddr: 0x3BE44, symSize: 0x24 }
  - { offset: 0x9CD26, size: 0x8, addend: 0x0, symName: __ZN4core3ops8function6FnOnce9call_once17h177f034648895592E, symObjAddr: 0xF1C, symBinAddr: 0x3BE68, symSize: 0x34 }
  - { offset: 0x9CD6A, size: 0x8, addend: 0x0, symName: __ZN4core3ops8function6FnOnce9call_once17h1a7a6105ac04f531E, symObjAddr: 0xF50, symBinAddr: 0x3BE9C, symSize: 0x24 }
  - { offset: 0x9CDAE, size: 0x8, addend: 0x0, symName: __ZN4core3ops8function6FnOnce9call_once17h1f125ef8cc50e09eE, symObjAddr: 0xF74, symBinAddr: 0x3BEC0, symSize: 0x58 }
  - { offset: 0x9CDF2, size: 0x8, addend: 0x0, symName: __ZN4core3ops8function6FnOnce9call_once17h21cf29d0e6aef2a5E, symObjAddr: 0xFCC, symBinAddr: 0x3BF18, symSize: 0x24 }
  - { offset: 0x9CE36, size: 0x8, addend: 0x0, symName: __ZN4core3ops8function6FnOnce9call_once17h228f50c5e7e1fa7fE, symObjAddr: 0xFF0, symBinAddr: 0x3BF3C, symSize: 0x3C }
  - { offset: 0x9CE7A, size: 0x8, addend: 0x0, symName: __ZN4core3ops8function6FnOnce9call_once17h23bb8158b527b717E, symObjAddr: 0x102C, symBinAddr: 0x3BF78, symSize: 0x3C }
  - { offset: 0x9CEBE, size: 0x8, addend: 0x0, symName: __ZN4core3ops8function6FnOnce9call_once17h24442c7e64431e3bE, symObjAddr: 0x1068, symBinAddr: 0x3BFB4, symSize: 0x3C }
  - { offset: 0x9CF02, size: 0x8, addend: 0x0, symName: __ZN4core3ops8function6FnOnce9call_once17h27f46388297983e6E, symObjAddr: 0x10A4, symBinAddr: 0x3BFF0, symSize: 0x2C }
  - { offset: 0x9CF46, size: 0x8, addend: 0x0, symName: __ZN4core3ops8function6FnOnce9call_once17h294dc5be61c6926cE, symObjAddr: 0x10D0, symBinAddr: 0x3C01C, symSize: 0x24 }
  - { offset: 0x9CF8A, size: 0x8, addend: 0x0, symName: __ZN4core3ops8function6FnOnce9call_once17h2e070a379e7dc2d6E, symObjAddr: 0x10F4, symBinAddr: 0x3C040, symSize: 0x5C }
  - { offset: 0x9CFCE, size: 0x8, addend: 0x0, symName: __ZN4core3ops8function6FnOnce9call_once17h3037160a3d0fc247E, symObjAddr: 0x1150, symBinAddr: 0x3C09C, symSize: 0x58 }
  - { offset: 0x9D012, size: 0x8, addend: 0x0, symName: __ZN4core3ops8function6FnOnce9call_once17h33e35ca27f4339e8E, symObjAddr: 0x11A8, symBinAddr: 0x3C0F4, symSize: 0x58 }
  - { offset: 0x9D056, size: 0x8, addend: 0x0, symName: __ZN4core3ops8function6FnOnce9call_once17h3ca115fd681d4694E, symObjAddr: 0x1200, symBinAddr: 0x3C14C, symSize: 0x3C }
  - { offset: 0x9D09A, size: 0x8, addend: 0x0, symName: __ZN4core3ops8function6FnOnce9call_once17h4155afe5ce0520faE, symObjAddr: 0x123C, symBinAddr: 0x3C188, symSize: 0x4C }
  - { offset: 0x9D0DE, size: 0x8, addend: 0x0, symName: __ZN4core3ops8function6FnOnce9call_once17h4785bbd23617209fE, symObjAddr: 0x1288, symBinAddr: 0x3C1D4, symSize: 0x3C }
  - { offset: 0x9D122, size: 0x8, addend: 0x0, symName: __ZN4core3ops8function6FnOnce9call_once17h4f2904f268727172E, symObjAddr: 0x12C4, symBinAddr: 0x3C210, symSize: 0x3C }
  - { offset: 0x9D166, size: 0x8, addend: 0x0, symName: __ZN4core3ops8function6FnOnce9call_once17h518af4f0ab6d63e8E, symObjAddr: 0x1300, symBinAddr: 0x3C24C, symSize: 0x58 }
  - { offset: 0x9D1AA, size: 0x8, addend: 0x0, symName: __ZN4core3ops8function6FnOnce9call_once17h57c85eed6ca02d33E, symObjAddr: 0x1358, symBinAddr: 0x3C2A4, symSize: 0x24 }
  - { offset: 0x9D1EE, size: 0x8, addend: 0x0, symName: __ZN4core3ops8function6FnOnce9call_once17h681b566b1e2e9d6cE, symObjAddr: 0x137C, symBinAddr: 0x3C2C8, symSize: 0x58 }
  - { offset: 0x9D232, size: 0x8, addend: 0x0, symName: __ZN4core3ops8function6FnOnce9call_once17h68d4b5758533ea12E, symObjAddr: 0x13D4, symBinAddr: 0x3C320, symSize: 0x1C }
  - { offset: 0x9D276, size: 0x8, addend: 0x0, symName: __ZN4core3ops8function6FnOnce9call_once17h6afe917fcbe0ad55E, symObjAddr: 0x13F0, symBinAddr: 0x3C33C, symSize: 0x24 }
  - { offset: 0x9D2BA, size: 0x8, addend: 0x0, symName: __ZN4core3ops8function6FnOnce9call_once17h6e141d135da627a3E, symObjAddr: 0x1414, symBinAddr: 0x3C360, symSize: 0x4C }
  - { offset: 0x9D2FE, size: 0x8, addend: 0x0, symName: __ZN4core3ops8function6FnOnce9call_once17h75f4a8f517c84538E, symObjAddr: 0x1460, symBinAddr: 0x3C3AC, symSize: 0x4C }
  - { offset: 0x9D33E, size: 0x8, addend: 0x0, symName: __ZN4core3ops8function6FnOnce9call_once17h76d7cd1945fb60f9E, symObjAddr: 0x14AC, symBinAddr: 0x3C3F8, symSize: 0x34 }
  - { offset: 0x9D382, size: 0x8, addend: 0x0, symName: __ZN4core3ops8function6FnOnce9call_once17h79cd11f9b15e10fdE, symObjAddr: 0x14E0, symBinAddr: 0x3C42C, symSize: 0x54 }
  - { offset: 0x9D3C2, size: 0x8, addend: 0x0, symName: __ZN4core3ops8function6FnOnce9call_once17h7a4a61600fdee80cE, symObjAddr: 0x1534, symBinAddr: 0x3C480, symSize: 0x58 }
  - { offset: 0x9D406, size: 0x8, addend: 0x0, symName: __ZN4core3ops8function6FnOnce9call_once17h7e1591fc96df7c10E, symObjAddr: 0x158C, symBinAddr: 0x3C4D8, symSize: 0x24 }
  - { offset: 0x9D44A, size: 0x8, addend: 0x0, symName: __ZN4core3ops8function6FnOnce9call_once17h88b57702a55291d7E, symObjAddr: 0x15B0, symBinAddr: 0x3C4FC, symSize: 0x44 }
  - { offset: 0x9D48A, size: 0x8, addend: 0x0, symName: __ZN4core3ops8function6FnOnce9call_once17h9c252937d41ea5a8E, symObjAddr: 0x15F4, symBinAddr: 0x3C540, symSize: 0x24 }
  - { offset: 0x9D4CE, size: 0x8, addend: 0x0, symName: __ZN4core3ops8function6FnOnce9call_once17h9c391c43a694a1f0E, symObjAddr: 0x1618, symBinAddr: 0x3C564, symSize: 0x58 }
  - { offset: 0x9D512, size: 0x8, addend: 0x0, symName: __ZN4core3ops8function6FnOnce9call_once17h9dcea59b50ef2fa5E, symObjAddr: 0x1670, symBinAddr: 0x3C5BC, symSize: 0x24 }
  - { offset: 0x9D556, size: 0x8, addend: 0x0, symName: __ZN4core3ops8function6FnOnce9call_once17ha98ff2810843a6f9E, symObjAddr: 0x1694, symBinAddr: 0x3C5E0, symSize: 0x4C }
  - { offset: 0x9D59A, size: 0x8, addend: 0x0, symName: __ZN4core3ops8function6FnOnce9call_once17hb6f67497b0fce6dbE, symObjAddr: 0x16E0, symBinAddr: 0x3C62C, symSize: 0x24 }
  - { offset: 0x9D5DE, size: 0x8, addend: 0x0, symName: __ZN4core3ops8function6FnOnce9call_once17hb894662cb1e7200bE, symObjAddr: 0x1704, symBinAddr: 0x3C650, symSize: 0x4C }
  - { offset: 0x9D622, size: 0x8, addend: 0x0, symName: __ZN4core3ops8function6FnOnce9call_once17hbbc0f960aa6975fdE, symObjAddr: 0x1750, symBinAddr: 0x3C69C, symSize: 0x2C }
  - { offset: 0x9D666, size: 0x8, addend: 0x0, symName: __ZN4core3ops8function6FnOnce9call_once17hd186b6026e325228E, symObjAddr: 0x177C, symBinAddr: 0x3C6C8, symSize: 0x40 }
  - { offset: 0x9D6AA, size: 0x8, addend: 0x0, symName: __ZN4core3ops8function6FnOnce9call_once17hd3a74007a981c969E, symObjAddr: 0x17BC, symBinAddr: 0x3C708, symSize: 0x5C }
  - { offset: 0x9D6EE, size: 0x8, addend: 0x0, symName: __ZN4core3ops8function6FnOnce9call_once17hd469020e6c0b88bcE, symObjAddr: 0x1818, symBinAddr: 0x3C764, symSize: 0x3C }
  - { offset: 0x9D732, size: 0x8, addend: 0x0, symName: __ZN4core3ops8function6FnOnce9call_once17hdbf9807739b57de0E, symObjAddr: 0x1854, symBinAddr: 0x3C7A0, symSize: 0x44 }
  - { offset: 0x9D772, size: 0x8, addend: 0x0, symName: __ZN4core3ops8function6FnOnce9call_once17he691150899987657E, symObjAddr: 0x18BC, symBinAddr: 0x3C7E4, symSize: 0x24 }
  - { offset: 0x9D7B6, size: 0x8, addend: 0x0, symName: __ZN4core3ops8function6FnOnce9call_once17hed6c260c3fa6adfbE, symObjAddr: 0x18E0, symBinAddr: 0x3C808, symSize: 0x2C }
  - { offset: 0x9D7FA, size: 0x8, addend: 0x0, symName: __ZN4core3ops8function6FnOnce9call_once17hedb228baf779e233E, symObjAddr: 0x190C, symBinAddr: 0x3C834, symSize: 0x4C }
  - { offset: 0x9D83E, size: 0x8, addend: 0x0, symName: __ZN4core3ops8function6FnOnce9call_once17hf15779c0a8cf903dE, symObjAddr: 0x1958, symBinAddr: 0x3C880, symSize: 0x24 }
  - { offset: 0x9D882, size: 0x8, addend: 0x0, symName: __ZN4core3ops8function6FnOnce9call_once17hf1e88fb1135d62a6E, symObjAddr: 0x197C, symBinAddr: 0x3C8A4, symSize: 0x5C }
  - { offset: 0x9D8C6, size: 0x8, addend: 0x0, symName: __ZN4core3ops8function6FnOnce9call_once17hf2b795b0e90d6b56E, symObjAddr: 0x19D8, symBinAddr: 0x3C900, symSize: 0x3C }
  - { offset: 0x9D90A, size: 0x8, addend: 0x0, symName: __ZN4core3ops8function6FnOnce9call_once17hf32a07a06ec41a13E, symObjAddr: 0x1A14, symBinAddr: 0x3C93C, symSize: 0x3C }
  - { offset: 0x9EC66, size: 0x8, addend: 0x0, symName: '__ZN82_$LT$core..array..iter..IntoIter$LT$T$C$_$GT$$u20$as$u20$core..ops..drop..Drop$GT$4drop17hd5e17ac855292191E', symObjAddr: 0x9030, symBinAddr: 0x43C94, symSize: 0x14 }
  - { offset: 0x9EF60, size: 0x8, addend: 0x0, symName: '__ZN95_$LT$core..slice..sort..stable..merge..MergeState$LT$T$GT$$u20$as$u20$core..ops..drop..Drop$GT$4drop17he4e90895b50fd596E', symObjAddr: 0x95DC, symBinAddr: 0x44240, symSize: 0xD8 }
  - { offset: 0x9F09D, size: 0x8, addend: 0x0, symName: '__ZN99_$LT$core..slice..sort..shared..smallsort..CopyOnDrop$LT$T$GT$$u20$as$u20$core..ops..drop..Drop$GT$4drop17h771fc2b3e3cbbcc2E', symObjAddr: 0x98D4, symBinAddr: 0x4451C, symSize: 0x8C }
  - { offset: 0xA0BDC, size: 0x8, addend: 0x0, symName: '__ZN76_$LT$rusqlite..transaction..Transaction$u20$as$u20$core..ops..drop..Drop$GT$4drop17hb65a459e8d661a4eE', symObjAddr: 0x8A20, symBinAddr: 0x43684, symSize: 0x34 }
  - { offset: 0xA0C31, size: 0x8, addend: 0x0, symName: '__ZN61_$LT$rusqlite..row..Rows$u20$as$u20$core..ops..drop..Drop$GT$4drop17hc7b29ffad9b288ecE', symObjAddr: 0x7B00, symBinAddr: 0x42764, symSize: 0x34 }
  - { offset: 0xA151F, size: 0x8, addend: 0x0, symName: '__ZN111_$LT$alloc..vec..in_place_drop..InPlaceDstDataSrcBufDrop$LT$Src$C$Dest$GT$$u20$as$u20$core..ops..drop..Drop$GT$4drop17he7ed2c47b3d986faE', symObjAddr: 0x0, symBinAddr: 0x3AF4C, symSize: 0xB4 }
  - { offset: 0xA16A1, size: 0x8, addend: 0x0, symName: '__ZN89_$LT$alloc..vec..in_place_drop..InPlaceDrop$LT$T$GT$$u20$as$u20$core..ops..drop..Drop$GT$4drop17h2c988966ba8eed60E', symObjAddr: 0x9520, symBinAddr: 0x44184, symSize: 0x70 }
  - { offset: 0xA1851, size: 0x8, addend: 0x0, symName: '__ZN112_$LT$alloc..vec..Vec$LT$T$C$A$GT$..retain_mut..BackshiftOnDrop$LT$T$C$A$GT$$u20$as$u20$core..ops..drop..Drop$GT$4drop17hfb6343edae3abfb0E', symObjAddr: 0xB4, symBinAddr: 0x3B000, symSize: 0x180 }
  - { offset: 0xA1AC5, size: 0x8, addend: 0x0, symName: '__ZN150_$LT$$LT$alloc..vec..drain..Drain$LT$T$C$A$GT$$u20$as$u20$core..ops..drop..Drop$GT$..drop..DropGuard$LT$T$C$A$GT$$u20$as$u20$core..ops..drop..Drop$GT$4drop17hb7e862e00d4daf9dE', symObjAddr: 0x234, symBinAddr: 0x3B180, symSize: 0x18C }
  - { offset: 0xA1DCD, size: 0x8, addend: 0x0, symName: '__ZN79_$LT$alloc..vec..drain..Drain$LT$T$C$A$GT$$u20$as$u20$core..ops..drop..Drop$GT$4drop17he23eac09c8edcf03E', symObjAddr: 0x8D5C, symBinAddr: 0x439C0, symSize: 0x220 }
  - { offset: 0xA2355, size: 0x8, addend: 0x0, symName: '__ZN157_$LT$$LT$alloc..vec..into_iter..IntoIter$LT$T$C$A$GT$$u20$as$u20$core..ops..drop..Drop$GT$..drop..DropGuard$LT$T$C$A$GT$$u20$as$u20$core..ops..drop..Drop$GT$4drop17h5ca8ead92fca88cdE', symObjAddr: 0x3C0, symBinAddr: 0x3B30C, symSize: 0x6C }
  - { offset: 0xA2498, size: 0x8, addend: 0x0, symName: '__ZN157_$LT$$LT$alloc..vec..into_iter..IntoIter$LT$T$C$A$GT$$u20$as$u20$core..ops..drop..Drop$GT$..drop..DropGuard$LT$T$C$A$GT$$u20$as$u20$core..ops..drop..Drop$GT$4drop17h8328d57437a67567E', symObjAddr: 0x42C, symBinAddr: 0x3B378, symSize: 0x6C }
  - { offset: 0xA25DB, size: 0x8, addend: 0x0, symName: '__ZN157_$LT$$LT$alloc..vec..into_iter..IntoIter$LT$T$C$A$GT$$u20$as$u20$core..ops..drop..Drop$GT$..drop..DropGuard$LT$T$C$A$GT$$u20$as$u20$core..ops..drop..Drop$GT$4drop17h8bab377657460aa3E', symObjAddr: 0x498, symBinAddr: 0x3B3E4, symSize: 0x6C }
  - { offset: 0xA271E, size: 0x8, addend: 0x0, symName: '__ZN157_$LT$$LT$alloc..vec..into_iter..IntoIter$LT$T$C$A$GT$$u20$as$u20$core..ops..drop..Drop$GT$..drop..DropGuard$LT$T$C$A$GT$$u20$as$u20$core..ops..drop..Drop$GT$4drop17hf30db95bc51ef523E', symObjAddr: 0x504, symBinAddr: 0x3B450, symSize: 0x6C }
  - { offset: 0xA2861, size: 0x8, addend: 0x0, symName: '__ZN157_$LT$$LT$alloc..vec..into_iter..IntoIter$LT$T$C$A$GT$$u20$as$u20$core..ops..drop..Drop$GT$..drop..DropGuard$LT$T$C$A$GT$$u20$as$u20$core..ops..drop..Drop$GT$4drop17hf5e1a649b2c9e3feE', symObjAddr: 0x570, symBinAddr: 0x3B4BC, symSize: 0x6C }
  - { offset: 0xA2A69, size: 0x8, addend: 0x0, symName: '__ZN86_$LT$alloc..vec..into_iter..IntoIter$LT$T$C$A$GT$$u20$as$u20$core..ops..drop..Drop$GT$4drop17h051092e2a5ac5ca5E', symObjAddr: 0x9284, symBinAddr: 0x43EE8, symSize: 0x78 }
  - { offset: 0xA2ABB, size: 0x8, addend: 0x0, symName: '__ZN86_$LT$alloc..vec..into_iter..IntoIter$LT$T$C$A$GT$$u20$as$u20$core..ops..drop..Drop$GT$4drop17h077d6f2455928c2cE', symObjAddr: 0x92FC, symBinAddr: 0x43F60, symSize: 0x78 }
  - { offset: 0xA2B0D, size: 0x8, addend: 0x0, symName: '__ZN86_$LT$alloc..vec..into_iter..IntoIter$LT$T$C$A$GT$$u20$as$u20$core..ops..drop..Drop$GT$4drop17h19b1e1e0ba582759E', symObjAddr: 0x9374, symBinAddr: 0x43FD8, symSize: 0x64 }
  - { offset: 0xA2B5F, size: 0x8, addend: 0x0, symName: '__ZN86_$LT$alloc..vec..into_iter..IntoIter$LT$T$C$A$GT$$u20$as$u20$core..ops..drop..Drop$GT$4drop17he1714d1ba074ec3eE', symObjAddr: 0x93D8, symBinAddr: 0x4403C, symSize: 0x78 }
  - { offset: 0xA2BB1, size: 0x8, addend: 0x0, symName: '__ZN86_$LT$alloc..vec..into_iter..IntoIter$LT$T$C$A$GT$$u20$as$u20$core..ops..drop..Drop$GT$4drop17he35e0832644736deE', symObjAddr: 0x9450, symBinAddr: 0x440B4, symSize: 0x78 }
  - { offset: 0xA2F45, size: 0x8, addend: 0x0, symName: '__ZN70_$LT$alloc..vec..Vec$LT$T$C$A$GT$$u20$as$u20$core..ops..drop..Drop$GT$4drop17h3fb51d922de22385E', symObjAddr: 0x7BD4, symBinAddr: 0x42838, symSize: 0x38 }
  - { offset: 0xA2FF5, size: 0x8, addend: 0x0, symName: '__ZN70_$LT$alloc..vec..Vec$LT$T$C$A$GT$$u20$as$u20$core..ops..drop..Drop$GT$4drop17h48adde25c5d5151bE', symObjAddr: 0x7C0C, symBinAddr: 0x42870, symSize: 0x38 }
  - { offset: 0xA30A5, size: 0x8, addend: 0x0, symName: '__ZN70_$LT$alloc..vec..Vec$LT$T$C$A$GT$$u20$as$u20$core..ops..drop..Drop$GT$4drop17h4e913328942e7c51E', symObjAddr: 0x7C44, symBinAddr: 0x428A8, symSize: 0x38 }
  - { offset: 0xA3155, size: 0x8, addend: 0x0, symName: '__ZN70_$LT$alloc..vec..Vec$LT$T$C$A$GT$$u20$as$u20$core..ops..drop..Drop$GT$4drop17h57327c7254a486e6E', symObjAddr: 0x7C7C, symBinAddr: 0x428E0, symSize: 0x38 }
  - { offset: 0xA3205, size: 0x8, addend: 0x0, symName: '__ZN70_$LT$alloc..vec..Vec$LT$T$C$A$GT$$u20$as$u20$core..ops..drop..Drop$GT$4drop17h6d65c8b9054f03adE', symObjAddr: 0x7CB4, symBinAddr: 0x42918, symSize: 0x38 }
  - { offset: 0xA32B5, size: 0x8, addend: 0x0, symName: '__ZN70_$LT$alloc..vec..Vec$LT$T$C$A$GT$$u20$as$u20$core..ops..drop..Drop$GT$4drop17h73f96741f359940aE', symObjAddr: 0x7CEC, symBinAddr: 0x42950, symSize: 0x38 }
  - { offset: 0xA3365, size: 0x8, addend: 0x0, symName: '__ZN70_$LT$alloc..vec..Vec$LT$T$C$A$GT$$u20$as$u20$core..ops..drop..Drop$GT$4drop17h7553a3383d4a13b1E', symObjAddr: 0x7D24, symBinAddr: 0x42988, symSize: 0x24 }
  - { offset: 0xA3415, size: 0x8, addend: 0x0, symName: '__ZN70_$LT$alloc..vec..Vec$LT$T$C$A$GT$$u20$as$u20$core..ops..drop..Drop$GT$4drop17h80d4de165b3628d7E', symObjAddr: 0x7D48, symBinAddr: 0x429AC, symSize: 0x38 }
  - { offset: 0xA34C5, size: 0x8, addend: 0x0, symName: '__ZN70_$LT$alloc..vec..Vec$LT$T$C$A$GT$$u20$as$u20$core..ops..drop..Drop$GT$4drop17h813e2f5057c822b9E', symObjAddr: 0x7D80, symBinAddr: 0x429E4, symSize: 0x24 }
  - { offset: 0xA3575, size: 0x8, addend: 0x0, symName: '__ZN70_$LT$alloc..vec..Vec$LT$T$C$A$GT$$u20$as$u20$core..ops..drop..Drop$GT$4drop17h9b066b726a92c5a9E', symObjAddr: 0x7DA4, symBinAddr: 0x42A08, symSize: 0x38 }
  - { offset: 0xA3625, size: 0x8, addend: 0x0, symName: '__ZN70_$LT$alloc..vec..Vec$LT$T$C$A$GT$$u20$as$u20$core..ops..drop..Drop$GT$4drop17hc896e283883061dbE', symObjAddr: 0x7DDC, symBinAddr: 0x42A40, symSize: 0x38 }
  - { offset: 0xA36D5, size: 0x8, addend: 0x0, symName: '__ZN70_$LT$alloc..vec..Vec$LT$T$C$A$GT$$u20$as$u20$core..ops..drop..Drop$GT$4drop17hcc482a7527d0edb3E', symObjAddr: 0x7E14, symBinAddr: 0x42A78, symSize: 0x38 }
  - { offset: 0xA3785, size: 0x8, addend: 0x0, symName: '__ZN70_$LT$alloc..vec..Vec$LT$T$C$A$GT$$u20$as$u20$core..ops..drop..Drop$GT$4drop17hd1df7535a81a5164E', symObjAddr: 0x7E4C, symBinAddr: 0x42AB0, symSize: 0x38 }
  - { offset: 0xA3835, size: 0x8, addend: 0x0, symName: '__ZN70_$LT$alloc..vec..Vec$LT$T$C$A$GT$$u20$as$u20$core..ops..drop..Drop$GT$4drop17hd58ba2338076d6c1E', symObjAddr: 0x7E84, symBinAddr: 0x42AE8, symSize: 0x38 }
  - { offset: 0xA38E5, size: 0x8, addend: 0x0, symName: '__ZN70_$LT$alloc..vec..Vec$LT$T$C$A$GT$$u20$as$u20$core..ops..drop..Drop$GT$4drop17he42791200196a5a8E', symObjAddr: 0x7EBC, symBinAddr: 0x42B20, symSize: 0x38 }
  - { offset: 0xA4F74, size: 0x8, addend: 0x0, symName: '__ZN77_$LT$alloc..raw_vec..RawVec$LT$T$C$A$GT$$u20$as$u20$core..ops..drop..Drop$GT$4drop17h018c51d93c249781E', symObjAddr: 0x8A54, symBinAddr: 0x436B8, symSize: 0x30 }
  - { offset: 0xA4FB0, size: 0x8, addend: 0x0, symName: '__ZN77_$LT$alloc..raw_vec..RawVec$LT$T$C$A$GT$$u20$as$u20$core..ops..drop..Drop$GT$4drop17h0a402714c73c3ea3E', symObjAddr: 0x8A84, symBinAddr: 0x436E8, symSize: 0x34 }
  - { offset: 0xA4FEC, size: 0x8, addend: 0x0, symName: '__ZN77_$LT$alloc..raw_vec..RawVec$LT$T$C$A$GT$$u20$as$u20$core..ops..drop..Drop$GT$4drop17h0b6e53e8bfed88ffE', symObjAddr: 0x8AB8, symBinAddr: 0x4371C, symSize: 0x34 }
  - { offset: 0xA5028, size: 0x8, addend: 0x0, symName: '__ZN77_$LT$alloc..raw_vec..RawVec$LT$T$C$A$GT$$u20$as$u20$core..ops..drop..Drop$GT$4drop17h1be55566b8cd52ceE', symObjAddr: 0x8AEC, symBinAddr: 0x43750, symSize: 0x34 }
  - { offset: 0xA5064, size: 0x8, addend: 0x0, symName: '__ZN77_$LT$alloc..raw_vec..RawVec$LT$T$C$A$GT$$u20$as$u20$core..ops..drop..Drop$GT$4drop17h4c7cdcd7228e653cE', symObjAddr: 0x8B20, symBinAddr: 0x43784, symSize: 0x34 }
  - { offset: 0xA50A0, size: 0x8, addend: 0x0, symName: '__ZN77_$LT$alloc..raw_vec..RawVec$LT$T$C$A$GT$$u20$as$u20$core..ops..drop..Drop$GT$4drop17h5bba94cbe194b211E', symObjAddr: 0x8B54, symBinAddr: 0x437B8, symSize: 0x34 }
  - { offset: 0xA50DC, size: 0x8, addend: 0x0, symName: '__ZN77_$LT$alloc..raw_vec..RawVec$LT$T$C$A$GT$$u20$as$u20$core..ops..drop..Drop$GT$4drop17h771e97f47a4657b1E', symObjAddr: 0x8B88, symBinAddr: 0x437EC, symSize: 0x34 }
  - { offset: 0xA5118, size: 0x8, addend: 0x0, symName: '__ZN77_$LT$alloc..raw_vec..RawVec$LT$T$C$A$GT$$u20$as$u20$core..ops..drop..Drop$GT$4drop17h974160c212be612dE', symObjAddr: 0x8BBC, symBinAddr: 0x43820, symSize: 0x34 }
  - { offset: 0xA5154, size: 0x8, addend: 0x0, symName: '__ZN77_$LT$alloc..raw_vec..RawVec$LT$T$C$A$GT$$u20$as$u20$core..ops..drop..Drop$GT$4drop17ha5a47d75c4ef3dffE', symObjAddr: 0x8BF0, symBinAddr: 0x43854, symSize: 0x34 }
  - { offset: 0xA5190, size: 0x8, addend: 0x0, symName: '__ZN77_$LT$alloc..raw_vec..RawVec$LT$T$C$A$GT$$u20$as$u20$core..ops..drop..Drop$GT$4drop17hc2ec0dec10369b48E', symObjAddr: 0x8C24, symBinAddr: 0x43888, symSize: 0x34 }
  - { offset: 0xA51CC, size: 0x8, addend: 0x0, symName: '__ZN77_$LT$alloc..raw_vec..RawVec$LT$T$C$A$GT$$u20$as$u20$core..ops..drop..Drop$GT$4drop17hc574cbe4007b9aa5E', symObjAddr: 0x8C58, symBinAddr: 0x438BC, symSize: 0x34 }
  - { offset: 0xA5208, size: 0x8, addend: 0x0, symName: '__ZN77_$LT$alloc..raw_vec..RawVec$LT$T$C$A$GT$$u20$as$u20$core..ops..drop..Drop$GT$4drop17hd7f6300f959a94e8E', symObjAddr: 0x8C8C, symBinAddr: 0x438F0, symSize: 0x34 }
  - { offset: 0xA5244, size: 0x8, addend: 0x0, symName: '__ZN77_$LT$alloc..raw_vec..RawVec$LT$T$C$A$GT$$u20$as$u20$core..ops..drop..Drop$GT$4drop17hdaeb0aa69b18dc38E', symObjAddr: 0x8CC0, symBinAddr: 0x43924, symSize: 0x34 }
  - { offset: 0xA5280, size: 0x8, addend: 0x0, symName: '__ZN77_$LT$alloc..raw_vec..RawVec$LT$T$C$A$GT$$u20$as$u20$core..ops..drop..Drop$GT$4drop17hf422ea6c016e1dd8E', symObjAddr: 0x8CF4, symBinAddr: 0x43958, symSize: 0x34 }
  - { offset: 0xA52BC, size: 0x8, addend: 0x0, symName: '__ZN77_$LT$alloc..raw_vec..RawVec$LT$T$C$A$GT$$u20$as$u20$core..ops..drop..Drop$GT$4drop17hff84b1c5266da688E', symObjAddr: 0x8D28, symBinAddr: 0x4398C, symSize: 0x34 }
  - { offset: 0xA54CB, size: 0x8, addend: 0x0, symName: '__ZN160_$LT$$LT$T$u20$as$u20$alloc..slice..$LT$impl$u20$$u5b$T$u5d$$GT$..to_vec_in..ConvertVec$GT$..to_vec..DropGuard$LT$T$C$A$GT$$u20$as$u20$core..ops..drop..Drop$GT$4drop17h225e76885d09f480E', symObjAddr: 0x5DC, symBinAddr: 0x3B528, symSize: 0x30 }
  - { offset: 0xA5507, size: 0x8, addend: 0x0, symName: '__ZN160_$LT$$LT$T$u20$as$u20$alloc..slice..$LT$impl$u20$$u5b$T$u5d$$GT$..to_vec_in..ConvertVec$GT$..to_vec..DropGuard$LT$T$C$A$GT$$u20$as$u20$core..ops..drop..Drop$GT$4drop17h7881c438f86370e6E', symObjAddr: 0x60C, symBinAddr: 0x3B558, symSize: 0x30 }
  - { offset: 0xA5543, size: 0x8, addend: 0x0, symName: '__ZN160_$LT$$LT$T$u20$as$u20$alloc..slice..$LT$impl$u20$$u5b$T$u5d$$GT$..to_vec_in..ConvertVec$GT$..to_vec..DropGuard$LT$T$C$A$GT$$u20$as$u20$core..ops..drop..Drop$GT$4drop17h970bbd6542a8b21bE', symObjAddr: 0x63C, symBinAddr: 0x3B588, symSize: 0x30 }
  - { offset: 0xA557F, size: 0x8, addend: 0x0, symName: '__ZN160_$LT$$LT$T$u20$as$u20$alloc..slice..$LT$impl$u20$$u5b$T$u5d$$GT$..to_vec_in..ConvertVec$GT$..to_vec..DropGuard$LT$T$C$A$GT$$u20$as$u20$core..ops..drop..Drop$GT$4drop17ha98dbc676c3e8276E', symObjAddr: 0x66C, symBinAddr: 0x3B5B8, symSize: 0x30 }
  - { offset: 0xA588E, size: 0x8, addend: 0x0, symName: '__ZN169_$LT$$LT$alloc..collections..linked_list..LinkedList$LT$T$C$A$GT$$u20$as$u20$core..ops..drop..Drop$GT$..drop..DropGuard$LT$T$C$A$GT$$u20$as$u20$core..ops..drop..Drop$GT$4drop17ha39865f30b9be779E', symObjAddr: 0x69C, symBinAddr: 0x3B5E8, symSize: 0x16C }
  - { offset: 0xA5A31, size: 0x8, addend: 0x0, symName: '__ZN98_$LT$alloc..collections..linked_list..LinkedList$LT$T$C$A$GT$$u20$as$u20$core..ops..drop..Drop$GT$4drop17hdf20b5943c78a40cE', symObjAddr: 0x970C, symBinAddr: 0x44354, symSize: 0x1C8 }
  - { offset: 0xA5F47, size: 0x8, addend: 0x0, symName: '__ZN72_$LT$alloc..boxed..Box$LT$T$C$A$GT$$u20$as$u20$core..ops..drop..Drop$GT$4drop17h1dff5c701043bb89E', symObjAddr: 0x7FA4, symBinAddr: 0x42C08, symSize: 0xC4 }
  - { offset: 0xA6080, size: 0x8, addend: 0x0, symName: '__ZN72_$LT$alloc..boxed..Box$LT$T$C$A$GT$$u20$as$u20$core..ops..drop..Drop$GT$4drop17h879d3b079e07e052E', symObjAddr: 0x8068, symBinAddr: 0x42CCC, symSize: 0xB0 }
  - { offset: 0xA61B9, size: 0x8, addend: 0x0, symName: '__ZN72_$LT$alloc..boxed..Box$LT$T$C$A$GT$$u20$as$u20$core..ops..drop..Drop$GT$4drop17h8d022e16aaca594aE', symObjAddr: 0x8118, symBinAddr: 0x42D7C, symSize: 0xB0 }
  - { offset: 0xA62F2, size: 0x8, addend: 0x0, symName: '__ZN72_$LT$alloc..boxed..Box$LT$T$C$A$GT$$u20$as$u20$core..ops..drop..Drop$GT$4drop17ha84f84262b8722d4E', symObjAddr: 0x81C8, symBinAddr: 0x42E2C, symSize: 0xB0 }
  - { offset: 0xA642B, size: 0x8, addend: 0x0, symName: '__ZN72_$LT$alloc..boxed..Box$LT$T$C$A$GT$$u20$as$u20$core..ops..drop..Drop$GT$4drop17hfeb4074219a7f3d9E', symObjAddr: 0x8278, symBinAddr: 0x42EDC, symSize: 0xB0 }
  - { offset: 0xA7FF9, size: 0x8, addend: 0x0, symName: '__ZN69_$LT$pyo3..instance..Py$LT$T$GT$$u20$as$u20$core..ops..drop..Drop$GT$4drop17h6ae4ae49275554b1E', symObjAddr: 0x7B34, symBinAddr: 0x42798, symSize: 0x28 }
  - { offset: 0xA802C, size: 0x8, addend: 0x0, symName: '__ZN69_$LT$pyo3..instance..Py$LT$T$GT$$u20$as$u20$core..ops..drop..Drop$GT$4drop17h8a87795504875746E', symObjAddr: 0x7B5C, symBinAddr: 0x427C0, symSize: 0x28 }
  - { offset: 0xA805F, size: 0x8, addend: 0x0, symName: '__ZN69_$LT$pyo3..instance..Py$LT$T$GT$$u20$as$u20$core..ops..drop..Drop$GT$4drop17h9a4ce347e0b3f66fE', symObjAddr: 0x7B84, symBinAddr: 0x427E8, symSize: 0x28 }
  - { offset: 0xA8092, size: 0x8, addend: 0x0, symName: '__ZN69_$LT$pyo3..instance..Py$LT$T$GT$$u20$as$u20$core..ops..drop..Drop$GT$4drop17ha6561ddf820bb154E', symObjAddr: 0x7BAC, symBinAddr: 0x42810, symSize: 0x28 }
  - { offset: 0xA80CB, size: 0x8, addend: 0x0, symName: '__ZN72_$LT$pyo3..instance..Bound$LT$T$GT$$u20$as$u20$core..ops..drop..Drop$GT$4drop17h33b82ff1803ad207E', symObjAddr: 0x8328, symBinAddr: 0x42F8C, symSize: 0x1A0 }
  - { offset: 0xA813A, size: 0x8, addend: 0x0, symName: '__ZN72_$LT$pyo3..instance..Bound$LT$T$GT$$u20$as$u20$core..ops..drop..Drop$GT$4drop17h870885b0ef77cbc5E', symObjAddr: 0x84C8, symBinAddr: 0x4312C, symSize: 0x1A0 }
  - { offset: 0xA81A9, size: 0x8, addend: 0x0, symName: '__ZN72_$LT$pyo3..instance..Bound$LT$T$GT$$u20$as$u20$core..ops..drop..Drop$GT$4drop17hb61001508a638e1bE', symObjAddr: 0x8668, symBinAddr: 0x432CC, symSize: 0x1A0 }
  - { offset: 0xA8218, size: 0x8, addend: 0x0, symName: '__ZN72_$LT$pyo3..instance..Bound$LT$T$GT$$u20$as$u20$core..ops..drop..Drop$GT$4drop17hfcfc2614e3bf1275E', symObjAddr: 0x8808, symBinAddr: 0x4346C, symSize: 0x1A0 }
  - { offset: 0xA8497, size: 0x8, addend: 0x0, symName: '__ZN70_$LT$pyo3..pycell..PyRef$LT$T$GT$$u20$as$u20$core..ops..drop..Drop$GT$4drop17h3eb703200a6f7044E', symObjAddr: 0x7EF4, symBinAddr: 0x42B58, symSize: 0x2C }
  - { offset: 0xA84CA, size: 0x8, addend: 0x0, symName: '__ZN70_$LT$pyo3..pycell..PyRef$LT$T$GT$$u20$as$u20$core..ops..drop..Drop$GT$4drop17h781f9216f3d2c1b2E', symObjAddr: 0x7F20, symBinAddr: 0x42B84, symSize: 0x2C }
  - { offset: 0xA84FD, size: 0x8, addend: 0x0, symName: '__ZN70_$LT$pyo3..pycell..PyRef$LT$T$GT$$u20$as$u20$core..ops..drop..Drop$GT$4drop17hc82adb6850f5ee66E', symObjAddr: 0x7F4C, symBinAddr: 0x42BB0, symSize: 0x2C }
  - { offset: 0xA8530, size: 0x8, addend: 0x0, symName: '__ZN70_$LT$pyo3..pycell..PyRef$LT$T$GT$$u20$as$u20$core..ops..drop..Drop$GT$4drop17hf83ebd2fbed20d1aE', symObjAddr: 0x7F78, symBinAddr: 0x42BDC, symSize: 0x2C }
  - { offset: 0xA8569, size: 0x8, addend: 0x0, symName: '__ZN73_$LT$pyo3..pycell..PyRefMut$LT$T$GT$$u20$as$u20$core..ops..drop..Drop$GT$4drop17h27bba16d9450b5f1E', symObjAddr: 0x89A8, symBinAddr: 0x4360C, symSize: 0x2C }
  - { offset: 0xAA44E, size: 0x8, addend: 0x0, symName: '__ZN74_$LT$flate2..zio..Writer$LT$W$C$D$GT$$u20$as$u20$core..ops..drop..Drop$GT$4drop17ha5c0d7274314d889E', symObjAddr: 0x89D4, symBinAddr: 0x43638, symSize: 0x4C }
  - { offset: 0xAA82A, size: 0x8, addend: 0x0, symName: '__ZN79_$LT$hashbrown..raw..RawTable$LT$T$C$A$GT$$u20$as$u20$core..ops..drop..Drop$GT$4drop17h56bd186f2adcb973E', symObjAddr: 0x8F7C, symBinAddr: 0x43BE0, symSize: 0x3C }
  - { offset: 0xAA866, size: 0x8, addend: 0x0, symName: '__ZN79_$LT$hashbrown..raw..RawTable$LT$T$C$A$GT$$u20$as$u20$core..ops..drop..Drop$GT$4drop17h98ff46e254d6faa0E', symObjAddr: 0x8FB8, symBinAddr: 0x43C1C, symSize: 0x3C }
  - { offset: 0xAA8A2, size: 0x8, addend: 0x0, symName: '__ZN79_$LT$hashbrown..raw..RawTable$LT$T$C$A$GT$$u20$as$u20$core..ops..drop..Drop$GT$4drop17hf37b1c85ecfc59a0E', symObjAddr: 0x8FF4, symBinAddr: 0x43C58, symSize: 0x3C }
  - { offset: 0xAA8E4, size: 0x8, addend: 0x0, symName: '__ZN82_$LT$hashbrown..raw..RawIntoIter$LT$T$C$A$GT$$u20$as$u20$core..ops..drop..Drop$GT$4drop17hf1450bd398401c65E', symObjAddr: 0x91CC, symBinAddr: 0x43E30, symSize: 0x74 }
  - { offset: 0xAB1FF, size: 0x8, addend: 0x0, symName: '__ZN82_$LT$generic_array..ArrayBuilder$LT$T$C$N$GT$$u20$as$u20$core..ops..drop..Drop$GT$4drop17hc7f44c44f4c4ac4bE', symObjAddr: 0x9044, symBinAddr: 0x43CA8, symSize: 0xC4 }
  - { offset: 0xAB2B9, size: 0x8, addend: 0x0, symName: '__ZN82_$LT$generic_array..ArrayBuilder$LT$T$C$N$GT$$u20$as$u20$core..ops..drop..Drop$GT$4drop17he3f23dca7b2c2b93E', symObjAddr: 0x9108, symBinAddr: 0x43D6C, symSize: 0xC4 }
  - { offset: 0xAB6B4, size: 0x8, addend: 0x0, symName: '__ZN96_$LT$rayon..iter..collect..consumer..CollectResult$LT$T$GT$$u20$as$u20$core..ops..drop..Drop$GT$4drop17h60555631ee8989abE', symObjAddr: 0x96D0, symBinAddr: 0x44318, symSize: 0x3C }
  - { offset: 0xB0B29, size: 0x8, addend: 0x0, symName: '__ZN4pyo35types4none120_$LT$impl$u20$pyo3..conversion..IntoPy$LT$pyo3..instance..Py$LT$pyo3..types..any..PyAny$GT$$GT$$u20$for$u20$$LP$$RP$$GT$7into_py17h83a430002b06e97eE', symObjAddr: 0x0, symBinAddr: 0x445A8, symSize: 0x20 }
  - { offset: 0xB1CDB, size: 0x8, addend: 0x0, symName: '__ZN53_$LT$T$u20$as$u20$core..slice..cmp..SliceContains$GT$14slice_contains28_$u7b$$u7b$closure$u7d$$u7d$17h471bf61bfc6456fcE', symObjAddr: 0x4C, symBinAddr: 0x445F4, symSize: 0x38 }
  - { offset: 0xB1D24, size: 0x8, addend: 0x0, symName: '__ZN53_$LT$T$u20$as$u20$core..slice..cmp..SliceContains$GT$14slice_contains28_$u7b$$u7b$closure$u7d$$u7d$17h7fc76d5ff92dbde1E', symObjAddr: 0x84, symBinAddr: 0x4462C, symSize: 0x38 }
  - { offset: 0xB1D6D, size: 0x8, addend: 0x0, symName: '__ZN53_$LT$T$u20$as$u20$core..slice..cmp..SliceContains$GT$14slice_contains28_$u7b$$u7b$closure$u7d$$u7d$17hd81e1332e1a2fc03E', symObjAddr: 0xBC, symBinAddr: 0x44664, symSize: 0x38 }
  - { offset: 0xB1DFE, size: 0x8, addend: 0x0, symName: '__ZN4pyo35types4none120_$LT$impl$u20$pyo3..conversion..IntoPy$LT$pyo3..instance..Py$LT$pyo3..types..any..PyAny$GT$$GT$$u20$for$u20$$LP$$RP$$GT$7into_py17h83a430002b06e97eE', symObjAddr: 0x0, symBinAddr: 0x445A8, symSize: 0x20 }
  - { offset: 0xB245A, size: 0x8, addend: 0x0, symName: __ZN4pyo35types4none6PyNone9get_bound17h7d4ea2480febc769E, symObjAddr: 0x20, symBinAddr: 0x445C8, symSize: 0x2C }
  - { offset: 0xB2496, size: 0x8, addend: 0x0, symName: '__ZN65_$LT$crc32fast..baseline..State$u20$as$u20$core..clone..Clone$GT$5clone17h46e32542ca122950E', symObjAddr: 0xF4, symBinAddr: 0x4469C, symSize: 0x18 }
  - { offset: 0xB26D8, size: 0x8, addend: 0x0, symName: '__ZN113_$LT$rayon..iter..collect..consumer..CollectResult$LT$T$GT$$u20$as$u20$rayon..iter..plumbing..Folder$LT$T$GT$$GT$4full17h96d0047a6d75059fE', symObjAddr: 0x0, symBinAddr: 0x446B4, symSize: 0x18 }
  - { offset: 0xB494A, size: 0x8, addend: 0x0, symName: '__ZN113_$LT$rayon..iter..collect..consumer..CollectResult$LT$T$GT$$u20$as$u20$rayon..iter..plumbing..Folder$LT$T$GT$$GT$4full17h96d0047a6d75059fE', symObjAddr: 0x0, symBinAddr: 0x446B4, symSize: 0x18 }
  - { offset: 0xB497F, size: 0x8, addend: 0x0, symName: '__ZN113_$LT$rayon..iter..collect..consumer..CollectResult$LT$T$GT$$u20$as$u20$rayon..iter..plumbing..Folder$LT$T$GT$$GT$7consume17hc10c37e35148067dE', symObjAddr: 0x18, symBinAddr: 0x446CC, symSize: 0x16C }
  - { offset: 0xB4A2D, size: 0x8, addend: 0x0, symName: '__ZN113_$LT$rayon..iter..collect..consumer..CollectResult$LT$T$GT$$u20$as$u20$rayon..iter..plumbing..Folder$LT$T$GT$$GT$8complete17h0b5fae044461724fE', symObjAddr: 0x184, symBinAddr: 0x44838, symSize: 0x18 }
  - { offset: 0xB4A68, size: 0x8, addend: 0x0, symName: '__ZN117_$LT$rayon..iter..collect..consumer..CollectConsumer$LT$T$GT$$u20$as$u20$rayon..iter..plumbing..Consumer$LT$T$GT$$GT$11into_folder17h2ef132aa25ec0f23E', symObjAddr: 0x19C, symBinAddr: 0x44850, symSize: 0x24 }
  - { offset: 0xB4A9D, size: 0x8, addend: 0x0, symName: '__ZN117_$LT$rayon..iter..collect..consumer..CollectConsumer$LT$T$GT$$u20$as$u20$rayon..iter..plumbing..Consumer$LT$T$GT$$GT$4full17h45f405cef89b90d9E', symObjAddr: 0x1C0, symBinAddr: 0x44874, symSize: 0x18 }
  - { offset: 0xB4AD2, size: 0x8, addend: 0x0, symName: '__ZN117_$LT$rayon..iter..collect..consumer..CollectConsumer$LT$T$GT$$u20$as$u20$rayon..iter..plumbing..Consumer$LT$T$GT$$GT$8split_at17hbaae2b5e7e2ef005E', symObjAddr: 0x1D8, symBinAddr: 0x4488C, symSize: 0xE4 }
  - { offset: 0xB4B64, size: 0x8, addend: 0x0, symName: '__ZN159_$LT$rayon..iter..collect..consumer..CollectReducer$u20$as$u20$rayon..iter..plumbing..Reducer$LT$rayon..iter..collect..consumer..CollectResult$LT$T$GT$$GT$$GT$6reduce17h9f5e68dfd0ce7b86E', symObjAddr: 0x2BC, symBinAddr: 0x44970, symSize: 0x1BC }
  - { offset: 0xB4D03, size: 0x8, addend: 0x0, symName: __ZN5rayon4iter8plumbing6Folder12consume_iter17h1e0c598e83c86f13E, symObjAddr: 0x598, symBinAddr: 0x44C4C, symSize: 0x198 }
  - { offset: 0xB4D86, size: 0x8, addend: 0x0, symName: __ZN5rayon4iter8plumbing6Folder12consume_iter17h3777960ef1948ca4E, symObjAddr: 0x730, symBinAddr: 0x44DE4, symSize: 0x198 }
  - { offset: 0xB4E09, size: 0x8, addend: 0x0, symName: __ZN5rayon4iter8plumbing6Folder12consume_iter17habd5e9e9ad426cb5E, symObjAddr: 0x8C8, symBinAddr: 0x44F7C, symSize: 0x198 }
  - { offset: 0xB4E8C, size: 0x8, addend: 0x0, symName: __ZN5rayon4iter8plumbing6Folder12consume_iter17hce1c74523d76de00E, symObjAddr: 0xA60, symBinAddr: 0x45114, symSize: 0x198 }
  - { offset: 0xB516B, size: 0x8, addend: 0x0, symName: '__ZN5rayon4iter7collect8consumer22CollectResult$LT$T$GT$17release_ownership17h70a71e3c186160c8E', symObjAddr: 0x478, symBinAddr: 0x44B2C, symSize: 0x30 }
  - { offset: 0xB51C1, size: 0x8, addend: 0x0, symName: '__ZN5rayon4iter7collect8consumer22CollectResult$LT$T$GT$3len17h0b59a36539a0dd54E', symObjAddr: 0x4A8, symBinAddr: 0x44B5C, symSize: 0x18 }
  - { offset: 0xB51F9, size: 0x8, addend: 0x0, symName: '__ZN5rayon4iter7collect8consumer24CollectConsumer$LT$T$GT$3new17h6378d68d243e7cabE', symObjAddr: 0x4C0, symBinAddr: 0x44B74, symSize: 0x18 }
  - { offset: 0xB523F, size: 0x8, addend: 0x0, symName: '__ZN5rayon4iter7collect8consumer24CollectConsumer$LT$T$GT$8appender17h6ac1ac368c682103E', symObjAddr: 0x4D8, symBinAddr: 0x44B8C, symSize: 0xC0 }
  - { offset: 0xB60C7, size: 0x8, addend: 0x0, symName: '__ZN10serde_json3map59Map$LT$alloc..string..String$C$serde_json..value..Value$GT$3len17h0a6a21d9f7f3c23eE', symObjAddr: 0x0, symBinAddr: 0x452AC, symSize: 0x24 }
  - { offset: 0xB6120, size: 0x8, addend: 0x0, symName: '__ZN142_$LT$$RF$serde_json..map..Map$LT$alloc..string..String$C$serde_json..value..Value$GT$$u20$as$u20$core..iter..traits..collect..IntoIterator$GT$9into_iter17h9a45b9c83db4dee3E', symObjAddr: 0x24, symBinAddr: 0x452D0, symSize: 0x44 }
  - { offset: 0xB6154, size: 0x8, addend: 0x0, symName: '__ZN80_$LT$serde_json..map..Iter$u20$as$u20$core..iter..traits..iterator..Iterator$GT$4next17h4b60371ff14379dcE', symObjAddr: 0xC8, symBinAddr: 0x45374, symSize: 0x24 }
  - { offset: 0xB7343, size: 0x8, addend: 0x0, symName: '__ZN56_$LT$usize$u20$as$u20$core..iter..traits..accum..Sum$GT$3sum17hf1434e0592a5cb77E', symObjAddr: 0x68, symBinAddr: 0x45314, symSize: 0x18 }
  - { offset: 0xB737E, size: 0x8, addend: 0x0, symName: '__ZN56_$LT$usize$u20$as$u20$core..iter..traits..accum..Sum$GT$3sum28_$u7b$$u7b$closure$u7d$$u7d$17h32803509c888d60eE', symObjAddr: 0x80, symBinAddr: 0x4532C, symSize: 0x48 }
  - { offset: 0xB7628, size: 0x8, addend: 0x0, symName: '__ZN10serde_json3map59Map$LT$alloc..string..String$C$serde_json..value..Value$GT$3len17h0a6a21d9f7f3c23eE', symObjAddr: 0x0, symBinAddr: 0x452AC, symSize: 0x24 }
  - { offset: 0xB7B2F, size: 0x8, addend: 0x0, symName: __ZN8rusqlite5cache14StatementCache13with_capacity17h9c3f280b3ceed0b3E, symObjAddr: 0xEC, symBinAddr: 0x45398, symSize: 0x50 }
  - { offset: 0xB7C67, size: 0x8, addend: 0x0, symName: __ZN10rayon_core5sleep8counters13select_thread17h47ffed248d8592b9E, symObjAddr: 0x0, symBinAddr: 0x453E8, symSize: 0x54 }
  - { offset: 0xB7C83, size: 0x8, addend: 0x0, symName: __ZN10rayon_core5sleep8counters13select_thread17h47ffed248d8592b9E, symObjAddr: 0x0, symBinAddr: 0x453E8, symSize: 0x54 }
  - { offset: 0xB7D1C, size: 0x8, addend: 0x0, symName: __ZN10rayon_core5sleep8counters8Counters16inactive_threads17hcb84b51a3b144422E, symObjAddr: 0x54, symBinAddr: 0x4543C, symSize: 0x28 }
  - { offset: 0xB7D3E, size: 0x8, addend: 0x0, symName: __ZN10rayon_core5sleep8counters8Counters16sleeping_threads17hf79abcdc50ef6558E, symObjAddr: 0x7C, symBinAddr: 0x45464, symSize: 0x24 }
  - { offset: 0xB7D61, size: 0x8, addend: 0x0, symName: __ZN10rayon_core5sleep8counters8Counters22awake_but_idle_threads17h8f35e16600b31fa5E, symObjAddr: 0xA0, symBinAddr: 0x45488, symSize: 0x10C }
  - { offset: 0xB8082, size: 0x8, addend: 0x0, symName: __ZN5rayon4iter7collect14special_extend17h4faaaf30dbb3bd3aE, symObjAddr: 0x0, symBinAddr: 0x45594, symSize: 0x58 }
  - { offset: 0xB9F89, size: 0x8, addend: 0x0, symName: __ZN5rayon4iter7collect14special_extend17h4faaaf30dbb3bd3aE, symObjAddr: 0x0, symBinAddr: 0x45594, symSize: 0x58 }
  - { offset: 0xB9FE0, size: 0x8, addend: 0x0, symName: __ZN5rayon4iter7collect14special_extend17h5f15bdb87ab18530E, symObjAddr: 0x58, symBinAddr: 0x455EC, symSize: 0x58 }
  - { offset: 0xBA037, size: 0x8, addend: 0x0, symName: __ZN5rayon4iter7collect14special_extend17hb4c9460eb162bce5E, symObjAddr: 0xB0, symBinAddr: 0x45644, symSize: 0x58 }
  - { offset: 0xBA08E, size: 0x8, addend: 0x0, symName: __ZN5rayon4iter7collect14special_extend17hd1a3beca840059e5E, symObjAddr: 0x108, symBinAddr: 0x4569C, symSize: 0x58 }
  - { offset: 0xBA0EA, size: 0x8, addend: 0x0, symName: '__ZN5rayon4iter7collect14special_extend28_$u7b$$u7b$closure$u7d$$u7d$17ha43dff039b15a0aeE', symObjAddr: 0x160, symBinAddr: 0x456F4, symSize: 0x60 }
  - { offset: 0xBA138, size: 0x8, addend: 0x0, symName: '__ZN5rayon4iter7collect14special_extend28_$u7b$$u7b$closure$u7d$$u7d$17hcfaaf12d649c1544E', symObjAddr: 0x1C0, symBinAddr: 0x45754, symSize: 0x60 }
  - { offset: 0xBA186, size: 0x8, addend: 0x0, symName: '__ZN5rayon4iter7collect14special_extend28_$u7b$$u7b$closure$u7d$$u7d$17hd96db96eb8c086d4E', symObjAddr: 0x220, symBinAddr: 0x457B4, symSize: 0x60 }
  - { offset: 0xBA1D4, size: 0x8, addend: 0x0, symName: '__ZN5rayon4iter7collect14special_extend28_$u7b$$u7b$closure$u7d$$u7d$17hfdf13100f6689511E', symObjAddr: 0x280, symBinAddr: 0x45814, symSize: 0x60 }
  - { offset: 0xBA26F, size: 0x8, addend: 0x0, symName: __ZN5rayon4iter7collect21collect_with_consumer17h2093ce60234fff59E, symObjAddr: 0x2E0, symBinAddr: 0x45874, symSize: 0x240 }
  - { offset: 0xBA34B, size: 0x8, addend: 0x0, symName: __ZN5rayon4iter7collect21collect_with_consumer17h6d90b679048fad7dE, symObjAddr: 0x520, symBinAddr: 0x45AB4, symSize: 0x240 }
  - { offset: 0xBA427, size: 0x8, addend: 0x0, symName: __ZN5rayon4iter7collect21collect_with_consumer17h8d6d6a7626dafe73E, symObjAddr: 0x760, symBinAddr: 0x45CF4, symSize: 0x240 }
  - { offset: 0xBA503, size: 0x8, addend: 0x0, symName: __ZN5rayon4iter7collect21collect_with_consumer17hfd4f395529403eedE, symObjAddr: 0x9A0, symBinAddr: 0x45F34, symSize: 0x240 }
  - { offset: 0xBB91C, size: 0x8, addend: 0x0, symName: '__ZN98_$LT$hashbrown..control..bitmask..BitMask$u20$as$u20$core..iter..traits..collect..IntoIterator$GT$9into_iter17hd7ec11a1f28bf3a3E', symObjAddr: 0x0, symBinAddr: 0x46174, symSize: 0x14 }
  - { offset: 0xBB93D, size: 0x8, addend: 0x0, symName: '__ZN98_$LT$hashbrown..control..bitmask..BitMask$u20$as$u20$core..iter..traits..collect..IntoIterator$GT$9into_iter17hd7ec11a1f28bf3a3E', symObjAddr: 0x0, symBinAddr: 0x46174, symSize: 0x14 }
  - { offset: 0xBB96F, size: 0x8, addend: 0x0, symName: '__ZN99_$LT$hashbrown..control..bitmask..BitMaskIter$u20$as$u20$core..iter..traits..iterator..Iterator$GT$4next17h235a767cdec2c573E', symObjAddr: 0x14, symBinAddr: 0x46188, symSize: 0x90 }
  - { offset: 0xBBA8F, size: 0x8, addend: 0x0, symName: __ZN9hashbrown7control7bitmask7BitMask11any_bit_set17h9acb5114199b39e1E, symObjAddr: 0xA4, symBinAddr: 0x46218, symSize: 0x18 }
  - { offset: 0xBBC15, size: 0x8, addend: 0x0, symName: __ZN9hashbrown7control7bitmask7BitMask13leading_zeros17hef3a58c222267197E, symObjAddr: 0xBC, symBinAddr: 0x46230, symSize: 0x28 }
  - { offset: 0xBBC54, size: 0x8, addend: 0x0, symName: __ZN9hashbrown7control7bitmask7BitMask14lowest_set_bit17hc0dccb23e34646fcE, symObjAddr: 0xE4, symBinAddr: 0x46258, symSize: 0x64 }
  - { offset: 0xBBC93, size: 0x8, addend: 0x0, symName: __ZN9hashbrown7control7bitmask7BitMask14trailing_zeros17hf17b3eebe26c6dd7E, symObjAddr: 0x148, symBinAddr: 0x462BC, symSize: 0x2C }
  - { offset: 0xBBCD2, size: 0x8, addend: 0x0, symName: __ZN9hashbrown7control7bitmask7BitMask17remove_lowest_bit17h6c22c7f993fdfd54E, symObjAddr: 0x174, symBinAddr: 0x462E8, symSize: 0x4C }
  - { offset: 0xBBCF4, size: 0x8, addend: 0x0, symName: __ZN9hashbrown7control7bitmask7BitMask22nonzero_trailing_zeros17h45cde6615f5e69ddE, symObjAddr: 0x1C0, symBinAddr: 0x46334, symSize: 0x2C }
  - { offset: 0xBBD41, size: 0x8, addend: 0x0, symName: __ZN10rayon_core6unwind14halt_unwinding17h007576c3a6d8ab5aE, symObjAddr: 0x0, symBinAddr: 0x46360, symSize: 0x40 }
  - { offset: 0xBDE9E, size: 0x8, addend: 0x0, symName: __ZN10rayon_core6unwind14halt_unwinding17h007576c3a6d8ab5aE, symObjAddr: 0x0, symBinAddr: 0x46360, symSize: 0x40 }
  - { offset: 0xBDEDD, size: 0x8, addend: 0x0, symName: __ZN10rayon_core6unwind14halt_unwinding17h010d9f97040eb1d9E, symObjAddr: 0x40, symBinAddr: 0x463A0, symSize: 0x40 }
  - { offset: 0xBDF1C, size: 0x8, addend: 0x0, symName: __ZN10rayon_core6unwind14halt_unwinding17h015245ad420a82c6E, symObjAddr: 0x80, symBinAddr: 0x463E0, symSize: 0x40 }
  - { offset: 0xBDF5B, size: 0x8, addend: 0x0, symName: __ZN10rayon_core6unwind14halt_unwinding17h04da791b62b65647E, symObjAddr: 0xC0, symBinAddr: 0x46420, symSize: 0x38 }
  - { offset: 0xBDF9A, size: 0x8, addend: 0x0, symName: __ZN10rayon_core6unwind14halt_unwinding17h098a6ecf144b6cf1E, symObjAddr: 0xF8, symBinAddr: 0x46458, symSize: 0x38 }
  - { offset: 0xBDFD9, size: 0x8, addend: 0x0, symName: __ZN10rayon_core6unwind14halt_unwinding17h09c899f18e774b77E, symObjAddr: 0x130, symBinAddr: 0x46490, symSize: 0x40 }
  - { offset: 0xBE018, size: 0x8, addend: 0x0, symName: __ZN10rayon_core6unwind14halt_unwinding17h0b36a8b2a602033fE, symObjAddr: 0x170, symBinAddr: 0x464D0, symSize: 0x40 }
  - { offset: 0xBE057, size: 0x8, addend: 0x0, symName: __ZN10rayon_core6unwind14halt_unwinding17h1158471c27af9c81E, symObjAddr: 0x1B0, symBinAddr: 0x46510, symSize: 0x38 }
  - { offset: 0xBE096, size: 0x8, addend: 0x0, symName: __ZN10rayon_core6unwind14halt_unwinding17h12ef863c0606c69eE, symObjAddr: 0x1E8, symBinAddr: 0x46548, symSize: 0x40 }
  - { offset: 0xBE0D5, size: 0x8, addend: 0x0, symName: __ZN10rayon_core6unwind14halt_unwinding17h1577f3db5f525e19E, symObjAddr: 0x228, symBinAddr: 0x46588, symSize: 0x40 }
  - { offset: 0xBE114, size: 0x8, addend: 0x0, symName: __ZN10rayon_core6unwind14halt_unwinding17h1b7f9a8289d11fe7E, symObjAddr: 0x268, symBinAddr: 0x465C8, symSize: 0x40 }
  - { offset: 0xBE153, size: 0x8, addend: 0x0, symName: __ZN10rayon_core6unwind14halt_unwinding17h2a3455613878c25bE, symObjAddr: 0x2A8, symBinAddr: 0x46608, symSize: 0x38 }
  - { offset: 0xBE192, size: 0x8, addend: 0x0, symName: __ZN10rayon_core6unwind14halt_unwinding17h2bcb2f0c8ed7d79cE, symObjAddr: 0x2E0, symBinAddr: 0x46640, symSize: 0x40 }
  - { offset: 0xBE1D1, size: 0x8, addend: 0x0, symName: __ZN10rayon_core6unwind14halt_unwinding17h3405252c54c61401E, symObjAddr: 0x320, symBinAddr: 0x46680, symSize: 0x38 }
  - { offset: 0xBE210, size: 0x8, addend: 0x0, symName: __ZN10rayon_core6unwind14halt_unwinding17h4511c9887cc3378aE, symObjAddr: 0x358, symBinAddr: 0x466B8, symSize: 0x40 }
  - { offset: 0xBE24F, size: 0x8, addend: 0x0, symName: __ZN10rayon_core6unwind14halt_unwinding17h481b2496f423cd65E, symObjAddr: 0x398, symBinAddr: 0x466F8, symSize: 0x40 }
  - { offset: 0xBE28E, size: 0x8, addend: 0x0, symName: __ZN10rayon_core6unwind14halt_unwinding17h52db268843fbbc6eE, symObjAddr: 0x3D8, symBinAddr: 0x46738, symSize: 0x40 }
  - { offset: 0xBE2CD, size: 0x8, addend: 0x0, symName: __ZN10rayon_core6unwind14halt_unwinding17h5481529bea57d6ebE, symObjAddr: 0x418, symBinAddr: 0x46778, symSize: 0x40 }
  - { offset: 0xBE30C, size: 0x8, addend: 0x0, symName: __ZN10rayon_core6unwind14halt_unwinding17h57930fdff53c17c9E, symObjAddr: 0x458, symBinAddr: 0x467B8, symSize: 0x40 }
  - { offset: 0xBE34B, size: 0x8, addend: 0x0, symName: __ZN10rayon_core6unwind14halt_unwinding17h57f2af44aa974f7eE, symObjAddr: 0x498, symBinAddr: 0x467F8, symSize: 0x40 }
  - { offset: 0xBE38A, size: 0x8, addend: 0x0, symName: __ZN10rayon_core6unwind14halt_unwinding17h5cfe3d0556673211E, symObjAddr: 0x4D8, symBinAddr: 0x46838, symSize: 0x38 }
  - { offset: 0xBE3C9, size: 0x8, addend: 0x0, symName: __ZN10rayon_core6unwind14halt_unwinding17h5d4ec0165e6fbc85E, symObjAddr: 0x510, symBinAddr: 0x46870, symSize: 0x40 }
  - { offset: 0xBE408, size: 0x8, addend: 0x0, symName: __ZN10rayon_core6unwind14halt_unwinding17h61684d723153a328E, symObjAddr: 0x550, symBinAddr: 0x468B0, symSize: 0x40 }
  - { offset: 0xBE447, size: 0x8, addend: 0x0, symName: __ZN10rayon_core6unwind14halt_unwinding17h646c1433fbe0847dE, symObjAddr: 0x590, symBinAddr: 0x468F0, symSize: 0x40 }
  - { offset: 0xBE486, size: 0x8, addend: 0x0, symName: __ZN10rayon_core6unwind14halt_unwinding17h6830fdfaf94ef32cE, symObjAddr: 0x5D0, symBinAddr: 0x46930, symSize: 0x38 }
  - { offset: 0xBE4C5, size: 0x8, addend: 0x0, symName: __ZN10rayon_core6unwind14halt_unwinding17h6bbb272957a9d63cE, symObjAddr: 0x608, symBinAddr: 0x46968, symSize: 0x40 }
  - { offset: 0xBE504, size: 0x8, addend: 0x0, symName: __ZN10rayon_core6unwind14halt_unwinding17h70560f6eeeaf897dE, symObjAddr: 0x648, symBinAddr: 0x469A8, symSize: 0x38 }
  - { offset: 0xBE543, size: 0x8, addend: 0x0, symName: __ZN10rayon_core6unwind14halt_unwinding17h80cb4ac396cc4154E, symObjAddr: 0x680, symBinAddr: 0x469E0, symSize: 0x40 }
  - { offset: 0xBE582, size: 0x8, addend: 0x0, symName: __ZN10rayon_core6unwind14halt_unwinding17h9810c6eac90b4909E, symObjAddr: 0x6C0, symBinAddr: 0x46A20, symSize: 0x40 }
  - { offset: 0xBE5C1, size: 0x8, addend: 0x0, symName: __ZN10rayon_core6unwind14halt_unwinding17h9a8f043541f6625cE, symObjAddr: 0x700, symBinAddr: 0x46A60, symSize: 0x38 }
  - { offset: 0xBE600, size: 0x8, addend: 0x0, symName: __ZN10rayon_core6unwind14halt_unwinding17h9dabef569232146bE, symObjAddr: 0x738, symBinAddr: 0x46A98, symSize: 0x38 }
  - { offset: 0xBE63F, size: 0x8, addend: 0x0, symName: __ZN10rayon_core6unwind14halt_unwinding17ha775ed68b091f51fE, symObjAddr: 0x770, symBinAddr: 0x46AD0, symSize: 0x40 }
  - { offset: 0xBE67E, size: 0x8, addend: 0x0, symName: __ZN10rayon_core6unwind14halt_unwinding17hb5af1d6c451c52b5E, symObjAddr: 0x7B0, symBinAddr: 0x46B10, symSize: 0x40 }
  - { offset: 0xBE6BD, size: 0x8, addend: 0x0, symName: __ZN10rayon_core6unwind14halt_unwinding17hb8539189add5853cE, symObjAddr: 0x7F0, symBinAddr: 0x46B50, symSize: 0x40 }
  - { offset: 0xBE6FC, size: 0x8, addend: 0x0, symName: __ZN10rayon_core6unwind14halt_unwinding17hbb4e4b8a66ebac56E, symObjAddr: 0x830, symBinAddr: 0x46B90, symSize: 0x38 }
  - { offset: 0xBE73B, size: 0x8, addend: 0x0, symName: __ZN10rayon_core6unwind14halt_unwinding17hbf542e02a3cc5d5aE, symObjAddr: 0x868, symBinAddr: 0x46BC8, symSize: 0x38 }
  - { offset: 0xBE77A, size: 0x8, addend: 0x0, symName: __ZN10rayon_core6unwind14halt_unwinding17hcbe6778b08d782f8E, symObjAddr: 0x8A0, symBinAddr: 0x46C00, symSize: 0x38 }
  - { offset: 0xBE7B9, size: 0x8, addend: 0x0, symName: __ZN10rayon_core6unwind14halt_unwinding17hcd03fe0a1f6a7a59E, symObjAddr: 0x8D8, symBinAddr: 0x46C38, symSize: 0x40 }
  - { offset: 0xBE7F8, size: 0x8, addend: 0x0, symName: __ZN10rayon_core6unwind14halt_unwinding17hce20106dc463d211E, symObjAddr: 0x918, symBinAddr: 0x46C78, symSize: 0x40 }
  - { offset: 0xBE837, size: 0x8, addend: 0x0, symName: __ZN10rayon_core6unwind14halt_unwinding17hd962cd7b93145c9cE, symObjAddr: 0x958, symBinAddr: 0x46CB8, symSize: 0x38 }
  - { offset: 0xBE876, size: 0x8, addend: 0x0, symName: __ZN10rayon_core6unwind14halt_unwinding17hdde56e3214ab0fe9E, symObjAddr: 0x990, symBinAddr: 0x46CF0, symSize: 0x40 }
  - { offset: 0xBE8B5, size: 0x8, addend: 0x0, symName: __ZN10rayon_core6unwind14halt_unwinding17he94fe5ac90e2e2a5E, symObjAddr: 0x9D0, symBinAddr: 0x46D30, symSize: 0x38 }
  - { offset: 0xBE8F4, size: 0x8, addend: 0x0, symName: __ZN10rayon_core6unwind14halt_unwinding17heacd5928e93f31b7E, symObjAddr: 0xA08, symBinAddr: 0x46D68, symSize: 0x38 }
  - { offset: 0xBE933, size: 0x8, addend: 0x0, symName: __ZN10rayon_core6unwind14halt_unwinding17hec227f3f2323d599E, symObjAddr: 0xA40, symBinAddr: 0x46DA0, symSize: 0x40 }
  - { offset: 0xBE972, size: 0x8, addend: 0x0, symName: __ZN10rayon_core6unwind14halt_unwinding17hf4651eab117c4bbeE, symObjAddr: 0xA80, symBinAddr: 0x46DE0, symSize: 0x40 }
  - { offset: 0xBE9B1, size: 0x8, addend: 0x0, symName: __ZN10rayon_core6unwind14halt_unwinding17hf4f7584f3d3890ecE, symObjAddr: 0xAC0, symBinAddr: 0x46E20, symSize: 0x40 }
  - { offset: 0xBE9F0, size: 0x8, addend: 0x0, symName: __ZN10rayon_core6unwind14halt_unwinding17hfdd9faa709d8a227E, symObjAddr: 0xB00, symBinAddr: 0x46E60, symSize: 0x40 }
  - { offset: 0xBEA2F, size: 0x8, addend: 0x0, symName: __ZN10rayon_core6unwind14halt_unwinding17hfff8f4889ef72f15E, symObjAddr: 0xB40, symBinAddr: 0x46EA0, symSize: 0x40 }
  - { offset: 0xC1335, size: 0x8, addend: 0x0, symName: '__ZN102_$LT$core..iter..adapters..zip..Zip$LT$A$C$B$GT$$u20$as$u20$core..iter..traits..iterator..Iterator$GT$4next17h435b45561d9496a3E', symObjAddr: 0x0, symBinAddr: 0x46EE0, symSize: 0x24 }
  - { offset: 0xC1B1C, size: 0x8, addend: 0x0, symName: '__ZN102_$LT$core..iter..adapters..zip..Zip$LT$A$C$B$GT$$u20$as$u20$core..iter..traits..iterator..Iterator$GT$4next17h435b45561d9496a3E', symObjAddr: 0x0, symBinAddr: 0x46EE0, symSize: 0x24 }
  - { offset: 0xC1B5A, size: 0x8, addend: 0x0, symName: '__ZN102_$LT$core..iter..adapters..zip..Zip$LT$A$C$B$GT$$u20$as$u20$core..iter..traits..iterator..Iterator$GT$4next17h774068e308c50e67E', symObjAddr: 0x24, symBinAddr: 0x46F04, symSize: 0x24 }
  - { offset: 0xC1B98, size: 0x8, addend: 0x0, symName: '__ZN102_$LT$core..iter..adapters..zip..Zip$LT$A$C$B$GT$$u20$as$u20$core..iter..traits..iterator..Iterator$GT$4next17hdef548b453318455E', symObjAddr: 0x48, symBinAddr: 0x46F28, symSize: 0x24 }
  - { offset: 0xC1BDC, size: 0x8, addend: 0x0, symName: '__ZN111_$LT$core..iter..adapters..zip..Zip$LT$A$C$B$GT$$u20$as$u20$core..iter..adapters..zip..ZipImpl$LT$A$C$B$GT$$GT$3new17h63546e157ad6fd11E', symObjAddr: 0x6C, symBinAddr: 0x46F4C, symSize: 0xE0 }
  - { offset: 0xC1C71, size: 0x8, addend: 0x0, symName: '__ZN111_$LT$core..iter..adapters..zip..Zip$LT$A$C$B$GT$$u20$as$u20$core..iter..adapters..zip..ZipImpl$LT$A$C$B$GT$$GT$3new17ha725d68e12618251E', symObjAddr: 0x188, symBinAddr: 0x47068, symSize: 0xBC }
  - { offset: 0xC1D04, size: 0x8, addend: 0x0, symName: '__ZN111_$LT$core..iter..adapters..zip..Zip$LT$A$C$B$GT$$u20$as$u20$core..iter..adapters..zip..ZipImpl$LT$A$C$B$GT$$GT$4next17h688824786d3849e3E', symObjAddr: 0x324, symBinAddr: 0x47204, symSize: 0xB0 }
  - { offset: 0xC1D5A, size: 0x8, addend: 0x0, symName: '__ZN111_$LT$core..iter..adapters..zip..Zip$LT$A$C$B$GT$$u20$as$u20$core..iter..adapters..zip..ZipImpl$LT$A$C$B$GT$$GT$4next17h830c8cb5659a3f26E', symObjAddr: 0x3D4, symBinAddr: 0x472B4, symSize: 0xD4 }
  - { offset: 0xC1DB6, size: 0x8, addend: 0x0, symName: '__ZN111_$LT$core..iter..adapters..zip..Zip$LT$A$C$B$GT$$u20$as$u20$core..iter..adapters..zip..ZipImpl$LT$A$C$B$GT$$GT$3new17h9eeb688c137682b3E', symObjAddr: 0x14C, symBinAddr: 0x4702C, symSize: 0x3C }
  - { offset: 0xC1E02, size: 0x8, addend: 0x0, symName: '__ZN111_$LT$core..iter..adapters..zip..Zip$LT$A$C$B$GT$$u20$as$u20$core..iter..adapters..zip..ZipImpl$LT$A$C$B$GT$$GT$4next17h295302ea4c5229baE', symObjAddr: 0x244, symBinAddr: 0x47124, symSize: 0xE0 }
  - { offset: 0xC20C5, size: 0x8, addend: 0x0, symName: '__ZN63_$LT$I$u20$as$u20$core..iter..traits..collect..IntoIterator$GT$9into_iter17h3e9e1a1100b6a028E', symObjAddr: 0x4A8, symBinAddr: 0x47388, symSize: 0x30 }
  - { offset: 0xC20FD, size: 0x8, addend: 0x0, symName: '__ZN63_$LT$I$u20$as$u20$core..iter..traits..collect..IntoIterator$GT$9into_iter17hbd42b25ff858fe1aE', symObjAddr: 0x4D8, symBinAddr: 0x473B8, symSize: 0x30 }
  - { offset: 0xC2135, size: 0x8, addend: 0x0, symName: '__ZN63_$LT$I$u20$as$u20$core..iter..traits..collect..IntoIterator$GT$9into_iter17hbf610cfdfa8c24e7E', symObjAddr: 0x508, symBinAddr: 0x473E8, symSize: 0x30 }
  - { offset: 0xC216D, size: 0x8, addend: 0x0, symName: '__ZN63_$LT$I$u20$as$u20$core..iter..traits..collect..IntoIterator$GT$9into_iter17hea7d8a5c3105c090E', symObjAddr: 0x538, symBinAddr: 0x47418, symSize: 0x30 }
  - { offset: 0xC3A0E, size: 0x8, addend: 0x0, symName: '__ZN4pyo35impl_7pyclass16lazy_type_object23LazyTypeObject$LT$T$GT$11get_or_init17h0b921623b7b76cabE', symObjAddr: 0x0, symBinAddr: 0x47448, symSize: 0x40 }
  - { offset: 0xC54F8, size: 0x8, addend: 0x0, symName: '__ZN4pyo35impl_7pyclass16lazy_type_object23LazyTypeObject$LT$T$GT$11get_or_init28_$u7b$$u7b$closure$u7d$$u7d$17h1ce5462854a7c26bE', symObjAddr: 0x100, symBinAddr: 0x47548, symSize: 0xA8 }
  - { offset: 0xC5581, size: 0x8, addend: 0x0, symName: '__ZN4pyo35impl_7pyclass16lazy_type_object23LazyTypeObject$LT$T$GT$11get_or_init28_$u7b$$u7b$closure$u7d$$u7d$17h2d47a8f8b611b74aE', symObjAddr: 0x1A8, symBinAddr: 0x475F0, symSize: 0xA8 }
  - { offset: 0xC560A, size: 0x8, addend: 0x0, symName: '__ZN4pyo35impl_7pyclass16lazy_type_object23LazyTypeObject$LT$T$GT$11get_or_init28_$u7b$$u7b$closure$u7d$$u7d$17hbc4aaf0ad0404aa8E', symObjAddr: 0x250, symBinAddr: 0x47698, symSize: 0xA8 }
  - { offset: 0xC5693, size: 0x8, addend: 0x0, symName: '__ZN4pyo35impl_7pyclass16lazy_type_object23LazyTypeObject$LT$T$GT$11get_or_init28_$u7b$$u7b$closure$u7d$$u7d$17hefc0968f320ae6b6E', symObjAddr: 0x2F8, symBinAddr: 0x47740, symSize: 0xA8 }
  - { offset: 0xC6712, size: 0x8, addend: 0x0, symName: '__ZN4pyo35impl_7pyclass16lazy_type_object23LazyTypeObject$LT$T$GT$11get_or_init17h0b921623b7b76cabE', symObjAddr: 0x0, symBinAddr: 0x47448, symSize: 0x40 }
  - { offset: 0xC6763, size: 0x8, addend: 0x0, symName: '__ZN4pyo35impl_7pyclass16lazy_type_object23LazyTypeObject$LT$T$GT$11get_or_init17h5dd0d4560d92f85dE', symObjAddr: 0x40, symBinAddr: 0x47488, symSize: 0x40 }
  - { offset: 0xC67B4, size: 0x8, addend: 0x0, symName: '__ZN4pyo35impl_7pyclass16lazy_type_object23LazyTypeObject$LT$T$GT$11get_or_init17h97670e701e771e4eE', symObjAddr: 0x80, symBinAddr: 0x474C8, symSize: 0x40 }
  - { offset: 0xC6805, size: 0x8, addend: 0x0, symName: '__ZN4pyo35impl_7pyclass16lazy_type_object23LazyTypeObject$LT$T$GT$11get_or_init17hf51597f52caca800E', symObjAddr: 0xC0, symBinAddr: 0x47508, symSize: 0x40 }
  - { offset: 0xC6849, size: 0x8, addend: 0x0, symName: '__ZN4pyo35impl_7pyclass16lazy_type_object23LazyTypeObject$LT$T$GT$15get_or_try_init17h3cbd42e0b0c1551bE', symObjAddr: 0x3A0, symBinAddr: 0x477E8, symSize: 0x58 }
  - { offset: 0xC688D, size: 0x8, addend: 0x0, symName: '__ZN4pyo35impl_7pyclass16lazy_type_object23LazyTypeObject$LT$T$GT$15get_or_try_init17h80e65dc9fec2c2f5E', symObjAddr: 0x3F8, symBinAddr: 0x47840, symSize: 0x58 }
  - { offset: 0xC68D1, size: 0x8, addend: 0x0, symName: '__ZN4pyo35impl_7pyclass16lazy_type_object23LazyTypeObject$LT$T$GT$15get_or_try_init17hbb8d4483c88957e0E', symObjAddr: 0x450, symBinAddr: 0x47898, symSize: 0x58 }
  - { offset: 0xC6915, size: 0x8, addend: 0x0, symName: '__ZN4pyo35impl_7pyclass16lazy_type_object23LazyTypeObject$LT$T$GT$15get_or_try_init17hbc9813380d286176E', symObjAddr: 0x4A8, symBinAddr: 0x478F0, symSize: 0x58 }
  - { offset: 0xC6A6B, size: 0x8, addend: 0x0, symName: '__ZN4core5array4iter10iter_inner78PolymorphicIter$LT$$u5b$core..mem..maybe_uninit..MaybeUninit$LT$T$GT$$u5d$$GT$4next17hc6b5f4ff6c5f6fbaE', symObjAddr: 0x0, symBinAddr: 0x47948, symSize: 0x180 }
  - { offset: 0xC715A, size: 0x8, addend: 0x0, symName: '__ZN4core5array4iter10iter_inner78PolymorphicIter$LT$$u5b$core..mem..maybe_uninit..MaybeUninit$LT$T$GT$$u5d$$GT$4next17hc6b5f4ff6c5f6fbaE', symObjAddr: 0x0, symBinAddr: 0x47948, symSize: 0x180 }
  - { offset: 0xC73AD, size: 0x8, addend: 0x0, symName: __ZN3std9panicking12catch_unwind7do_call17h002ba53d7e697e2aE, symObjAddr: 0x0, symBinAddr: 0x47AC8, symSize: 0x80 }
  - { offset: 0xC7807, size: 0x8, addend: 0x0, symName: __ZN3std9panicking12catch_unwind7do_call17h002ba53d7e697e2aE, symObjAddr: 0x0, symBinAddr: 0x47AC8, symSize: 0x80 }
  - { offset: 0xC78EE, size: 0x8, addend: 0x0, symName: __ZN3std9panicking12catch_unwind7do_call17h02e0e9a3a199a2adE, symObjAddr: 0x80, symBinAddr: 0x47B48, symSize: 0x80 }
  - { offset: 0xC79D5, size: 0x8, addend: 0x0, symName: __ZN3std9panicking12catch_unwind7do_call17h035ea0af1214395aE, symObjAddr: 0x100, symBinAddr: 0x47BC8, symSize: 0x74 }
  - { offset: 0xC7ABB, size: 0x8, addend: 0x0, symName: __ZN3std9panicking12catch_unwind7do_call17h05aa6bc2b390bb52E, symObjAddr: 0x174, symBinAddr: 0x47C3C, symSize: 0x80 }
  - { offset: 0xC7BA2, size: 0x8, addend: 0x0, symName: __ZN3std9panicking12catch_unwind7do_call17h08a07f6e22a6d49cE, symObjAddr: 0x1F4, symBinAddr: 0x47CBC, symSize: 0x60 }
  - { offset: 0xC7C88, size: 0x8, addend: 0x0, symName: __ZN3std9panicking12catch_unwind7do_call17h0a754ae238035594E, symObjAddr: 0x254, symBinAddr: 0x47D1C, symSize: 0x74 }
  - { offset: 0xC7D6E, size: 0x8, addend: 0x0, symName: __ZN3std9panicking12catch_unwind7do_call17h0f8784a8efbf169fE, symObjAddr: 0x2C8, symBinAddr: 0x47D90, symSize: 0x74 }
  - { offset: 0xC7E54, size: 0x8, addend: 0x0, symName: __ZN3std9panicking12catch_unwind7do_call17h10a613e868a57c78E, symObjAddr: 0x33C, symBinAddr: 0x47E04, symSize: 0x74 }
  - { offset: 0xC7F3A, size: 0x8, addend: 0x0, symName: __ZN3std9panicking12catch_unwind7do_call17h130275cea4198b4aE, symObjAddr: 0x3B0, symBinAddr: 0x47E78, symSize: 0x74 }
  - { offset: 0xC8020, size: 0x8, addend: 0x0, symName: __ZN3std9panicking12catch_unwind7do_call17h1552437fe6c6a99aE, symObjAddr: 0x424, symBinAddr: 0x47EEC, symSize: 0x80 }
  - { offset: 0xC8107, size: 0x8, addend: 0x0, symName: __ZN3std9panicking12catch_unwind7do_call17h1a19bc5fc34fd969E, symObjAddr: 0x4A4, symBinAddr: 0x47F6C, symSize: 0x74 }
  - { offset: 0xC81ED, size: 0x8, addend: 0x0, symName: __ZN3std9panicking12catch_unwind7do_call17h1fca7afe805ba3c6E, symObjAddr: 0x518, symBinAddr: 0x47FE0, symSize: 0x80 }
  - { offset: 0xC82D4, size: 0x8, addend: 0x0, symName: __ZN3std9panicking12catch_unwind7do_call17h20d23e058ad4434dE, symObjAddr: 0x598, symBinAddr: 0x48060, symSize: 0x80 }
  - { offset: 0xC83BB, size: 0x8, addend: 0x0, symName: __ZN3std9panicking12catch_unwind7do_call17h24d68e44cc89cf71E, symObjAddr: 0x618, symBinAddr: 0x480E0, symSize: 0x74 }
  - { offset: 0xC84A1, size: 0x8, addend: 0x0, symName: __ZN3std9panicking12catch_unwind7do_call17h2505d553db646e67E, symObjAddr: 0x68C, symBinAddr: 0x48154, symSize: 0x40 }
  - { offset: 0xC856A, size: 0x8, addend: 0x0, symName: __ZN3std9panicking12catch_unwind7do_call17h2cdb748916c7b141E, symObjAddr: 0x6CC, symBinAddr: 0x48194, symSize: 0x40 }
  - { offset: 0xC8633, size: 0x8, addend: 0x0, symName: __ZN3std9panicking12catch_unwind7do_call17h30a9cd8c65a4c6ecE, symObjAddr: 0x70C, symBinAddr: 0x481D4, symSize: 0x40 }
  - { offset: 0xC86FC, size: 0x8, addend: 0x0, symName: __ZN3std9panicking12catch_unwind7do_call17h34538341faf0e147E, symObjAddr: 0x74C, symBinAddr: 0x48214, symSize: 0x40 }
  - { offset: 0xC87C5, size: 0x8, addend: 0x0, symName: __ZN3std9panicking12catch_unwind7do_call17h372433d2f8ddda67E, symObjAddr: 0x78C, symBinAddr: 0x48254, symSize: 0x74 }
  - { offset: 0xC88AB, size: 0x8, addend: 0x0, symName: __ZN3std9panicking12catch_unwind7do_call17h38815059e2ad173eE, symObjAddr: 0x800, symBinAddr: 0x482C8, symSize: 0x80 }
  - { offset: 0xC8992, size: 0x8, addend: 0x0, symName: __ZN3std9panicking12catch_unwind7do_call17h410900f73478aa5eE, symObjAddr: 0x880, symBinAddr: 0x48348, symSize: 0x80 }
  - { offset: 0xC8A79, size: 0x8, addend: 0x0, symName: __ZN3std9panicking12catch_unwind7do_call17h451ef9262e31a53fE, symObjAddr: 0x900, symBinAddr: 0x483C8, symSize: 0x80 }
  - { offset: 0xC8B60, size: 0x8, addend: 0x0, symName: __ZN3std9panicking12catch_unwind7do_call17h4ca206e19b0dd9c3E, symObjAddr: 0x980, symBinAddr: 0x48448, symSize: 0x40 }
  - { offset: 0xC8C29, size: 0x8, addend: 0x0, symName: __ZN3std9panicking12catch_unwind7do_call17h5891c36ff574f700E, symObjAddr: 0x9C0, symBinAddr: 0x48488, symSize: 0x6C }
  - { offset: 0xC8D0F, size: 0x8, addend: 0x0, symName: __ZN3std9panicking12catch_unwind7do_call17h63d896fdcfbf917cE, symObjAddr: 0xA2C, symBinAddr: 0x484F4, symSize: 0x40 }
  - { offset: 0xC8DD8, size: 0x8, addend: 0x0, symName: __ZN3std9panicking12catch_unwind7do_call17h6acf0bee7b61c889E, symObjAddr: 0xA6C, symBinAddr: 0x48534, symSize: 0x40 }
  - { offset: 0xC8EA1, size: 0x8, addend: 0x0, symName: __ZN3std9panicking12catch_unwind7do_call17h6cd7b9bb708a67aaE, symObjAddr: 0xAAC, symBinAddr: 0x48574, symSize: 0x80 }
  - { offset: 0xC8F88, size: 0x8, addend: 0x0, symName: __ZN3std9panicking12catch_unwind7do_call17h6fa6145e64c2bfe6E, symObjAddr: 0xB2C, symBinAddr: 0x485F4, symSize: 0x80 }
  - { offset: 0xC906F, size: 0x8, addend: 0x0, symName: __ZN3std9panicking12catch_unwind7do_call17h75929a0f10b55a03E, symObjAddr: 0xBAC, symBinAddr: 0x48674, symSize: 0x40 }
  - { offset: 0xC9138, size: 0x8, addend: 0x0, symName: __ZN3std9panicking12catch_unwind7do_call17h76711a7d4fa2c0bfE, symObjAddr: 0xBEC, symBinAddr: 0x486B4, symSize: 0x6C }
  - { offset: 0xC921E, size: 0x8, addend: 0x0, symName: __ZN3std9panicking12catch_unwind7do_call17h7b46f665401c03bdE, symObjAddr: 0xC58, symBinAddr: 0x48720, symSize: 0x40 }
  - { offset: 0xC92E7, size: 0x8, addend: 0x0, symName: __ZN3std9panicking12catch_unwind7do_call17h86c1c49298f33d5bE, symObjAddr: 0xC98, symBinAddr: 0x48760, symSize: 0x80 }
  - { offset: 0xC93CE, size: 0x8, addend: 0x0, symName: __ZN3std9panicking12catch_unwind7do_call17h8ff620c91644cf32E, symObjAddr: 0xD18, symBinAddr: 0x487E0, symSize: 0x74 }
  - { offset: 0xC94B4, size: 0x8, addend: 0x0, symName: __ZN3std9panicking12catch_unwind7do_call17h9279b00bd90e33fbE, symObjAddr: 0xD8C, symBinAddr: 0x48854, symSize: 0x74 }
  - { offset: 0xC959A, size: 0x8, addend: 0x0, symName: __ZN3std9panicking12catch_unwind7do_call17h9663f956b54f7600E, symObjAddr: 0xE00, symBinAddr: 0x488C8, symSize: 0x74 }
  - { offset: 0xC9680, size: 0x8, addend: 0x0, symName: __ZN3std9panicking12catch_unwind7do_call17h97c8a86f525b24c9E, symObjAddr: 0xE74, symBinAddr: 0x4893C, symSize: 0x74 }
  - { offset: 0xC9766, size: 0x8, addend: 0x0, symName: __ZN3std9panicking12catch_unwind7do_call17h984e87dbc9433bd6E, symObjAddr: 0xEE8, symBinAddr: 0x489B0, symSize: 0x40 }
  - { offset: 0xC982F, size: 0x8, addend: 0x0, symName: __ZN3std9panicking12catch_unwind7do_call17h9d686a3aca50b634E, symObjAddr: 0xF28, symBinAddr: 0x489F0, symSize: 0x80 }
  - { offset: 0xC9916, size: 0x8, addend: 0x0, symName: __ZN3std9panicking12catch_unwind7do_call17ha0ea0530c396ac78E, symObjAddr: 0xFA8, symBinAddr: 0x48A70, symSize: 0x70 }
  - { offset: 0xC99FC, size: 0x8, addend: 0x0, symName: __ZN3std9panicking12catch_unwind7do_call17ha59f9e4b475d6262E, symObjAddr: 0x1018, symBinAddr: 0x48AE0, symSize: 0x40 }
  - { offset: 0xC9AC5, size: 0x8, addend: 0x0, symName: __ZN3std9panicking12catch_unwind7do_call17ha7d1bb1b59ab0c26E, symObjAddr: 0x1058, symBinAddr: 0x48B20, symSize: 0x74 }
  - { offset: 0xC9BAB, size: 0x8, addend: 0x0, symName: __ZN3std9panicking12catch_unwind7do_call17hb24cf316519df6a5E, symObjAddr: 0x10CC, symBinAddr: 0x48B94, symSize: 0x80 }
  - { offset: 0xC9C92, size: 0x8, addend: 0x0, symName: __ZN3std9panicking12catch_unwind7do_call17hb291bf856c9e425dE, symObjAddr: 0x114C, symBinAddr: 0x48C14, symSize: 0x40 }
  - { offset: 0xC9D5B, size: 0x8, addend: 0x0, symName: __ZN3std9panicking12catch_unwind7do_call17hb5f12253cb793488E, symObjAddr: 0x118C, symBinAddr: 0x48C54, symSize: 0x74 }
  - { offset: 0xC9E41, size: 0x8, addend: 0x0, symName: __ZN3std9panicking12catch_unwind7do_call17hc838ff8caa2df53dE, symObjAddr: 0x1200, symBinAddr: 0x48CC8, symSize: 0x80 }
  - { offset: 0xC9F28, size: 0x8, addend: 0x0, symName: __ZN3std9panicking12catch_unwind7do_call17hcfd4ff3d7801320eE, symObjAddr: 0x1280, symBinAddr: 0x48D48, symSize: 0x74 }
  - { offset: 0xCA00E, size: 0x8, addend: 0x0, symName: __ZN3std9panicking12catch_unwind7do_call17hd6100ddb9916cd0eE, symObjAddr: 0x12F4, symBinAddr: 0x48DBC, symSize: 0x40 }
  - { offset: 0xCA0D7, size: 0x8, addend: 0x0, symName: __ZN3std9panicking12catch_unwind7do_call17hdb7535c37b9cf833E, symObjAddr: 0x1334, symBinAddr: 0x48DFC, symSize: 0x74 }
  - { offset: 0xCA1BD, size: 0x8, addend: 0x0, symName: __ZN3std9panicking12catch_unwind7do_call17hdccb7241f67bc71aE, symObjAddr: 0x13A8, symBinAddr: 0x48E70, symSize: 0x74 }
  - { offset: 0xCA2A3, size: 0x8, addend: 0x0, symName: __ZN3std9panicking12catch_unwind7do_call17he7aed2476b4c2e81E, symObjAddr: 0x141C, symBinAddr: 0x48EE4, symSize: 0x40 }
  - { offset: 0xCA36C, size: 0x8, addend: 0x0, symName: __ZN3std9panicking12catch_unwind7do_call17hee9e9e9ddc0114b4E, symObjAddr: 0x145C, symBinAddr: 0x48F24, symSize: 0x40 }
  - { offset: 0xCA435, size: 0x8, addend: 0x0, symName: __ZN3std9panicking12catch_unwind7do_call17hf9d4f3e164ae3042E, symObjAddr: 0x149C, symBinAddr: 0x48F64, symSize: 0x80 }
  - { offset: 0xCA51C, size: 0x8, addend: 0x0, symName: __ZN3std9panicking12catch_unwind7do_call17hfb69d21964d359eeE, symObjAddr: 0x151C, symBinAddr: 0x48FE4, symSize: 0x40 }
  - { offset: 0xCA5E5, size: 0x8, addend: 0x0, symName: __ZN3std9panicking12catch_unwind8do_catch17h01292dcddf78d49eE, symObjAddr: 0x155C, symBinAddr: 0x49024, symSize: 0x70 }
  - { offset: 0xCA67A, size: 0x8, addend: 0x0, symName: __ZN3std9panicking12catch_unwind8do_catch17h01802629f36e3afdE, symObjAddr: 0x15CC, symBinAddr: 0x49094, symSize: 0x70 }
  - { offset: 0xCA70F, size: 0x8, addend: 0x0, symName: __ZN3std9panicking12catch_unwind8do_catch17h0a628932b41f7200E, symObjAddr: 0x163C, symBinAddr: 0x49104, symSize: 0x70 }
  - { offset: 0xCA7A4, size: 0x8, addend: 0x0, symName: __ZN3std9panicking12catch_unwind8do_catch17h14204a636d2c60e0E, symObjAddr: 0x16AC, symBinAddr: 0x49174, symSize: 0x70 }
  - { offset: 0xCA839, size: 0x8, addend: 0x0, symName: __ZN3std9panicking12catch_unwind8do_catch17h16139a5234472253E, symObjAddr: 0x171C, symBinAddr: 0x491E4, symSize: 0x70 }
  - { offset: 0xCA8CE, size: 0x8, addend: 0x0, symName: __ZN3std9panicking12catch_unwind8do_catch17h19a6593a5e68df35E, symObjAddr: 0x178C, symBinAddr: 0x49254, symSize: 0x70 }
  - { offset: 0xCA963, size: 0x8, addend: 0x0, symName: __ZN3std9panicking12catch_unwind8do_catch17h1b0d0174283dfaeaE, symObjAddr: 0x17FC, symBinAddr: 0x492C4, symSize: 0x70 }
  - { offset: 0xCA9F8, size: 0x8, addend: 0x0, symName: __ZN3std9panicking12catch_unwind8do_catch17h1c937b537bdca396E, symObjAddr: 0x186C, symBinAddr: 0x49334, symSize: 0x70 }
  - { offset: 0xCAA8D, size: 0x8, addend: 0x0, symName: __ZN3std9panicking12catch_unwind8do_catch17h25ad62ff422ac64dE, symObjAddr: 0x18DC, symBinAddr: 0x493A4, symSize: 0x70 }
  - { offset: 0xCAB22, size: 0x8, addend: 0x0, symName: __ZN3std9panicking12catch_unwind8do_catch17h26243026efaad05dE, symObjAddr: 0x194C, symBinAddr: 0x49414, symSize: 0x70 }
  - { offset: 0xCABB7, size: 0x8, addend: 0x0, symName: __ZN3std9panicking12catch_unwind8do_catch17h2abbbb28ac763256E, symObjAddr: 0x19BC, symBinAddr: 0x49484, symSize: 0x70 }
  - { offset: 0xCAC4C, size: 0x8, addend: 0x0, symName: __ZN3std9panicking12catch_unwind8do_catch17h2b73e9b099ecd69fE, symObjAddr: 0x1A2C, symBinAddr: 0x494F4, symSize: 0x70 }
  - { offset: 0xCACE1, size: 0x8, addend: 0x0, symName: __ZN3std9panicking12catch_unwind8do_catch17h379e07b489d9490dE, symObjAddr: 0x1A9C, symBinAddr: 0x49564, symSize: 0x70 }
  - { offset: 0xCAD76, size: 0x8, addend: 0x0, symName: __ZN3std9panicking12catch_unwind8do_catch17h38a60a4e99d88dbbE, symObjAddr: 0x1B0C, symBinAddr: 0x495D4, symSize: 0x70 }
  - { offset: 0xCAE0B, size: 0x8, addend: 0x0, symName: __ZN3std9panicking12catch_unwind8do_catch17h49e91d778268d073E, symObjAddr: 0x1B7C, symBinAddr: 0x49644, symSize: 0x70 }
  - { offset: 0xCAEA0, size: 0x8, addend: 0x0, symName: __ZN3std9panicking12catch_unwind8do_catch17h5884e2232c822610E, symObjAddr: 0x1BEC, symBinAddr: 0x496B4, symSize: 0x70 }
  - { offset: 0xCAF35, size: 0x8, addend: 0x0, symName: __ZN3std9panicking12catch_unwind8do_catch17h5c4dd496db67306eE, symObjAddr: 0x1C5C, symBinAddr: 0x49724, symSize: 0x70 }
  - { offset: 0xCAFCA, size: 0x8, addend: 0x0, symName: __ZN3std9panicking12catch_unwind8do_catch17h6323d0e0786f3c66E, symObjAddr: 0x1CCC, symBinAddr: 0x49794, symSize: 0x70 }
  - { offset: 0xCB05F, size: 0x8, addend: 0x0, symName: __ZN3std9panicking12catch_unwind8do_catch17h6b5ccf665577ded1E, symObjAddr: 0x1D3C, symBinAddr: 0x49804, symSize: 0x70 }
  - { offset: 0xCB0F4, size: 0x8, addend: 0x0, symName: __ZN3std9panicking12catch_unwind8do_catch17h71016800cbea4d71E, symObjAddr: 0x1DAC, symBinAddr: 0x49874, symSize: 0x70 }
  - { offset: 0xCB189, size: 0x8, addend: 0x0, symName: __ZN3std9panicking12catch_unwind8do_catch17h7ee959e253f42926E, symObjAddr: 0x1E1C, symBinAddr: 0x498E4, symSize: 0x70 }
  - { offset: 0xCB21E, size: 0x8, addend: 0x0, symName: __ZN3std9panicking12catch_unwind8do_catch17h81b25bd6369f6b9aE, symObjAddr: 0x1E8C, symBinAddr: 0x49954, symSize: 0x70 }
  - { offset: 0xCB2B3, size: 0x8, addend: 0x0, symName: __ZN3std9panicking12catch_unwind8do_catch17h81ffe08e5519f5ccE, symObjAddr: 0x1EFC, symBinAddr: 0x499C4, symSize: 0x70 }
  - { offset: 0xCB348, size: 0x8, addend: 0x0, symName: __ZN3std9panicking12catch_unwind8do_catch17h82b00636c7085e1bE, symObjAddr: 0x1F6C, symBinAddr: 0x49A34, symSize: 0x70 }
  - { offset: 0xCB3DD, size: 0x8, addend: 0x0, symName: __ZN3std9panicking12catch_unwind8do_catch17h8452ab6e757d9688E, symObjAddr: 0x1FDC, symBinAddr: 0x49AA4, symSize: 0x70 }
  - { offset: 0xCB472, size: 0x8, addend: 0x0, symName: __ZN3std9panicking12catch_unwind8do_catch17h86c915493e4e95dfE, symObjAddr: 0x204C, symBinAddr: 0x49B14, symSize: 0x70 }
  - { offset: 0xCB507, size: 0x8, addend: 0x0, symName: __ZN3std9panicking12catch_unwind8do_catch17h8f418b09113352ceE, symObjAddr: 0x20BC, symBinAddr: 0x49B84, symSize: 0x70 }
  - { offset: 0xCB59C, size: 0x8, addend: 0x0, symName: __ZN3std9panicking12catch_unwind8do_catch17h9054776998bb3b46E, symObjAddr: 0x212C, symBinAddr: 0x49BF4, symSize: 0x70 }
  - { offset: 0xCB631, size: 0x8, addend: 0x0, symName: __ZN3std9panicking12catch_unwind8do_catch17h960f78c5d476f9beE, symObjAddr: 0x219C, symBinAddr: 0x49C64, symSize: 0x70 }
  - { offset: 0xCB6C6, size: 0x8, addend: 0x0, symName: __ZN3std9panicking12catch_unwind8do_catch17h991a631da4a4e471E, symObjAddr: 0x220C, symBinAddr: 0x49CD4, symSize: 0x70 }
  - { offset: 0xCB75B, size: 0x8, addend: 0x0, symName: __ZN3std9panicking12catch_unwind8do_catch17ha055be1a67293fbcE, symObjAddr: 0x227C, symBinAddr: 0x49D44, symSize: 0x70 }
  - { offset: 0xCB7F0, size: 0x8, addend: 0x0, symName: __ZN3std9panicking12catch_unwind8do_catch17ha0d3ac1b73cfe40fE, symObjAddr: 0x22EC, symBinAddr: 0x49DB4, symSize: 0x70 }
  - { offset: 0xCB885, size: 0x8, addend: 0x0, symName: __ZN3std9panicking12catch_unwind8do_catch17ha61e49d50f4588c8E, symObjAddr: 0x235C, symBinAddr: 0x49E24, symSize: 0x70 }
  - { offset: 0xCB91A, size: 0x8, addend: 0x0, symName: __ZN3std9panicking12catch_unwind8do_catch17hac25f5883aab328cE, symObjAddr: 0x23CC, symBinAddr: 0x49E94, symSize: 0x70 }
  - { offset: 0xCB9AF, size: 0x8, addend: 0x0, symName: __ZN3std9panicking12catch_unwind8do_catch17had191bb0012421c9E, symObjAddr: 0x243C, symBinAddr: 0x49F04, symSize: 0x70 }
  - { offset: 0xCBA44, size: 0x8, addend: 0x0, symName: __ZN3std9panicking12catch_unwind8do_catch17hadb4b48efa88e12fE, symObjAddr: 0x24AC, symBinAddr: 0x49F74, symSize: 0x70 }
  - { offset: 0xCBAD9, size: 0x8, addend: 0x0, symName: __ZN3std9panicking12catch_unwind8do_catch17hadcc3ab1545830bdE, symObjAddr: 0x251C, symBinAddr: 0x49FE4, symSize: 0x70 }
  - { offset: 0xCBB6E, size: 0x8, addend: 0x0, symName: __ZN3std9panicking12catch_unwind8do_catch17hb241c09ea629704eE, symObjAddr: 0x258C, symBinAddr: 0x4A054, symSize: 0x70 }
  - { offset: 0xCBC03, size: 0x8, addend: 0x0, symName: __ZN3std9panicking12catch_unwind8do_catch17hc03ef4c743f2ade0E, symObjAddr: 0x25FC, symBinAddr: 0x4A0C4, symSize: 0x70 }
  - { offset: 0xCBC98, size: 0x8, addend: 0x0, symName: __ZN3std9panicking12catch_unwind8do_catch17hc47bfda663487939E, symObjAddr: 0x266C, symBinAddr: 0x4A134, symSize: 0x70 }
  - { offset: 0xCBD2D, size: 0x8, addend: 0x0, symName: __ZN3std9panicking12catch_unwind8do_catch17hc8f1f29f0880d1c9E, symObjAddr: 0x26DC, symBinAddr: 0x4A1A4, symSize: 0x70 }
  - { offset: 0xCBDC2, size: 0x8, addend: 0x0, symName: __ZN3std9panicking12catch_unwind8do_catch17hcea56568c3bbccf6E, symObjAddr: 0x274C, symBinAddr: 0x4A214, symSize: 0x70 }
  - { offset: 0xCBE57, size: 0x8, addend: 0x0, symName: __ZN3std9panicking12catch_unwind8do_catch17hcfe5c1ee624a538dE, symObjAddr: 0x27BC, symBinAddr: 0x4A284, symSize: 0x70 }
  - { offset: 0xCBEEC, size: 0x8, addend: 0x0, symName: __ZN3std9panicking12catch_unwind8do_catch17hd13cc19bcc0de1c8E, symObjAddr: 0x282C, symBinAddr: 0x4A2F4, symSize: 0x70 }
  - { offset: 0xCBF81, size: 0x8, addend: 0x0, symName: __ZN3std9panicking12catch_unwind8do_catch17hd3b4092b18c71392E, symObjAddr: 0x289C, symBinAddr: 0x4A364, symSize: 0x70 }
  - { offset: 0xCC016, size: 0x8, addend: 0x0, symName: __ZN3std9panicking12catch_unwind8do_catch17hd4fe50aee263dcaeE, symObjAddr: 0x290C, symBinAddr: 0x4A3D4, symSize: 0x70 }
  - { offset: 0xCC0AB, size: 0x8, addend: 0x0, symName: __ZN3std9panicking12catch_unwind8do_catch17hd89dc7fdde629436E, symObjAddr: 0x297C, symBinAddr: 0x4A444, symSize: 0x70 }
